 fractal-testing

 Timestamp is 5f699d9a (Tue Sep 22 02:45:46 2020)

 Preferred load address is 0000000140000000

 Start         Length     Name                   Class
 0001:00000000 00026000H .text                   CODE
 0001:00026000 000000c0H .text$di                CODE
 0001:000260c0 000b6b70H .text$mn                CODE
 0001:000dcc30 00000020H .text$mn$00             CODE
 0001:000dcc50 00002510H .text$x                 CODE
 0001:000df160 000000c0H .text$yd                CODE
 0002:00000000 000006f8H .idata$5                DATA
 0002:000006f8 00000010H .00cfg                  DATA
 0002:00000708 00000008H .CRT$XCA                DATA
 0002:00000710 00000008H .CRT$XCAA               DATA
 0002:00000718 00000028H .CRT$XCC                DATA
 0002:00000740 00000010H .CRT$XCL                DATA
 0002:00000750 00000108H .CRT$XCU                DATA
 0002:00000858 00000008H .CRT$XCZ                DATA
 0002:00000860 00000008H .CRT$XIA                DATA
 0002:00000868 00000008H .CRT$XIAA               DATA
 0002:00000870 00000008H .CRT$XIAC               DATA
 0002:00000878 00000030H .CRT$XIC                DATA
 0002:000008a8 00000008H .CRT$XIZ                DATA
 0002:000008b0 00000008H .CRT$XPA                DATA
 0002:000008b8 00000008H .CRT$XPB                DATA
 0002:000008c0 00000010H .CRT$XPX                DATA
 0002:000008d0 00000008H .CRT$XPXA               DATA
 0002:000008d8 00000008H .CRT$XPZ                DATA
 0002:000008e0 00000008H .CRT$XTA                DATA
 0002:000008e8 00000018H .CRT$XTZ                DATA
 0002:000008f0 00000000H .gfids$y                DATA
 0002:00000900 00022a50H .rdata                  DATA
 0002:00023350 00005b94H .rdata$r                DATA
 0002:00028ee4 00000414H .rdata$zzzdbg           DATA
 0002:000292f8 00000008H .rtc$IAA                DATA
 0002:00029300 00000008H .rtc$IZZ                DATA
 0002:00029308 00000008H .rtc$TAA                DATA
 0002:00029310 00000010H .rtc$TZZ                DATA
 0002:00029320 0000e808H .xdata                  DATA
 0002:00037b28 00000c2cH .xdata$x                DATA
 0002:00038754 00000000H .edata                  DATA
 0002:00038754 000000a0H .idata$2                DATA
 0002:000387f4 00000014H .idata$3                DATA
 0002:00038808 000006f8H .idata$4                DATA
 0002:00038f00 00000f70H .idata$6                DATA
 0003:00000000 00006230H .data                   DATA
 0003:00006230 000029d0H .data$r                 DATA
 0003:00008c00 0000372cH .bss                    DATA
 0004:00000000 0000ed54H .pdata                  DATA
 0005:00000000 000031f0H .data1                  DATA
 0006:00000000 00002608H .trace                  DATA
 0007:00000000 0000254eH .debug_opt_report       DATA
 0008:00000000 00000060H .rsrc$01                DATA
 0008:00000060 00000180H .rsrc$02                DATA

  Address         Publics by Value              Rva+Base               Lib:Object

 0000:00000000       __hybrid_code_map_count    0000000000000000     <absolute>
 0000:00000000       __guard_iat_count          0000000000000000     <absolute>
 0000:00000000       __hybrid_code_map          0000000000000000     <absolute>
 0000:00000000       __dynamic_value_reloc_table 0000000000000000     <absolute>
 0000:00000000       __volatile_metadata        0000000000000000     <absolute>
 0000:00000000       __guard_iat_table          0000000000000000     <absolute>
 0000:00000000       __guard_fids_table         0000000000000000     <absolute>
 0000:00000000       __guard_longjmp_table      0000000000000000     <absolute>
 0000:00000000       ___safe_se_handler_table   0000000000000000     <absolute>
 0000:00000000       __enclave_config           0000000000000000     <absolute>
 0000:00000000       __guard_longjmp_count      0000000000000000     <absolute>
 0000:00000000       __hybrid_auxiliary_iat     0000000000000000     <absolute>
 0000:00000000       ___safe_se_handler_count   0000000000000000     <absolute>
 0000:00000000       __guard_fids_count         0000000000000000     <absolute>
 0000:00000100       __guard_flags              0000000000000100     <absolute>
 0000:00000000       __ImageBase                0000000140000000     <linker-defined>
 0001:00000000       main                       0000000140001000 f   ipo_2028818obj4.obj
 0001:000005a0       ??0?$basic_string@DU?$char_traits@D@std@@V?$allocator@D@2@@std@@QEAA@XZ 00000001400015a0 f i ipo_2028818obj4.obj
 0001:00000630       ??4?$basic_string@DU?$char_traits@D@std@@V?$allocator@D@2@@std@@QEAAAEAV01@QEBD@Z 0000000140001630 f i ipo_2028818obj4.obj
 0001:00000890       ??D?$_String_iterator@V?$_String_val@U?$_Simple_types@_W@std@@@std@@@std@@QEBAAEA_WXZ 0000000140001890 f   ipo_2028818obj4.obj
 0001:00000890       ??D?$_String_iterator@V?$_String_val@U?$_Simple_types@D@std@@@std@@@std@@QEBAAEADXZ 0000000140001890 f   ipo_2028818obj4.obj
 0001:000008b0       ?_Get_data@?$_String_alloc@U?$_String_base_types@_WV?$allocator@_W@std@@@std@@@std@@QEBAAEBV?$_String_val@U?$_Simple_types@_W@std@@@2@XZ 00000001400018b0 f   ipo_2028818obj4.obj
 0001:000008b0       ?_Getal@?$_String_alloc@U?$_String_base_types@_WV?$allocator@_W@std@@@std@@@std@@QEBAAEBV?$allocator@_W@2@XZ 00000001400018b0 f   ipo_2028818obj4.obj
 0001:000008b0       ?_Get_data@?$_String_alloc@U?$_String_base_types@_WV?$allocator@_W@std@@@std@@@std@@QEAAAEAV?$_String_val@U?$_Simple_types@_W@std@@@2@XZ 00000001400018b0 f   ipo_2028818obj4.obj
 0001:000008b0       ?_Getspace@?$_Func_class@X$$V@std@@AEBAPEBXXZ 00000001400018b0 f   ipo_2028818obj4.obj
 0001:000008b0       ?get_deleter@?$_Unique_ptr_base@V_Facet_base@std@@U?$default_delete@V_Facet_base@std@@@2@@std@@QEAAAEAU?$default_delete@V_Facet_base@std@@@2@XZ 00000001400018b0 f   ipo_2028818obj4.obj
 0001:000008b0       ?_Get_data@?$_String_alloc@U?$_String_base_types@DV?$allocator@D@std@@@std@@@std@@QEBAAEBV?$_String_val@U?$_Simple_types@D@std@@@2@XZ 00000001400018b0 f   ipo_2028818obj4.obj
 0001:000008b0       ?_Getal@?$_String_alloc@U?$_String_base_types@DV?$allocator@D@std@@@std@@@std@@QEAAAEAV?$allocator@D@2@XZ 00000001400018b0 f   ipo_2028818obj4.obj
 0001:000008b0       ?setbuf@?$basic_streambuf@DU?$char_traits@D@std@@@std@@MEAAPEAV12@PEAD_J@Z 00000001400018b0 f   ipo_2028818obj4.obj
 0001:000008b0       ?_Get_second@?$_Compressed_pair@U?$default_delete@V_Facet_base@std@@@std@@PEAV_Facet_base@2@$00@std@@QEAAAEAPEAV_Facet_base@2@XZ 00000001400018b0 f   ipo_2028818obj4.obj
 0001:000008b0       ?_Get_data@?$_String_alloc@U?$_String_base_types@DV?$allocator@D@std@@@std@@@std@@QEAAAEAV?$_String_val@U?$_Simple_types@D@std@@@2@XZ 00000001400018b0 f   ipo_2028818obj4.obj
 0001:000008b0       ?_Getal@?$_String_alloc@U?$_String_base_types@_WV?$allocator@_W@std@@@std@@@std@@QEAAAEAV?$allocator@_W@2@XZ 00000001400018b0 f   ipo_2028818obj4.obj
 0001:000008b0       ?_Get_second@?$_Compressed_pair@U?$default_delete@V_Facet_base@std@@@std@@PEAV_Facet_base@2@$00@std@@QEBAAEBQEAV_Facet_base@2@XZ 00000001400018b0 f   ipo_2028818obj4.obj
 0001:00000a80       ??0?$basic_string@_WU?$char_traits@_W@std@@V?$allocator@_W@2@@std@@QEAA@XZ 0000000140001a80 f i ipo_2028818obj4.obj
 0001:00000ab0       ??0?$_String_val@U?$_Simple_types@_W@std@@@std@@QEAA@XZ 0000000140001ab0 f i ipo_2028818obj4.obj
 0001:00000ab0       ??0?$_String_alloc@U?$_String_base_types@_WV?$allocator@_W@std@@@std@@@std@@QEAA@XZ 0000000140001ab0 f i ipo_2028818obj4.obj
 0001:00000ad0       ?_Tidy_init@?$basic_string@_WU?$char_traits@_W@std@@V?$allocator@_W@2@@std@@QEAAXXZ 0000000140001ad0 f i ipo_2028818obj4.obj
 0001:000016e0       ??1thread@std@@QEAA@XZ     00000001400026e0 f i ipo_2028818obj4.obj
 0001:00001820       ?_Getimpl@?$_Func_class@X$$V@std@@AEBAPEAV?$_Func_base@X$$V@2@XZ 0000000140002820 f   ipo_2028818obj4.obj
 0001:000018e0       ??$_Deallocate@$0BA@$0A@@std@@YAXPEAX_K@Z 00000001400028e0 f i ipo_2028818obj4.obj
 0001:00001aa0       ?_Local@?$_Func_class@X$$V@std@@AEBA_NXZ 0000000140002aa0 f i ipo_2028818obj4.obj
 0001:00001b60       ??_Ebad_cast@std@@UEAAPEAXI@Z 0000000140002b60 f i ipo_2028818obj4.obj
 0001:00001b60       ??_Eruntime_error@std@@UEAAPEAXI@Z 0000000140002b60 f i ipo_2028818obj4.obj
 0001:00001b60       ??_Eexception@std@@UEAAPEAXI@Z 0000000140002b60 f i ipo_2028818obj4.obj
 0001:00001b60       ??_Gexception@std@@UEAAPEAXI@Z 0000000140002b60 f i ipo_2028818obj4.obj
 0001:00001b60       ??_Gbad_cast@std@@UEAAPEAXI@Z 0000000140002b60 f i ipo_2028818obj4.obj
 0001:00001b60       ??_Gruntime_error@std@@UEAAPEAXI@Z 0000000140002b60 f i ipo_2028818obj4.obj
 0001:00001ba0       ?what@exception@std@@UEBAPEBDXZ 0000000140002ba0 f i ipo_2028818obj4.obj
 0001:00001bc0       ??_G_Facet_base@std@@UEAAPEAXI@Z 0000000140002bc0 f i ipo_2028818obj4.obj
 0001:00001bc0       ??_E_Facet_base@std@@UEAAPEAXI@Z 0000000140002bc0 f i ipo_2028818obj4.obj
 0001:00001c00       ??_Efacet@locale@std@@MEAAPEAXI@Z 0000000140002c00 f i ipo_2028818obj4.obj
 0001:00001c00       ??_Gfacet@locale@std@@MEAAPEAXI@Z 0000000140002c00 f i ipo_2028818obj4.obj
 0001:00001c40       ?_Incref@facet@locale@std@@UEAAXXZ 0000000140002c40 f i ipo_2028818obj4.obj
 0001:00001c60       ?_Decref@facet@locale@std@@UEAAPEAV_Facet_base@3@XZ 0000000140002c60 f i ipo_2028818obj4.obj
 0001:00001c90       ??_Gcodecvt_base@std@@UEAAPEAXI@Z 0000000140002c90 f i ipo_2028818obj4.obj
 0001:00001c90       ??_Ecodecvt_base@std@@UEAAPEAXI@Z 0000000140002c90 f i ipo_2028818obj4.obj
 0001:00001cd0       ?showmanyc@?$basic_streambuf@DU?$char_traits@D@std@@@std@@MEAA_JXZ 0000000140002cd0 f i ipo_2028818obj4.obj
 0001:00001cd0       ?OnUserUpdate@PixelGameEngine@olc@@UEAA_NM@Z 0000000140002cd0 f i ipo_2028818obj4.obj
 0001:00001cd0       ?sync@?$basic_streambuf@DU?$char_traits@D@std@@@std@@MEAAHXZ 0000000140002cd0 f i ipo_2028818obj4.obj
 0001:00001cd0       ?do_always_noconv@codecvt_base@std@@MEBA_NXZ 0000000140002cd0 f i ipo_2028818obj4.obj
 0001:00001cd0       ?OnUserCreate@PixelGameEngine@olc@@UEAA_NXZ 0000000140002cd0 f i ipo_2028818obj4.obj
 0001:00001cd0       ?HandleSystemEvent@Platform_Windows@olc@@UEAA?AW4rcode@2@XZ 0000000140002cd0 f i ipo_2028818obj4.obj
 0001:00001ce0       ?ApplicationCleanUp@Platform_Windows@olc@@UEAA?AW4rcode@2@XZ 0000000140002ce0 f i ipo_2028818obj4.obj
 0001:00001ce0       ?do_max_length@codecvt_base@std@@MEBAHXZ 0000000140002ce0 f i ipo_2028818obj4.obj
 0001:00001ce0       ?do_encoding@codecvt_base@std@@MEBAHXZ 0000000140002ce0 f i ipo_2028818obj4.obj
 0001:00001ce0       ?OnUserDestroy@PixelGameEngine@olc@@UEAA_NXZ 0000000140002ce0 f i ipo_2028818obj4.obj
 0001:00001ce0       ?ThreadStartUp@Platform_Windows@olc@@UEAA?AW4rcode@2@XZ 0000000140002ce0 f i ipo_2028818obj4.obj
 0001:00001ce0       ?ApplicationStartUp@Platform_Windows@olc@@UEAA?AW4rcode@2@XZ 0000000140002ce0 f i ipo_2028818obj4.obj
 0001:00001ce0       ?SaveImageResource@ImageLoader_GDIPlus@olc@@UEAA?AW4rcode@2@PEAVSprite@2@AEBV?$basic_string@DU?$char_traits@D@std@@V?$allocator@D@2@@std@@@Z 0000000140002ce0 f i ipo_2028818obj4.obj
 0001:00001ce0       ?do_always_noconv@?$codecvt@DDU_Mbstatet@@@std@@MEBA_NXZ 0000000140002ce0 f i ipo_2028818obj4.obj
 0001:00001cf0       ??_Ectype_base@std@@UEAAPEAXI@Z 0000000140002cf0 f i ipo_2028818obj4.obj
 0001:00001cf0       ??_Gctype_base@std@@UEAAPEAXI@Z 0000000140002cf0 f i ipo_2028818obj4.obj
 0001:00001d30       ??_E?$ctype@D@std@@MEAAPEAXI@Z 0000000140002d30 f i ipo_2028818obj4.obj
 0001:00001d30       ??_G?$ctype@D@std@@MEAAPEAXI@Z 0000000140002d30 f i ipo_2028818obj4.obj
 0001:00001d70       ?do_tolower@?$ctype@D@std@@MEBAPEBDPEADPEBD@Z 0000000140002d70 f i ipo_2028818obj4.obj
 0001:00001dd0       ?do_tolower@?$ctype@D@std@@MEBADD@Z 0000000140002dd0 f i ipo_2028818obj4.obj
 0001:00001df0       ?do_toupper@?$ctype@D@std@@MEBAPEBDPEADPEBD@Z 0000000140002df0 f i ipo_2028818obj4.obj
 0001:00001e50       ?do_toupper@?$ctype@D@std@@MEBADD@Z 0000000140002e50 f i ipo_2028818obj4.obj
 0001:00001e70       ?do_widen@?$ctype@D@std@@MEBAPEBDPEBD0PEAD@Z 0000000140002e70 f i ipo_2028818obj4.obj
 0001:00001e90       ?do_widen@?$ctype@D@std@@MEBADD@Z 0000000140002e90 f i ipo_2028818obj4.obj
 0001:00001e90       ?do_narrow@?$ctype@D@std@@MEBADDD@Z 0000000140002e90 f i ipo_2028818obj4.obj
 0001:00001ea0       ?do_narrow@?$ctype@D@std@@MEBAPEBDPEBD0DPEAD@Z 0000000140002ea0 f i ipo_2028818obj4.obj
 0001:00001ec0       ??_Esystem_error@std@@UEAAPEAXI@Z 0000000140002ec0 f i ipo_2028818obj4.obj
 0001:00001ec0       ??_Gsystem_error@std@@UEAAPEAXI@Z 0000000140002ec0 f i ipo_2028818obj4.obj
 0001:00001ec0       ??_Gfailure@ios_base@std@@UEAAPEAXI@Z 0000000140002ec0 f i ipo_2028818obj4.obj
 0001:00001ec0       ??_E_System_error@std@@UEAAPEAXI@Z 0000000140002ec0 f i ipo_2028818obj4.obj
 0001:00001ec0       ??_G_System_error@std@@UEAAPEAXI@Z 0000000140002ec0 f i ipo_2028818obj4.obj
 0001:00001f00       ??_G_System_error_category@std@@UEAAPEAXI@Z 0000000140002f00 f i ipo_2028818obj4.obj
 0001:00001f00       ??_E_System_error_category@std@@UEAAPEAXI@Z 0000000140002f00 f i ipo_2028818obj4.obj
 0001:00001f00       ??_G_Generic_error_category@std@@UEAAPEAXI@Z 0000000140002f00 f i ipo_2028818obj4.obj
 0001:00001f00       ??_G_Iostream_error_category@std@@UEAAPEAXI@Z 0000000140002f00 f i ipo_2028818obj4.obj
 0001:00001f00       ??_E_Generic_error_category@std@@UEAAPEAXI@Z 0000000140002f00 f i ipo_2028818obj4.obj
 0001:00001f30       ?name@_Generic_error_category@std@@UEBAPEBDXZ 0000000140002f30 f i ipo_2028818obj4.obj
 0001:00001f40       ?message@_Generic_error_category@std@@UEBA?AV?$basic_string@DU?$char_traits@D@std@@V?$allocator@D@2@@2@H@Z 0000000140002f40 f i ipo_2028818obj4.obj
 0001:00001f70       ?default_error_condition@error_category@std@@UEBA?AVerror_condition@2@H@Z 0000000140002f70 f i ipo_2028818obj4.obj
 0001:00001fa0       ?equivalent@error_category@std@@UEBA_NAEBVerror_code@2@H@Z 0000000140002fa0 f i ipo_2028818obj4.obj
 0001:00001fe0       ?equivalent@error_category@std@@UEBA_NHAEBVerror_condition@2@@Z 0000000140002fe0 f i ipo_2028818obj4.obj
 0001:00002020       ?name@_Iostream_error_category@std@@UEBAPEBDXZ 0000000140003020 f i ipo_2028818obj4.obj
 0001:00002030       ?message@_Iostream_error_category@std@@UEBA?AV?$basic_string@DU?$char_traits@D@std@@V?$allocator@D@2@@2@H@Z 0000000140003030 f i ipo_2028818obj4.obj
 0001:00002070       ?name@_System_error_category@std@@UEBAPEBDXZ 0000000140003070 f i ipo_2028818obj4.obj
 0001:00002080       ?message@_System_error_category@std@@UEBA?AV?$basic_string@DU?$char_traits@D@std@@V?$allocator@D@2@@2@H@Z 0000000140003080 f i ipo_2028818obj4.obj
 0001:00002120       ?default_error_condition@_System_error_category@std@@UEBA?AVerror_condition@2@H@Z 0000000140003120 f i ipo_2028818obj4.obj
 0001:000021a0       ??_Gios_base@std@@UEAAPEAXI@Z 00000001400031a0 f i ipo_2028818obj4.obj
 0001:000021e0       ??_Gfilesystem_error@v1@filesystem@experimental@std@@UEAAPEAXI@Z 00000001400031e0 f i ipo_2028818obj4.obj
 0001:00002220       ??_G?$basic_streambuf@DU?$char_traits@D@std@@@std@@UEAAPEAXI@Z 0000000140003220 f i ipo_2028818obj4.obj
 0001:00002260       ?_Orphan_all@?$_String_alloc@U?$_String_base_types@_WV?$allocator@_W@std@@@std@@@std@@QEAAXXZ 0000000140003260 f i ipo_2028818obj4.obj
 0001:00002260       ?_Unlock@?$basic_streambuf@DU?$char_traits@D@std@@@std@@UEAAXXZ 0000000140003260 f i ipo_2028818obj4.obj
 0001:00002260       ?imbue@?$basic_streambuf@DU?$char_traits@D@std@@@std@@MEAAXAEBVlocale@2@@Z 0000000140003260 f i ipo_2028818obj4.obj
 0001:00002260       ?_Orphan_all@?$_String_alloc@U?$_String_base_types@DV?$allocator@D@std@@@std@@@std@@QEAAXXZ 0000000140003260 f i ipo_2028818obj4.obj
 0001:00002260       ?PrepareDevice@Renderer_OGL10@olc@@UEAAXXZ 0000000140003260 f i ipo_2028818obj4.obj
 0001:00002260       ?_Lock@?$basic_streambuf@DU?$char_traits@D@std@@@std@@UEAAXXZ 0000000140003260 f i ipo_2028818obj4.obj
 0001:00002270       ?pbackfail@?$basic_streambuf@DU?$char_traits@D@std@@@std@@MEAAHH@Z 0000000140003270 f i ipo_2028818obj4.obj
 0001:00002270       ?overflow@?$basic_streambuf@DU?$char_traits@D@std@@@std@@MEAAHH@Z 0000000140003270 f i ipo_2028818obj4.obj
 0001:00002270       ?underflow@?$basic_streambuf@DU?$char_traits@D@std@@@std@@MEAAHXZ 0000000140003270 f i ipo_2028818obj4.obj
 0001:00002280       ?uflow@?$basic_streambuf@DU?$char_traits@D@std@@@std@@MEAAHXZ 0000000140003280 f i ipo_2028818obj4.obj
 0001:000022d0       ?xsgetn@?$basic_streambuf@DU?$char_traits@D@std@@@std@@MEAA_JPEAD_J@Z 00000001400032d0 f i ipo_2028818obj4.obj
 0001:000023c0       ?xsputn@?$basic_streambuf@DU?$char_traits@D@std@@@std@@MEAA_JPEBD_J@Z 00000001400033c0 f i ipo_2028818obj4.obj
 0001:000024b0       ?seekoff@?$basic_streambuf@DU?$char_traits@D@std@@@std@@MEAA?AV?$fpos@U_Mbstatet@@@2@_JHH@Z 00000001400034b0 f i ipo_2028818obj4.obj
 0001:000024b0       ?seekpos@?$basic_streambuf@DU?$char_traits@D@std@@@std@@MEAA?AV?$fpos@U_Mbstatet@@@2@V32@H@Z 00000001400034b0 f i ipo_2028818obj4.obj
 0001:000024d0       ??_GResourceBuffer@olc@@UEAAPEAXI@Z 00000001400034d0 f i ipo_2028818obj4.obj
 0001:00002510       ??_G?$basic_ios@DU?$char_traits@D@std@@@std@@UEAAPEAXI@Z 0000000140003510 f i ipo_2028818obj4.obj
 0001:00002550       ??_E?$basic_ostream@DU?$char_traits@D@std@@@std@@$4PPPPPPPM@A@EAAPEAXI@Z 0000000140003550 f i ipo_2028818obj4.obj
 0001:00002560       ??_E?$basic_ofstream@DU?$char_traits@D@std@@@std@@$4PPPPPPPM@A@EAAPEAXI@Z 0000000140003560 f i ipo_2028818obj4.obj
 0001:00002570       ??_GImageLoader_GDIPlus@olc@@UEAAPEAXI@Z 0000000140003570 f i ipo_2028818obj4.obj
 0001:00002570       ??_GImageLoader@olc@@UEAAPEAXI@Z 0000000140003570 f i ipo_2028818obj4.obj
 0001:000025b0       ??_GDecal@olc@@UEAAPEAXI@Z 00000001400035b0 f i ipo_2028818obj4.obj
 0001:000025f0       ??_GRenderer@olc@@UEAAPEAXI@Z 00000001400035f0 f i ipo_2028818obj4.obj
 0001:00002630       ??_E?$basic_istream@DU?$char_traits@D@std@@@std@@$4PPPPPPPM@A@EAAPEAXI@Z 0000000140003630 f i ipo_2028818obj4.obj
 0001:00002640       ??_E?$basic_ifstream@DU?$char_traits@D@std@@@std@@$4PPPPPPPM@A@EAAPEAXI@Z 0000000140003640 f i ipo_2028818obj4.obj
 0001:00002650       ??_GResourcePack@olc@@UEAAPEAXI@Z 0000000140003650 f i ipo_2028818obj4.obj
 0001:00002690       ??_GPixelGameEngine@olc@@UEAAPEAXI@Z 0000000140003690 f i ipo_2028818obj4.obj
 0001:000026d0       ?Draw@PixelGameEngine@olc@@UEAA_NHHUPixel@2@@Z 00000001400036d0 f   ipo_2028818obj4.obj
 0001:00002900       ??_GPlatform@olc@@UEAAPEAXI@Z 0000000140003900 f i ipo_2028818obj4.obj
 0001:00002940       ??_GRenderer_OGL10@olc@@UEAAPEAXI@Z 0000000140003940 f i ipo_2028818obj4.obj
 0001:00002980       ?CreateDevice@Renderer_OGL10@olc@@UEAA?AW4rcode@2@V?$vector@PEAXV?$allocator@PEAX@std@@@std@@_N1@Z 0000000140003980 f i ipo_2028818obj4.obj
 0001:00002b80       ?DestroyDevice@Renderer_OGL10@olc@@UEAA?AW4rcode@2@XZ 0000000140003b80 f i ipo_2028818obj4.obj
 0001:00002ba0       ?DisplayFrame@Renderer_OGL10@olc@@UEAAXXZ 0000000140003ba0 f i ipo_2028818obj4.obj
 0001:00002bd0       ?PrepareDrawing@Renderer_OGL10@olc@@UEAAXXZ 0000000140003bd0 f i ipo_2028818obj4.obj
 0001:00002c00       ?DrawLayerQuad@Renderer_OGL10@olc@@UEAAXAEBU?$v2d_generic@M@2@0UPixel@2@@Z 0000000140003c00 f i ipo_2028818obj4.obj
 0001:00002d00       ?DrawDecalQuad@Renderer_OGL10@olc@@UEAAXAEBUDecalInstance@2@@Z 0000000140003d00 f i ipo_2028818obj4.obj
 0001:00002ef0       ?CreateTexture@Renderer_OGL10@olc@@UEAAIII@Z 0000000140003ef0 f i ipo_2028818obj4.obj
 0001:00002fa0       ?UpdateTexture@Renderer_OGL10@olc@@UEAAXIPEAVSprite@2@@Z 0000000140003fa0 f i ipo_2028818obj4.obj
 0001:00002ff0       ?DeleteTexture@Renderer_OGL10@olc@@UEAAII@Z 0000000140003ff0 f i ipo_2028818obj4.obj
 0001:00003020       ?ApplyTexture@Renderer_OGL10@olc@@UEAAXI@Z 0000000140004020 f i ipo_2028818obj4.obj
 0001:00003030       ?UpdateViewport@Renderer_OGL10@olc@@UEAAXAEBU?$v2d_generic@H@2@0@Z 0000000140004030 f i ipo_2028818obj4.obj
 0001:00003050       ?ClearBuffer@Renderer_OGL10@olc@@UEAAXUPixel@2@_N@Z 0000000140004050 f i ipo_2028818obj4.obj
 0001:000030e0       ??_GImage@Gdiplus@@UEAAPEAXI@Z 00000001400040e0 f i ipo_2028818obj4.obj
 0001:000030e0       ??_GBitmap@Gdiplus@@UEAAPEAXI@Z 00000001400040e0 f i ipo_2028818obj4.obj
 0001:00003110       ?Clone@Image@Gdiplus@@UEAAPEAV12@XZ 0000000140004110 f i ipo_2028818obj4.obj
 0001:00003170       ?LoadImageResource@ImageLoader_GDIPlus@olc@@UEAA?AW4rcode@2@PEAVSprite@2@AEBV?$basic_string@DU?$char_traits@D@std@@V?$allocator@D@2@@std@@PEAVResourcePack@2@@Z 0000000140004170 f i ipo_2028818obj4.obj
 0001:00003470       ??_GPlatform_Windows@olc@@UEAAPEAXI@Z 0000000140004470 f i ipo_2028818obj4.obj
 0001:000034b0       ?ThreadCleanUp@Platform_Windows@olc@@UEAA?AW4rcode@2@XZ 00000001400044b0 f i ipo_2028818obj4.obj
 0001:000034f0       ?CreateGraphics@Platform_Windows@olc@@UEAA?AW4rcode@2@_N0AEBU?$v2d_generic@H@2@1@Z 00000001400044f0 f i ipo_2028818obj4.obj
 0001:00003770       ??$_Min_value@_K@std@@YAAEB_KAEB_K0@Z 0000000140004770 f i ipo_2028818obj4.obj
 0001:000037d0       ??$_Allocate@$0BA@U_Default_allocate_traits@std@@$0A@@std@@YAPEAX_K@Z 00000001400047d0 f i ipo_2028818obj4.obj
 0001:00003890       ?CreateWindowPane@Platform_Windows@olc@@UEAA?AW4rcode@2@AEBU?$v2d_generic@H@2@AEAU42@_N@Z 0000000140004890 f i ipo_2028818obj4.obj
 0001:000057d0       ?SetWindowTitle@Platform_Windows@olc@@UEAA?AW4rcode@2@AEBV?$basic_string@DU?$char_traits@D@std@@V?$allocator@D@2@@std@@@Z 00000001400067d0 f i ipo_2028818obj4.obj
 0001:00005b90       ?_Xlen@?$basic_string@_WU?$char_traits@_W@std@@V?$allocator@_W@2@@std@@SAXXZ 0000000140006b90 f i ipo_2028818obj4.obj
 0001:00005b90       ?_Xlen@?$basic_string@DU?$char_traits@D@std@@V?$allocator@D@2@@std@@SAXXZ 0000000140006b90 f i ipo_2028818obj4.obj
 0001:00005bb0       ?move@?$_WChar_traits@_W@std@@SAPEA_WQEA_WQEB_W_K@Z 0000000140006bb0 f i ipo_2028818obj4.obj
 0001:00005bc0       ?_Myptr@?$_String_val@U?$_Simple_types@_W@std@@@std@@QEAAPEA_WXZ 0000000140006bc0 f i ipo_2028818obj4.obj
 0001:00005be0       ?StartSystemEventLoop@Platform_Windows@olc@@UEAA?AW4rcode@2@XZ 0000000140006be0 f i ipo_2028818obj4.obj
 0001:00005c40       ??_GolcFractalExplorer@@UEAAPEAXI@Z 0000000140006c40 f i ipo_2028818obj4.obj
 0001:00005c80       ?OnUserCreate@olcFractalExplorer@@UEAA_NXZ 0000000140006c80 f i ipo_2028818obj4.obj
 0001:00006010       ?OnUserUpdate@olcFractalExplorer@@UEAA_NM@Z 0000000140007010 f i ipo_2028818obj4.obj
 0001:00007890       ?_Store_relaxed_4@std@@YAXPECKK@Z 0000000140008890 f i ipo_2028818obj4.obj
 0001:00007890       ?_Store_release_4@std@@YAXPECKK@Z 0000000140008890 f i ipo_2028818obj4.obj
 0001:00007a50       ??1?$basic_string@DU?$char_traits@D@std@@V?$allocator@D@2@@std@@QEAA@XZ 0000000140008a50 f i ipo_2028818obj4.obj
 0001:00007ad0       sprintf_s                  0000000140008ad0 f i ipo_2028818obj4.obj
 0001:00007b40       __local_stdio_printf_options 0000000140008b40 f i ipo_2028818obj4.obj
 0001:00007df0       ?_Xran@?$_String_val@U?$_Simple_types@D@std@@@std@@SAXXZ 0000000140008df0 f i ipo_2028818obj4.obj
 0001:00007e10       ?_Myptr@?$_String_val@U?$_Simple_types@D@std@@@std@@QEBAPEBDXZ 0000000140008e10 f i ipo_2028818obj4.obj
 0001:00007e10       ?c_str@?$basic_string@DU?$char_traits@D@std@@V?$allocator@D@2@@std@@QEBAPEBDXZ 0000000140008e10 f i ipo_2028818obj4.obj
 0001:00007e10       ?_Myptr@?$_String_val@U?$_Simple_types@D@std@@@std@@QEAAPEADXZ 0000000140008e10 f i ipo_2028818obj4.obj
 0001:000084b0       ?OnUserDestroy@olcFractalExplorer@@UEAA_NXZ 00000001400094b0 f i ipo_2028818obj4.obj
 0001:00008600       ??_G?$basic_filebuf@DU?$char_traits@D@std@@@std@@UEAAPEAXI@Z 0000000140009600 f i ipo_2028818obj4.obj
 0001:00008640       ?_Lock@?$basic_filebuf@DU?$char_traits@D@std@@@std@@UEAAXXZ 0000000140009640 f i ipo_2028818obj4.obj
 0001:00008660       ?_Unlock@?$basic_filebuf@DU?$char_traits@D@std@@@std@@UEAAXXZ 0000000140009660 f i ipo_2028818obj4.obj
 0001:00008680       ?overflow@?$basic_filebuf@DU?$char_traits@D@std@@@std@@MEAAHH@Z 0000000140009680 f i ipo_2028818obj4.obj
 0001:00008860       ?pbackfail@?$basic_filebuf@DU?$char_traits@D@std@@@std@@MEAAHH@Z 0000000140009860 f i ipo_2028818obj4.obj
 0001:00008990       ?underflow@?$basic_filebuf@DU?$char_traits@D@std@@@std@@MEAAHXZ 0000000140009990 f i ipo_2028818obj4.obj
 0001:00008a30       ?uflow@?$basic_filebuf@DU?$char_traits@D@std@@@std@@MEAAHXZ 0000000140009a30 f i ipo_2028818obj4.obj
 0001:00008cd0       ?xsgetn@?$basic_filebuf@DU?$char_traits@D@std@@@std@@MEAA_JPEAD_J@Z 0000000140009cd0 f i ipo_2028818obj4.obj
 0001:00008d90       ?xsputn@?$basic_filebuf@DU?$char_traits@D@std@@@std@@MEAA_JPEBD_J@Z 0000000140009d90 f i ipo_2028818obj4.obj
 0001:00008e50       ?seekoff@?$basic_filebuf@DU?$char_traits@D@std@@@std@@MEAA?AV?$fpos@U_Mbstatet@@@2@_JHH@Z 0000000140009e50 f i ipo_2028818obj4.obj
 0001:00008f30       ?seekpos@?$basic_filebuf@DU?$char_traits@D@std@@@std@@MEAA?AV?$fpos@U_Mbstatet@@@2@V32@H@Z 0000000140009f30 f i ipo_2028818obj4.obj
 0001:00008fe0       ?setbuf@?$basic_filebuf@DU?$char_traits@D@std@@@std@@MEAAPEAV?$basic_streambuf@DU?$char_traits@D@std@@@2@PEAD_J@Z 0000000140009fe0 f i ipo_2028818obj4.obj
 0001:00009040       ?sync@?$basic_filebuf@DU?$char_traits@D@std@@@std@@MEAAHXZ 000000014000a040 f i ipo_2028818obj4.obj
 0001:000090b0       ?imbue@?$basic_filebuf@DU?$char_traits@D@std@@@std@@MEAAXAEBVlocale@2@@Z 000000014000a0b0 f i ipo_2028818obj4.obj
 0001:000090d0       ??_G?$codecvt@DDU_Mbstatet@@@std@@MEAAPEAXI@Z 000000014000a0d0 f i ipo_2028818obj4.obj
 0001:000090d0       ??_E?$codecvt@DDU_Mbstatet@@@std@@MEAAPEAXI@Z 000000014000a0d0 f i ipo_2028818obj4.obj
 0001:00009110       ?do_in@?$codecvt@DDU_Mbstatet@@@std@@MEBAHAEAU_Mbstatet@@PEBD1AEAPEBDPEAD3AEAPEAD@Z 000000014000a110 f i ipo_2028818obj4.obj
 0001:00009110       ?do_out@?$codecvt@DDU_Mbstatet@@@std@@MEBAHAEAU_Mbstatet@@PEBD1AEAPEBDPEAD3AEAPEAD@Z 000000014000a110 f i ipo_2028818obj4.obj
 0001:00009130       ?do_unshift@?$codecvt@DDU_Mbstatet@@@std@@MEBAHAEAU_Mbstatet@@PEAD1AEAPEAD@Z 000000014000a130 f i ipo_2028818obj4.obj
 0001:00009140       ?do_length@?$codecvt@DDU_Mbstatet@@@std@@MEBAHAEAU_Mbstatet@@PEBD1_K@Z 000000014000a140 f i ipo_2028818obj4.obj
 0001:00009170       ?_Go@?$_LaunchPad@V?$unique_ptr@V?$tuple@P8PixelGameEngine@olc@@EAAXXZPEAV12@@std@@U?$default_delete@V?$tuple@P8PixelGameEngine@olc@@EAAXXZPEAV12@@std@@@2@@std@@@std@@UEAAXXZ 000000014000a170 f i ipo_2028818obj4.obj
 0001:000092c0       ?_Go@?$_LaunchPad@V?$unique_ptr@V?$tuple@P8olcFractalExplorer@@EAAXAEBU?$v2d_generic@H@olc@@0AEBU?$v2d_generic@N@3@1H@ZPEAV1@U23@U23@U43@U43@H@std@@U?$default_delete@V?$tuple@P8olcFractalExplorer@@EAAXAEBU?$v2d_generic@H@olc@@0AEBU?$v2d_generic@N@3@1H@ZPEAV1@U23@U23@U43@U43@H@std@@@2@@std@@@std@@UEAAXXZ 000000014000a2c0 f i ipo_2028818obj4.obj
 0001:000092d0       ?_Go@?$_LaunchPad@V?$unique_ptr@V?$tuple@P8WorkerThread@olcFractalExplorer@@EAAXXZPEAU12@@std@@U?$default_delete@V?$tuple@P8WorkerThread@olcFractalExplorer@@EAAXXZPEAU12@@std@@@2@@std@@@std@@UEAAXXZ 000000014000a2d0 f i ipo_2028818obj4.obj
 0001:00009360       ??0runtime_error@std@@QEAA@AEBV01@@Z 000000014000a360 f i ipo_2028818obj4.obj
 0001:00009390       ??0exception@std@@QEAA@AEBV01@@Z 000000014000a390 f i ipo_2028818obj4.obj
 0001:000093d0       ??1runtime_error@std@@UEAA@XZ 000000014000a3d0 f i ipo_2028818obj4.obj
 0001:000093d0       ??1bad_cast@std@@UEAA@XZ   000000014000a3d0 f i ipo_2028818obj4.obj
 0001:000093d0       ??1failure@ios_base@std@@UEAA@XZ 000000014000a3d0 f i ipo_2028818obj4.obj
 0001:000093f0       ??0failure@ios_base@std@@QEAA@AEBV012@@Z 000000014000a3f0 f i ipo_2028818obj4.obj
 0001:00009420       ??0_System_error@std@@QEAA@AEBV01@@Z 000000014000a420 f i ipo_2028818obj4.obj
 0001:00009460       ??0system_error@std@@QEAA@AEBV01@@Z 000000014000a460 f i ipo_2028818obj4.obj
 0001:00009490       ??0filesystem_error@v1@filesystem@experimental@std@@QEAA@AEBV01234@@Z 000000014000a490 f i ipo_2028818obj4.obj
 0001:00009530       ??1filesystem_error@v1@filesystem@experimental@std@@UEAA@XZ 000000014000a530 f i ipo_2028818obj4.obj
 0001:00009570       ??0bad_cast@std@@QEAA@AEBV01@@Z 000000014000a570 f i ipo_2028818obj4.obj
 0001:0000a150       __sti__?id@?$codecvt@DDU_Mbstatet@@@std@@2V0locale@2@A 000000014000b150 f i ipo_2028818obj4.obj
 0001:0000a1e0       ??0?$_String_iterator@V?$_String_val@U?$_Simple_types@D@std@@@std@@@std@@QEAA@PEADPEBU_Container_base0@1@@Z 000000014000b1e0 f i ipo_2028818obj4.obj
 0001:0000a1e0       ??0?$_String_iterator@V?$_String_val@U?$_Simple_types@_W@std@@@std@@@std@@QEAA@PEA_WPEBU_Container_base0@1@@Z 000000014000b1e0 f i ipo_2028818obj4.obj
 0001:0000a200       ?append@?$basic_string@DU?$char_traits@D@std@@V?$allocator@D@2@@std@@QEAAAEAV12@QEBD@Z 000000014000b200 f i ipo_2028818obj4.obj
 0001:0000a2a0       ?append@?$basic_string@DU?$char_traits@D@std@@V?$allocator@D@2@@std@@QEAAAEAV12@_KD@Z 000000014000b2a0 f i ipo_2028818obj4.obj
 0001:0000a340       ?eq_int_type@?$char_traits@D@std@@SA_NAEBH0@Z 000000014000b340 f i ipo_2028818obj4.obj
 0001:0000a350       ?_Load_relaxed_4@std@@YAKPECK@Z 000000014000b350 f i ipo_2028818obj4.obj
 0001:0000a350       ?_Load_seq_cst_4@std@@YAKPECK@Z 000000014000b350 f i ipo_2028818obj4.obj
 0001:0000a350       ?to_char_type@?$char_traits@D@std@@SADAEBH@Z 000000014000b350 f i ipo_2028818obj4.obj
 0001:0000a370       ?to_int_type@?$char_traits@D@std@@SAHAEBD@Z 000000014000b370 f i ipo_2028818obj4.obj
 0001:0000a3f0       ?_Eos@?$basic_string@DU?$char_traits@D@std@@V?$allocator@D@2@@std@@QEAAX_K@Z 000000014000b3f0 f i ipo_2028818obj4.obj
 0001:0000a710       ?begin@?$basic_string@DU?$char_traits@D@std@@V?$allocator@D@2@@std@@QEAA?AV?$_String_iterator@V?$_String_val@U?$_Simple_types@D@std@@@std@@@2@XZ 000000014000b710 f i ipo_2028818obj4.obj
 0001:0000a7c0       ?empty@?$basic_string@DU?$char_traits@D@std@@V?$allocator@D@2@@std@@QEBA_NXZ 000000014000b7c0 f i ipo_2028818obj4.obj
 0001:0000a800       ??A?$basic_string@DU?$char_traits@D@std@@V?$allocator@D@2@@std@@QEAAAEAD_K@Z 000000014000b800 f i ipo_2028818obj4.obj
 0001:0000a820       ?push_back@?$basic_string@DU?$char_traits@D@std@@V?$allocator@D@2@@std@@QEAAXD@Z 000000014000b820 f i ipo_2028818obj4.obj
 0001:0000a880       ?shrink_to_fit@?$basic_string@DU?$char_traits@D@std@@V?$allocator@D@2@@std@@QEAAXXZ 000000014000b880 f i ipo_2028818obj4.obj
 0001:0000a950       ?resize@?$basic_string@DU?$char_traits@D@std@@V?$allocator@D@2@@std@@QEAAX_KD@Z 000000014000b950 f i ipo_2028818obj4.obj
 0001:0000a9b0       ??1_Facet_base@std@@UEAA@XZ 000000014000b9b0 f i ipo_2028818obj4.obj
 0001:0000a9c0       ??0_Facet_base@std@@QEAA@XZ 000000014000b9c0 f i ipo_2028818obj4.obj
 0001:0000a9d0       ??1facet@locale@std@@MEAA@XZ 000000014000b9d0 f i ipo_2028818obj4.obj
 0001:0000a9f0       ??0facet@locale@std@@IEAA@_K@Z 000000014000b9f0 f i ipo_2028818obj4.obj
 0001:0000aa30       ??0?$_Yarn@D@std@@QEAA@XZ  000000014000ba30 f i ipo_2028818obj4.obj
 0001:0000aa40       ?_Tidy@?$_Yarn@_W@std@@AEAAXXZ 000000014000ba40 f i ipo_2028818obj4.obj
 0001:0000aa40       ?_Tidy@?$_Yarn@D@std@@AEAAXXZ 000000014000ba40 f i ipo_2028818obj4.obj
 0001:0000aa70       ?c_str@?$_Yarn@D@std@@QEBAPEBDXZ 000000014000ba70 f i ipo_2028818obj4.obj
 0001:0000aa80       ??0?$_Yarn@_W@std@@QEAA@XZ 000000014000ba80 f i ipo_2028818obj4.obj
 0001:0000aaa0       ??0_Locinfo@std@@QEAA@PEBD@Z 000000014000baa0 f i ipo_2028818obj4.obj
 0001:0000ac20       ?_Getctype@_Locinfo@std@@QEBA?AU_Ctypevec@@XZ 000000014000bc20 f i ipo_2028818obj4.obj
 0001:0000ac50       ??1_Locinfo@std@@QEAA@XZ   000000014000bc50 f i ipo_2028818obj4.obj
 0001:0000ad90       ??0locale@std@@QEAA@AEBV01@@Z 000000014000bd90 f i ipo_2028818obj4.obj
 0001:0000add0       ??0locale@std@@QEAA@XZ     000000014000bdd0 f i ipo_2028818obj4.obj
 0001:0000ae10       ??1codecvt_base@std@@UEAA@XZ 000000014000be10 f i ipo_2028818obj4.obj
 0001:0000ae30       ??0codecvt_base@std@@QEAA@_K@Z 000000014000be30 f i ipo_2028818obj4.obj
 0001:0000ae70       ??Bid@locale@std@@QEAA_KXZ 000000014000be70 f i ipo_2028818obj4.obj
 0001:0000aec0       ?c_str@locale@std@@QEBAPEBDXZ 000000014000bec0 f i ipo_2028818obj4.obj
 0001:0000aee0       ?_Getfacet@locale@std@@QEBAPEBVfacet@12@_K@Z 000000014000bee0 f i ipo_2028818obj4.obj
 0001:0000af30       ??1locale@std@@QEAA@XZ     000000014000bf30 f i ipo_2028818obj4.obj
 0001:0000af70       ??_Glocale@std@@QEAAPEAXI@Z 000000014000bf70 f i ipo_2028818obj4.obj
 0001:0000b090       ?_Gnavail@?$basic_streambuf@DU?$char_traits@D@std@@@std@@IEBA_JXZ 000000014000c090 f i ipo_2028818obj4.obj
 0001:0000b0b0       ?_Gninc@?$basic_streambuf@DU?$char_traits@D@std@@@std@@IEAAPEADXZ 000000014000c0b0 f i ipo_2028818obj4.obj
 0001:0000b180       ?_Pninc@?$basic_streambuf@DU?$char_traits@D@std@@@std@@IEAAPEADXZ 000000014000c180 f i ipo_2028818obj4.obj
 0001:0000b1a0       ?_Pnavail@?$basic_streambuf@DU?$char_traits@D@std@@@std@@IEBA_JXZ 000000014000c1a0 f i ipo_2028818obj4.obj
 0001:0000b210       ?gptr@?$basic_streambuf@DU?$char_traits@D@std@@@std@@IEBAPEADXZ 000000014000c210 f i ipo_2028818obj4.obj
 0001:0000b220       ??1exception@std@@UEAA@XZ  000000014000c220 f i ipo_2028818obj4.obj
 0001:0000b240       ??0exception@std@@QEAA@QEBD@Z 000000014000c240 f i ipo_2028818obj4.obj
 0001:0000b290       ??0exception@std@@QEAA@QEBDH@Z 000000014000c290 f i ipo_2028818obj4.obj
 0001:0000b2c0       ??0runtime_error@std@@QEAA@AEBV?$basic_string@DU?$char_traits@D@std@@V?$allocator@D@2@@1@@Z 000000014000c2c0 f i ipo_2028818obj4.obj
 0001:0000b300       ??0runtime_error@std@@QEAA@PEBD@Z 000000014000c300 f i ipo_2028818obj4.obj
 0001:0000b330       ??0error_category@std@@QEAA@XZ 000000014000c330 f i ipo_2028818obj4.obj
 0001:0000b340       ??0error_condition@std@@QEAA@HAEBVerror_category@1@@Z 000000014000c340 f i ipo_2028818obj4.obj
 0001:0000b340       ??0error_code@std@@QEAA@HAEBVerror_category@1@@Z 000000014000c340 f i ipo_2028818obj4.obj
 0001:0000b350       ??8error_category@std@@QEBA_NAEBV01@@Z 000000014000c350 f i ipo_2028818obj4.obj
 0001:0000b390       ?message@error_code@std@@QEBA?AV?$basic_string@DU?$char_traits@D@std@@V?$allocator@D@2@@2@XZ 000000014000c390 f i ipo_2028818obj4.obj
 0001:0000b3c0       ?_Makestr@_System_error@std@@CA?AV?$basic_string@DU?$char_traits@D@std@@V?$allocator@D@2@@2@Verror_code@2@V32@@Z 000000014000c3c0 f i ipo_2028818obj4.obj
 0001:0000b490       ??0_System_error@std@@IEAA@Verror_code@1@AEBV?$basic_string@DU?$char_traits@D@std@@V?$allocator@D@2@@1@@Z 000000014000c490 f i ipo_2028818obj4.obj
 0001:0000b6b0       ?getloc@ios_base@std@@QEBA?AVlocale@2@XZ 000000014000c6b0 f i ipo_2028818obj4.obj
 0001:0000b750       ?sbumpc@?$basic_streambuf@DU?$char_traits@D@std@@@std@@QEAAHXZ 000000014000c750 f i ipo_2028818obj4.obj
 0001:0000b790       ?sgetc@?$basic_streambuf@DU?$char_traits@D@std@@@std@@QEAAHXZ 000000014000c790 f i ipo_2028818obj4.obj
 0001:0000c770       ??$?0V?$allocator@_W@std@@$$V@?$_Compressed_pair@V?$allocator@_W@std@@V?$_String_val@U?$_Simple_types@_W@std@@@2@$00@std@@QEAA@U_One_then_variadic_args_t@1@$$QEAV?$allocator@_W@1@@Z 000000014000d770 f i ipo_2028818obj4.obj
 0001:0000c7b0       ??$?0V?$allocator@_W@std@@X@?$_String_alloc@U?$_String_base_types@_WV?$allocator@_W@std@@@std@@@std@@QEAA@$$QEAV?$allocator@_W@1@@Z 000000014000d7b0 f i ipo_2028818obj4.obj
 0001:0000c800       ??0?$_String_const_iterator@V?$_String_val@U?$_Simple_types@_W@std@@@std@@@std@@QEAA@PEB_WPEBU_Container_base0@1@@Z 000000014000d800 f i ipo_2028818obj4.obj
 0001:0000c800       ??0?$_String_const_iterator@V?$_String_val@U?$_Simple_types@D@std@@@std@@@std@@QEAA@PEBDPEBU_Container_base0@1@@Z 000000014000d800 f i ipo_2028818obj4.obj
 0001:0000c810       ??Y?$_String_const_iterator@V?$_String_val@U?$_Simple_types@_W@std@@@std@@@std@@QEAAAEAV01@_J@Z 000000014000d810 f i ipo_2028818obj4.obj
 0001:0000c820       ??Y?$_String_iterator@V?$_String_val@U?$_Simple_types@_W@std@@@std@@@std@@QEAAAEAV01@_J@Z 000000014000d820 f i ipo_2028818obj4.obj
 0001:0000c840       ??G?$_String_iterator@V?$_String_val@U?$_Simple_types@_W@std@@@std@@@std@@QEBA?AV01@_J@Z 000000014000d840 f i ipo_2028818obj4.obj
 0001:0000c870       ??Z?$_String_iterator@V?$_String_val@U?$_Simple_types@_W@std@@@std@@@std@@QEAAAEAV01@_J@Z 000000014000d870 f i ipo_2028818obj4.obj
 0001:0000c880       ??0?$basic_string@_WU?$char_traits@_W@std@@V?$allocator@_W@2@@std@@QEAA@AEBV01@@Z 000000014000d880 f i ipo_2028818obj4.obj
 0001:0000c980       ?_Construct_lv_contents@?$basic_string@_WU?$char_traits@_W@std@@V?$allocator@_W@2@@std@@QEAAXAEBV12@@Z 000000014000d980 f i ipo_2028818obj4.obj
 0001:0000ca70       ?append@?$basic_string@_WU?$char_traits@_W@std@@V?$allocator@_W@2@@std@@QEAAAEAV12@AEBV12@@Z 000000014000da70 f i ipo_2028818obj4.obj
 0001:0000cab0       ?append@?$basic_string@_WU?$char_traits@_W@std@@V?$allocator@_W@2@@std@@QEAAAEAV12@QEB_W_K@Z 000000014000dab0 f i ipo_2028818obj4.obj
 0001:0000cb40       ?append@?$basic_string@_WU?$char_traits@_W@std@@V?$allocator@_W@2@@std@@QEAAAEAV12@QEB_W@Z 000000014000db40 f i ipo_2028818obj4.obj
 0001:0000cde0       ?back@?$basic_string@_WU?$char_traits@_W@std@@V?$allocator@_W@2@@std@@QEAAAEA_WXZ 000000014000dde0 f i ipo_2028818obj4.obj
 0001:0000ce50       ?end@?$basic_string@_WU?$char_traits@_W@std@@V?$allocator@_W@2@@std@@QEAA?AV?$_String_iterator@V?$_String_val@U?$_Simple_types@_W@std@@@std@@@2@XZ 000000014000de50 f i ipo_2028818obj4.obj
 0001:0000ced0       ??A?$basic_string@_WU?$char_traits@_W@std@@V?$allocator@_W@2@@std@@QEAAAEA_W_K@Z 000000014000ded0 f i ipo_2028818obj4.obj
 0001:0000cef0       ?push_back@?$basic_string@_WU?$char_traits@_W@std@@V?$allocator@_W@2@@std@@QEAAX_W@Z 000000014000def0 f i ipo_2028818obj4.obj
 0001:0000cf60       ?size@?$basic_string@_WU?$char_traits@_W@std@@V?$allocator@_W@2@@std@@QEBA_KXZ 000000014000df60 f i ipo_2028818obj4.obj
 0001:0000e480       ??1?$codecvt@DDU_Mbstatet@@@std@@MEAA@XZ 000000014000f480 f i ipo_2028818obj4.obj
 0001:0000e4b0       ??0?$codecvt@DDU_Mbstatet@@@std@@QEAA@AEBV_Locinfo@1@_K@Z 000000014000f4b0 f i ipo_2028818obj4.obj
 0001:0000e4e0       ?_Getcat@?$codecvt@DDU_Mbstatet@@@std@@SA_KPEAPEBVfacet@locale@2@PEBV42@@Z 000000014000f4e0 f i ipo_2028818obj4.obj
 0001:0000e9e0       ??_G?$basic_ostream@DU?$char_traits@D@std@@@std@@UEAAPEAXI@Z 000000014000f9e0 f i ipo_2028818obj4.obj
 0001:0000ed20       ??1ctype_base@std@@UEAA@XZ 000000014000fd20 f i ipo_2028818obj4.obj
 0001:0000ed40       ??0ctype_base@std@@QEAA@_K@Z 000000014000fd40 f i ipo_2028818obj4.obj
 0001:0000ed70       ??1?$ctype@D@std@@MEAA@XZ  000000014000fd70 f i ipo_2028818obj4.obj
 0001:0000eda0       ?is@?$ctype@D@std@@QEBA_NFD@Z 000000014000fda0 f i ipo_2028818obj4.obj
 0001:0000edc0       ??0?$ctype@D@std@@QEAA@AEBV_Locinfo@1@_K@Z 000000014000fdc0 f i ipo_2028818obj4.obj
 0001:0000ee00       ?_Getcat@?$ctype@D@std@@SA_KPEAPEBVfacet@locale@2@PEBV42@@Z 000000014000fe00 f i ipo_2028818obj4.obj
 0001:0000ef30       ?_Init@?$ctype@D@std@@IEAAXAEBV_Locinfo@2@@Z 000000014000ff30 f i ipo_2028818obj4.obj
 0001:0000ef60       ?_Tidy@?$ctype@D@std@@IEAAXXZ 000000014000ff60 f i ipo_2028818obj4.obj
 0001:0000efa0       ??_G?$basic_ifstream@DU?$char_traits@D@std@@@std@@UEAAPEAXI@Z 000000014000ffa0 f i ipo_2028818obj4.obj
 0001:0000f0a0       ??_G?$basic_istream@DU?$char_traits@D@std@@@std@@UEAAPEAXI@Z 00000001400100a0 f i ipo_2028818obj4.obj
 0001:0000fd00       ??_GSprite@olc@@QEAAPEAXI@Z 0000000140010d00 f i ipo_2028818obj4.obj
 0001:0000fff0       ??R?$_Func_class@X$$V@std@@QEBAXXZ 0000000140010ff0 f i ipo_2028818obj4.obj
 0001:000101c0       ?olc_WindowEvent@Platform_Windows@olc@@SA_JPEAUHWND__@@I_K_J@Z 00000001400111c0 f i ipo_2028818obj4.obj
 0001:000107e0       ?EngineThread@PixelGameEngine@olc@@AEAAXXZ 00000001400117e0 f   ipo_2028818obj4.obj
 0001:00015d80       ?_Adjust_manually_vector_aligned@std@@YAXAEAPEAXAEA_K@Z 0000000140016d80 f i ipo_2028818obj4.obj
 0001:00015db0       ??$construct@PEADAEBQEAD@?$_Default_allocator_traits@V?$allocator@D@std@@@std@@SAXAEAV?$allocator@D@1@QEAPEADAEBQEAD@Z 0000000140016db0 f i ipo_2028818obj4.obj
 0001:00015db0       ??$construct@PEA_WAEBQEA_W@?$_Default_allocator_traits@V?$allocator@_W@std@@@std@@SAXAEAV?$allocator@_W@1@QEAPEA_WAEBQEA_W@Z 0000000140016db0 f i ipo_2028818obj4.obj
 0001:00015e10       ?_Become_small@?$basic_string@DU?$char_traits@D@std@@V?$allocator@D@2@@std@@QEAAXXZ 0000000140016e10 f i ipo_2028818obj4.obj
 0001:000180b0       ?_Empty@?$_Func_class@X$$V@std@@IEBA_NXZ 00000001400190b0 f i ipo_2028818obj4.obj
 0001:000181c0       ?CreateFractalIntrinsics@olcFractalExplorer@@QEAAXAEBU?$v2d_generic@H@olc@@0AEBU?$v2d_generic@N@3@1H@Z 00000001400191c0 f i ipo_2028818obj4.obj
 0001:000186f0       ?CreateFractal@WorkerThread@olcFractalExplorer@@QEAAXXZ 00000001400196f0 f i ipo_2028818obj4.obj
 0001:00018ac0       ??0WorkerThread@olcFractalExplorer@@QEAA@XZ 0000000140019ac0 f i ipo_2028818obj4.obj
 0001:00018b40       ??1WorkerThread@olcFractalExplorer@@QEAA@XZ 0000000140019b40 f i ipo_2028818obj4.obj
 0001:00018c30       ??_G?$basic_ofstream@DU?$char_traits@D@std@@@std@@UEAAPEAXI@Z 0000000140019c30 f i ipo_2028818obj4.obj
 0001:00018cf0       ??0bad_cast@std@@QEAA@XZ   0000000140019cf0 f i ipo_2028818obj4.obj
 0001:00018d30       ??R?$default_delete@V_Facet_base@std@@@std@@QEBAXPEAV_Facet_base@1@@Z 0000000140019d30 f i ipo_2028818obj4.obj
 0001:00018d70       ?get@?$unique_ptr@V_Facet_base@std@@U?$default_delete@V_Facet_base@std@@@2@@std@@QEBAPEAV_Facet_base@2@XZ 0000000140019d70 f i ipo_2028818obj4.obj
 0001:00018d90       ??$?0U?$default_delete@V_Facet_base@std@@@std@@$0A@@?$unique_ptr@V_Facet_base@std@@U?$default_delete@V_Facet_base@std@@@2@@std@@QEAA@PEAV_Facet_base@1@@Z 0000000140019d90 f i ipo_2028818obj4.obj
 0001:00018db0       ?release@?$unique_ptr@V_Facet_base@std@@U?$default_delete@V_Facet_base@std@@@2@@std@@QEAAPEAV_Facet_base@2@XZ 0000000140019db0 f i ipo_2028818obj4.obj
 0001:00018de0       ??1?$unique_ptr@V_Facet_base@std@@U?$default_delete@V_Facet_base@std@@@2@@std@@QEAA@XZ 0000000140019de0 f i ipo_2028818obj4.obj
 0001:00018e20       ??$?0AEAPEAV_Facet_base@std@@@?$_Compressed_pair@U?$default_delete@V_Facet_base@std@@@std@@PEAV_Facet_base@2@$00@std@@QEAA@U_Zero_then_variadic_args_t@1@AEAPEAV_Facet_base@1@@Z 0000000140019e20 f i ipo_2028818obj4.obj
 0001:00018e30       ?_Myptr@?$_Unique_ptr_base@V_Facet_base@std@@U?$default_delete@V_Facet_base@std@@@2@@std@@QEBAAEBQEAV_Facet_base@2@XZ 0000000140019e30 f i ipo_2028818obj4.obj
 0001:00018e30       ?_Myptr@?$_Unique_ptr_base@V_Facet_base@std@@U?$default_delete@V_Facet_base@std@@@2@@std@@QEAAAEAPEAV_Facet_base@2@XZ 0000000140019e30 f i ipo_2028818obj4.obj
 0001:00018e40       ??$?0PEAV_Facet_base@std@@@?$_Unique_ptr_base@V_Facet_base@std@@U?$default_delete@V_Facet_base@std@@@2@@std@@QEAA@PEAV_Facet_base@1@@Z 0000000140019e40 f i ipo_2028818obj4.obj
 0001:00018e70       ??0_Generic_error_category@std@@QEAA@XZ 0000000140019e70 f i ipo_2028818obj4.obj
 0001:00018ee0       ??0_System_error_category@std@@QEAA@XZ 0000000140019ee0 f i ipo_2028818obj4.obj
 0001:00018f20       ?_Call_func@_Pad@std@@CAIPEAX@Z 0000000140019f20 f i ipo_2028818obj4.obj
 0001:00019420       ??$use_facet@V?$ctype@D@std@@@std@@YAAEBV?$ctype@D@0@AEBVlocale@0@@Z 000000014001a420 f i ipo_2028818obj4.obj
 0001:00019520       ??8std@@YA_NAEBVerror_condition@0@0@Z 000000014001a520 f i ipo_2028818obj4.obj
 0001:00019590       ?generic_category@std@@YAAEBVerror_category@1@XZ 000000014001a590 f i ipo_2028818obj4.obj
 0001:000195a0       ??$_Immortalize@V_Generic_error_category@std@@@std@@YAAEAV_Generic_error_category@0@XZ 000000014001a5a0 f i ipo_2028818obj4.obj
 0001:00019630       ?system_category@std@@YAAEBVerror_category@1@XZ 000000014001a630 f i ipo_2028818obj4.obj
 0001:00019640       ??$_Immortalize@V_System_error_category@std@@@std@@YAAEAV_System_error_category@0@XZ 000000014001a640 f i ipo_2028818obj4.obj
 0001:00019760       ??$_Immortalize_impl@V_Generic_error_category@std@@@std@@YAHPEAX0PEAPEAX@Z 000000014001a760 f i ipo_2028818obj4.obj
 0001:00019780       ??$_Immortalize_impl@V_Iostream_error_category@std@@@std@@YAHPEAX0PEAPEAX@Z 000000014001a780 f i ipo_2028818obj4.obj
 0001:000197a0       ??$_Immortalize_impl@V_System_error_category@std@@@std@@YAHPEAX0PEAPEAX@Z 000000014001a7a0 f i ipo_2028818obj4.obj
 0001:000197f0       ??$_Idl_distance@PEADPEAD@std@@YA_JAEBQEAD0@Z 000000014001a7f0 f i ipo_2028818obj4.obj
 0001:00019850       ??$use_facet@V?$codecvt@DDU_Mbstatet@@@std@@@std@@YAAEBV?$codecvt@DDU_Mbstatet@@@0@AEBVlocale@0@@Z 000000014001a850 f i ipo_2028818obj4.obj
 0001:00019c70       wmemmove                   000000014001ac70 f i ipo_2028818obj4.obj
 0001:00019f90       ?_Load_acquire_4@std@@YAKPECK@Z 000000014001af90 f i ipo_2028818obj4.obj
 0001:00019fc0       ??$_Allocate_manually_vector_aligned@U_Default_allocate_traits@std@@@std@@YAPEAX_K@Z 000000014001afc0 f i ipo_2028818obj4.obj
 0001:0001a000       wmemcpy                    000000014001b000 f i ipo_2028818obj4.obj
 0001:0001a110       ?_Allocate@_Default_allocate_traits@std@@SAPEAX_K@Z 000000014001b110 f i ipo_2028818obj4.obj
 0001:0001a180       ??1?$unique_lock@Vmutex@std@@@std@@QEAA@XZ 000000014001b180 f i ipo_2028818obj4.obj
 0001:0001a210       ?_Tidy@?$_Func_class@X$$V@std@@IEAAXXZ 000000014001b210 f i ipo_2028818obj4.obj
 0001:0001a390       ??1?$basic_string@_WU?$char_traits@_W@std@@V?$allocator@_W@2@@std@@QEAA@XZ 000000014001b390 f i ipo_2028818obj4.obj
 0001:0001a3b0       ?max_size@?$basic_string@_WU?$char_traits@_W@std@@V?$allocator@_W@2@@std@@QEBA_KXZ 000000014001b3b0 f i ipo_2028818obj4.obj
 0001:0001a3c0       ?c_str@?$basic_string@_WU?$char_traits@_W@std@@V?$allocator@_W@2@@std@@QEBAPEB_WXZ 000000014001b3c0 f i ipo_2028818obj4.obj
 0001:0001a3e0       ?_Tidy_deallocate@?$basic_string@_WU?$char_traits@_W@std@@V?$allocator@_W@2@@std@@QEAAXXZ 000000014001b3e0 f i ipo_2028818obj4.obj
 0001:0001a550       ?copy@?$_WChar_traits@_W@std@@SAPEA_WQEA_WQEB_W_K@Z 000000014001b550 f i ipo_2028818obj4.obj
 0001:0001a560       ?length@?$_WChar_traits@_W@std@@SA_KPEB_W@Z 000000014001b560 f i ipo_2028818obj4.obj
 0001:0001a570       ?assign@?$basic_string@_WU?$char_traits@_W@std@@V?$allocator@_W@2@@std@@QEAAAEAV12@QEB_W_K@Z 000000014001b570 f i ipo_2028818obj4.obj
 0001:0001a5f0       ?_Calculate_growth@?$basic_string@_WU?$char_traits@_W@std@@V?$allocator@_W@2@@std@@QEBA_K_K@Z 000000014001b5f0 f i ipo_2028818obj4.obj
 0001:0001a650       ??0?$basic_string@_WU?$char_traits@_W@std@@V?$allocator@_W@2@@std@@QEAA@QEB_W@Z 000000014001b650 f i ipo_2028818obj4.obj
 0001:0001a720       ??1?$_String_alloc@U?$_String_base_types@_WV?$allocator@_W@std@@@std@@@std@@QEAA@XZ 000000014001b720 f i ipo_2028818obj4.obj
 0001:0001a720       ??1?$_String_alloc@U?$_String_base_types@DV?$allocator@D@std@@@std@@@std@@QEAA@XZ 000000014001b720 f i ipo_2028818obj4.obj
 0001:0001a730       ?deallocate@?$allocator@_W@std@@QEAAXQEA_W_K@Z 000000014001b730 f i ipo_2028818obj4.obj
 0001:0001a740       ?allocate@?$allocator@_W@std@@QEAAPEA_W_K@Z 000000014001b740 f i ipo_2028818obj4.obj
 0001:0001a770       ?_Large_string_engaged@?$_String_val@U?$_Simple_types@_W@std@@@std@@QEBA_NXZ 000000014001b770 f i ipo_2028818obj4.obj
 0001:0001a780       ?_Myptr@?$_String_val@U?$_Simple_types@_W@std@@@std@@QEBAPEB_WXZ 000000014001b780 f i ipo_2028818obj4.obj
 0001:0001af90       ?size@?$basic_string@DU?$char_traits@D@std@@V?$allocator@D@2@@std@@QEBA_KXZ 000000014001bf90 f i ipo_2028818obj4.obj
 0001:0001afa0       ?max_size@?$basic_string@DU?$char_traits@D@std@@V?$allocator@D@2@@std@@QEBA_KXZ 000000014001bfa0 f i ipo_2028818obj4.obj
 0001:0001b250       ?move@?$char_traits@D@std@@SAPEADQEADQEBD_K@Z 000000014001c250 f i ipo_2028818obj4.obj
 0001:0001b260       ?copy@?$char_traits@D@std@@SAPEADQEADQEBD_K@Z 000000014001c260 f i ipo_2028818obj4.obj
 0001:0001b270       ?assign@?$char_traits@D@std@@SAPEADQEAD_KD@Z 000000014001c270 f i ipo_2028818obj4.obj
 0001:0001b290       ?append@?$basic_string@DU?$char_traits@D@std@@V?$allocator@D@2@@std@@QEAAAEAV12@AEBV12@@Z 000000014001c290 f i ipo_2028818obj4.obj
 0001:0001b310       ?_Construct_lv_contents@?$basic_string@DU?$char_traits@D@std@@V?$allocator@D@2@@std@@QEAAXAEBV12@@Z 000000014001c310 f i ipo_2028818obj4.obj
 0001:0001b3d0       ?assign@?$basic_string@DU?$char_traits@D@std@@V?$allocator@D@2@@std@@QEAAAEAV12@_KD@Z 000000014001c3d0 f i ipo_2028818obj4.obj
 0001:0001b440       ?assign@?$basic_string@DU?$char_traits@D@std@@V?$allocator@D@2@@std@@QEAAAEAV12@QEBD@Z 000000014001c440 f i ipo_2028818obj4.obj
 0001:0001b4d0       ?_Calculate_growth@?$basic_string@DU?$char_traits@D@std@@V?$allocator@D@2@@std@@QEBA_K_K@Z 000000014001c4d0 f i ipo_2028818obj4.obj
 0001:0001b530       ??0?$basic_string@DU?$char_traits@D@std@@V?$allocator@D@2@@std@@QEAA@$$QEAV01@@Z 000000014001c530 f i ipo_2028818obj4.obj
 0001:0001b570       ??0?$basic_string@DU?$char_traits@D@std@@V?$allocator@D@2@@std@@QEAA@_KD@Z 000000014001c570 f i ipo_2028818obj4.obj
 0001:0001b5c0       ??0?$basic_string@DU?$char_traits@D@std@@V?$allocator@D@2@@std@@QEAA@QEBD@Z 000000014001c5c0 f i ipo_2028818obj4.obj
 0001:0001b610       ??0?$basic_string@DU?$char_traits@D@std@@V?$allocator@D@2@@std@@QEAA@AEBV01@@Z 000000014001c610 f i ipo_2028818obj4.obj
 0001:0001b660       ?deallocate@?$allocator@D@std@@QEAAXQEAD_K@Z 000000014001c660 f i ipo_2028818obj4.obj
 0001:0001b6b0       ?allocate@?$allocator@D@std@@QEAAPEAD_K@Z 000000014001c6b0 f i ipo_2028818obj4.obj
 0001:0001b6e0       ?_Check_offset@?$_String_val@U?$_Simple_types@D@std@@@std@@QEBAX_K@Z 000000014001c6e0 f i ipo_2028818obj4.obj
 0001:0001b700       ?_Large_string_engaged@?$_String_val@U?$_Simple_types@D@std@@@std@@QEBA_NXZ 000000014001c700 f i ipo_2028818obj4.obj
 0001:0001b730       ??0thread@std@@QEAA@XZ     000000014001c730 f i ipo_2028818obj4.obj
 0001:0001b750       sinf                       000000014001c750 f   libmmt:sinf_iface_c99.obj
 0001:0001b770       frexp                      000000014001c770 f   libmmt:frexp_iface_c99.obj
 0001:0001b790       ldexp                      000000014001c790 f   libmmt:ldexp_iface_c99.obj
 0001:0001b7b0       pow                        000000014001c7b0 f   libmmt:pow_iface_c99.obj
 0001:0001b7d0       powf                       000000014001c7d0 f   libmmt:powf_iface_c99.obj
 0001:0001b7f0       __libm_sinf                000000014001c7f0 f   libmmt:sinf_iface_disp.obj
 0001:0001b8a0       __libm_frexp               000000014001c8a0 f   libmmt:frexp_iface_disp.obj
 0001:0001b950       __libm_ldexp               000000014001c950 f   libmmt:ldexp_iface_disp.obj
 0001:0001ba00       __libm_pow                 000000014001ca00 f   libmmt:pow_iface_disp.obj
 0001:0001bac0       __libm_powf                000000014001cac0 f   libmmt:powf_iface_disp.obj
 0001:0001bb80       __libm_feature_flag_init   000000014001cb80 f   libmmt:libm_feature_flag.obj
 0001:0001bd90       __libm_sinf_ex             000000014001cd90 f   libmmt:sinf_gen.obj
 0001:0001c010       __libm_sinf_e7             000000014001d010 f   libmmt:sinf_ct.obj
 0001:0001c290       __libm_sinf_l9             000000014001d290 f   libmmt:sinf_avx2.obj
 0001:0001c3d0       __libm_sinf_b3             000000014001d3d0 f   libmmt:sinf_knl.obj
 0001:0001c4f0       __libm_frexp_ex            000000014001d4f0 f   libmmt:frexp_gen.obj
 0001:0001c5b0       __libm_frexp_e7            000000014001d5b0 f   libmmt:frexp_ct.obj
 0001:0001c640       __libm_ldexp_ex            000000014001d640 f   libmmt:ldexp_gen.obj
 0001:0001c830       __libm_ldexp_e7            000000014001d830 f   libmmt:ldexp_ct.obj
 0001:0001c9d0       __libm_pow_ex              000000014001d9d0 f   libmmt:pow_gen.obj
 0001:0001d590       __libm_pow_e7              000000014001e590 f   libmmt:pow_ct.obj
 0001:0001e5c0       __libm_pow_l9              000000014001f5c0 f   libmmt:pow_avx2.obj
 0001:0001e990       __libm_powf_ex             000000014001f990 f   libmmt:powf_gen.obj
 0001:0001f0a0       __libm_powf_e7             00000001400200a0 f   libmmt:powf_ct.obj
 0001:0001f7b0       __libm_powf_l9             00000001400207b0 f   libmmt:powf_avx2.obj
 0001:0001f940       __libm_copy_value          0000000140020940 f   libmmt:libm_error.obj
 0001:0001fc70       _snprintf_s                0000000140020c70 f i libmmt:libm_error.obj
 0001:0001fcf0       __libm_error_support       0000000140020cf0 f   libmmt:libm_error.obj
 0001:00020540       __libm_setusermatherrl     0000000140021540 f   libmmt:libm_error.obj
 0001:00020570       __libm_setusermatherr      0000000140021570 f   libmmt:libm_error.obj
 0001:000205a0       __libm_setusermatherrf     00000001400215a0 f   libmmt:libm_error.obj
 0001:000205d0       __libm_matherrl            00000001400215d0 f   libmmt:matherrl_iface_disp.obj
 0001:000205f0       __libm_matherr             00000001400215f0 f   libmmt:matherr_iface_disp.obj
 0001:00020610       __libm_matherrf            0000000140021610 f   libmmt:matherrf_iface_disp.obj
 0001:00020630       __libm_matherrl_ex         0000000140021630 f   libmmt:matherrl.obj
 0001:00020650       __libm_matherr_ex          0000000140021650 f   libmmt:matherr.obj
 0001:00020670       __libm_matherrf_ex         0000000140021670 f   libmmt:matherrf.obj
 0001:00020690       __intel_new_feature_proc_init 0000000140021690 f   libirc:new_proc_init.obj
 0001:00020710       __intel_new_feature_proc_init_n 0000000140021710 f   libirc:new_proc_init.obj
 0001:00020b20       __intel_sse4_strlen        0000000140021b20 f   libirc:sse4_strlen.obj
 0001:00020b40       __intel_avx_rep_memcpy     0000000140021b40 f   libirc:intel_avx_rep_memcpy.obj
 0001:000223d0       __intel_avx_rep_memset     00000001400233d0 f   libirc:intel_avx_rep_memset.obj
 0001:00023490       _intel_fast_memcmp         0000000140024490 f   libirc:ia32_memcmp.obj
 0001:00023510       __libirc_get_feature_name  0000000140024510 f   libirc:cpu_feature_disp.obj
 0001:00023550       __libirc_get_feature_bitpos 0000000140024550 f   libirc:cpu_feature_disp.obj
 0001:00023790       __libirc_get_cpu_feature   0000000140024790 f   libirc:cpu_feature_disp.obj
 0001:00024210       __intel_cpu_features_init_x 0000000140025210 f   libirc:cpu_feature_disp.obj
 0001:00024220       __intel_cpu_features_init  0000000140025220 f   libirc:cpu_feature_disp.obj
 0001:00024ca0       sprintf                    0000000140025ca0 f i libirc:irc_msg_support.obj
 0001:00024d20       __libirc_get_msg           0000000140025d20 f   libirc:irc_msg_support.obj
 0001:00024f50       __libirc_print             0000000140025f50 f   libirc:irc_msg_support.obj
 0001:000251a0       printf                     00000001400261a0 f i libirc:irc_msg_support.obj
 0001:00025210       __intel_proc_init_ftzdazule 0000000140026210 f   libirc:proc_init_utils.obj
 0001:00025340       __cacheSize                0000000140026340 f   libirc:fast_mem_ops.obj
 0001:000260c0       GetModuleHandleW           00000001400270c0 f   kernel32:KERNEL32.dll
 0001:000260c6       MultiByteToWideChar        00000001400270c6 f   kernel32:KERNEL32.dll
 0001:000260cc       GetDC                      00000001400270cc f   user32:USER32.dll
 0001:000260d2       PostMessageW               00000001400270d2 f   user32:USER32.dll
 0001:000260d8       GetMonitorInfoW            00000001400270d8 f   user32:USER32.dll
 0001:000260de       MonitorFromWindow          00000001400270de f   user32:USER32.dll
 0001:000260e4       CreateWindowExW            00000001400270e4 f   user32:USER32.dll
 0001:000260ea       AdjustWindowRectEx         00000001400270ea f   user32:USER32.dll
 0001:000260f0       RegisterClassW             00000001400270f0 f   user32:USER32.dll
 0001:000260f6       LoadCursorW                00000001400270f6 f   user32:USER32.dll
 0001:000260fc       LoadIconW                  00000001400270fc f   user32:USER32.dll
 0001:00026102       SetWindowTextW             0000000140027102 f   user32:USER32.dll
 0001:00026108       DispatchMessageW           0000000140027108 f   user32:USER32.dll
 0001:0002610e       TranslateMessage           000000014002710e f   user32:USER32.dll
 0001:00026114       GetMessageW                0000000140027114 f   user32:USER32.dll
 0001:0002611a       DestroyWindow              000000014002711a f   user32:USER32.dll
 0001:00026120       PostQuitMessage            0000000140027120 f   user32:USER32.dll
 0001:00026126       DefWindowProcW             0000000140027126 f   user32:USER32.dll
 0001:0002612c       SetPixelFormat             000000014002712c f   gdi32:GDI32.dll
 0001:00026132       ChoosePixelFormat          0000000140027132 f   gdi32:GDI32.dll
 0001:00026138       SwapBuffers                0000000140027138 f   gdi32:GDI32.dll
 0001:00026140       ??0stl_condition_variable_concrt@details@Concurrency@@QEAA@XZ 0000000140027140 f i libcpmt:cond.obj
 0001:00026168       ??$_Refancy@PEA_W$0A@@std@@YAPEA_WPEA_W@Z 0000000140027168 f i libcpmt:filesys.obj
 0001:00026168       ?_get_cv@_Cnd_internal_imp_t@@QEAAPEAVstl_condition_variable_interface@details@Concurrency@@XZ 0000000140027168 f i libcpmt:cond.obj
 0001:00026168       ?_Mymtx@_Mutex_base@std@@AEAAPEAU_Mtx_internal_imp_t@@XZ 0000000140027168 f i libconcrt:TaskCollection.obj
 0001:00026168       ??0stl_critical_section_interface@details@Concurrency@@QEAA@XZ 0000000140027168 f i libcpmt:mutex.obj
 0001:00026168       ?_Mycnd@condition_variable@std@@AEAAPEAU_Cnd_internal_imp_t@@XZ 0000000140027168 f i libconcrt:TaskCollection.obj
 0001:00026168       ??E?$ostreambuf_iterator@DU?$char_traits@D@std@@@std@@QEAAAEAV01@H@Z 0000000140027168 f i libcpmt:xlocale.obj
 0001:00026168       ??$forward@AEBQEAD@std@@YAAEBQEADAEBQEAD@Z 0000000140027168 f i libcpmt:thread0.obj
 0001:00026168       ??$_Convert_size@_K@std@@YA_K_K@Z 0000000140027168 f i libcpmt:thread0.obj
 0001:00026168       ?debug_info@?$__crt_win32_buffer@_WU__crt_win32_buffer_internal_dynamic_resizing@@@@QEBAAEBV__crt_win32_buffer_empty_debug_info@@XZ 0000000140027168 f i libucrt:getcwd.obj
 0001:00026168       ??$addressof@V?$_String_val@U?$_Simple_types@_W@std@@@std@@@std@@YAPEAV?$_String_val@U?$_Simple_types@_W@std@@@0@AEAV10@@Z 0000000140027168 f i libcpmt:filesys.obj
 0001:00026168       ?_Getal@?$_String_alloc@U?$_String_base_types@GV?$allocator@G@std@@@std@@@std@@QEBAAEBV?$allocator@G@2@XZ 0000000140027168 f i libcpmt:wlocale.obj
 0001:00026168       ?value@?$dual_state_global@P6AH_K@Z@__crt_state_management@@QEAAAEAP6AH_K@ZXZ 0000000140027168 f i libucrt:new_handler.obj
 0001:00026168       ?debug_info@?$__crt_win32_buffer@_WU__crt_win32_buffer_no_resizing@@@@QEBAAEBV__crt_win32_buffer_empty_debug_info@@XZ 0000000140027168 f i libucrt:getcwd.obj
 0001:00026168       ??$addressof@$$CBV?$moneypunct@D$00@std@@@std@@YAPEBV?$moneypunct@D$00@0@AEBV10@@Z 0000000140027168 f i libcpmt:xlocale.obj
 0001:00026168       ??$_Get_unwrapped@_W@std@@YAPEA_WQEA_W@Z 0000000140027168 f i libcpmt:wlocale.obj
 0001:00026168       ?value@?$dual_state_global@P6AHPEAU_exception@@@Z@__crt_state_management@@QEAAAEAP6AHPEAU_exception@@@ZXZ 0000000140027168 f i libucrt:matherr.obj
 0001:00026168       ?dangerous_get_state_array@?$dual_state_global@H@__crt_state_management@@QEAAPEAHXZ 0000000140027168 f i libucrt:txtmode.obj
 0001:00026168       ??$forward@V?$allocator@D@std@@@std@@YA$$QEAV?$allocator@D@0@AEAV10@@Z 0000000140027168 f i libcpmt:thread0.obj
 0001:00026168       ??$move@AEAV?$basic_string@GU?$char_traits@G@std@@V?$allocator@G@2@@std@@@std@@YA$$QEAV?$basic_string@GU?$char_traits@G@std@@V?$allocator@G@2@@0@AEAV10@@Z 0000000140027168 f i libcpmt:wlocale.obj
 0001:00026168       ??$forward@AEAViterator@TryBlockMap@__FrameHandler3@@@std@@YAAEAViterator@TryBlockMap@__FrameHandler3@@AEAV123@@Z 0000000140027168 f i libvcruntime:risctrnsctrl.obj
 0001:00026168       ??D?$ostreambuf_iterator@GU?$char_traits@G@std@@@std@@QEAAAEAV01@XZ 0000000140027168 f i libcpmt:wlocale.obj
 0001:00026168       ??E?$ostreambuf_iterator@GU?$char_traits@G@std@@@std@@QEAAAEAV01@H@Z 0000000140027168 f i libcpmt:wlocale.obj
 0001:00026168       ??$addressof@$$CBV?$moneypunct@D$0A@@std@@@std@@YAPEBV?$moneypunct@D$0A@@0@AEBV10@@Z 0000000140027168 f i libcpmt:xlocale.obj
 0001:00026168       ??$addressof@V?$basic_string@_WU?$char_traits@_W@std@@V?$allocator@_W@2@@std@@@std@@YAPEAV?$basic_string@_WU?$char_traits@_W@std@@V?$allocator@_W@2@@0@AEAV10@@Z 0000000140027168 f i libcpmt:wlocale.obj
 0001:00026168       ?dangerous_get_state_array@?$dual_state_global@P6AXPEB_W00I_K@Z@__crt_state_management@@QEAAPEAP6AXPEB_W00I_K@ZXZ 0000000140027168 f i libucrt:invalid_parameter.obj
 0001:00026168       ??$forward@AEBU?$_StaticAllocator@H@@@std@@YAAEBU?$_StaticAllocator@H@@AEBU1@@Z 0000000140027168 f i libcpmt:excptptr.obj
 0001:00026168       ?dangerous_get_state_array@?$dual_state_global@PEAU__crt_locale_data@@@__crt_state_management@@QEAAPEAPEAU__crt_locale_data@@XZ 0000000140027168 f i libucrt:per_thread_data.obj
 0001:00026168       ??$move@AEAPEAV_Ref_count_base@std@@@std@@YA$$QEAPEAV_Ref_count_base@0@AEAPEAV10@@Z 0000000140027168 f i libcpmt:excptptr.obj
 0001:00026168       ??0_Bxty@?$_String_val@U?$_Simple_types@G@std@@@std@@QEAA@XZ 0000000140027168 f i libcpmt:wlocale.obj
 0001:00026168       ?_Get_first@?$_Compressed_pair@V?$allocator@G@std@@V?$_String_val@U?$_Simple_types@G@std@@@2@$00@std@@QEAAAEAV?$allocator@G@2@XZ 0000000140027168 f i libcpmt:wlocale.obj
 0001:00026168       ?_Get_second@?$_Compressed_pair@V?$allocator@G@std@@V?$_String_val@U?$_Simple_types@G@std@@@2@$00@std@@QEBAAEBV?$_String_val@U?$_Simple_types@G@std@@@2@XZ 0000000140027168 f i libcpmt:wlocale.obj
 0001:00026168       ??$_Unfancy@V?$_Ref_count_obj_alloc@V__ExceptionPtr@@U?$_StaticAllocator@H@@@std@@@std@@YAPEAV?$_Ref_count_obj_alloc@V__ExceptionPtr@@U?$_StaticAllocator@H@@@0@PEAV10@@Z 0000000140027168 f i libcpmt:excptptr.obj
 0001:00026168       ?dangerous_get_state_array@?$dual_state_global@J@__crt_state_management@@QEAAPEAJXZ 0000000140027168 f i libucrt:tzset.obj
 0001:00026168       ?_Get_second@?$_Compressed_pair@U?$_StaticAllocator@V?$_Ref_count_obj_alloc@V__ExceptionPtr@@U?$_StaticAllocator@H@@@std@@@@T?$_Align_type@N$0KA@@std@@$00@std@@QEAAAEAT?$_Align_type@N$0KA@@2@XZ 0000000140027168 f i libcpmt:excptptr.obj
 0001:00026168       ?dangerous_get_state_array@?$dual_state_global@PEAPEA_W@__crt_state_management@@QEAAPEAPEAPEA_WXZ 0000000140027168 f i libucrt:timeset.obj
 0001:00026168       ?value@?$dual_state_global@PEAU__crt_multibyte_data@@@__crt_state_management@@QEAAAEAPEAU__crt_multibyte_data@@XZ 0000000140027168 f i libucrt:locale_update.obj
 0001:00026168       ??$forward@V?$allocator@_W@std@@@std@@YA$$QEAV?$allocator@_W@0@AEAV10@@Z 0000000140027168 f i libcpmt:wlocale.obj
 0001:00026168       ??$addressof@V?$basic_string@DU?$char_traits@D@std@@V?$allocator@D@2@@std@@@std@@YAPEAV?$basic_string@DU?$char_traits@D@std@@V?$allocator@D@2@@0@AEAV10@@Z 0000000140027168 f i libcpmt:locale.obj
 0001:00026168       ??D?$ostreambuf_iterator@DU?$char_traits@D@std@@@std@@QEAAAEAV01@XZ 0000000140027168 f i libcpmt:locale.obj
 0001:00026168       ?_Get_first@?$_Compressed_pair@V?$allocator@D@std@@V?$_String_val@U?$_Simple_types@D@std@@@2@$00@std@@QEBAAEBV?$allocator@D@2@XZ 0000000140027168 f i libcpmt:thread0.obj
 0001:00026168       ??$addressof@Vmutex@std@@@std@@YAPEAVmutex@0@AEAV10@@Z 0000000140027168 f i libconcrt:TaskCollection.obj
 0001:00026168       ??$move@AEAV?$basic_string@DU?$char_traits@D@std@@V?$allocator@D@2@@std@@@std@@YA$$QEAV?$basic_string@DU?$char_traits@D@std@@V?$allocator@D@2@@0@AEAV10@@Z 0000000140027168 f i libcpmt:thread0.obj
 0001:00026168       ?Delta@?$LockFreeStack@VSubAllocator@details@Concurrency@@@details@Concurrency@@CAPEAVSubAllocator@23@PEAX@Z 0000000140027168 f i libconcrt:SchedulerBase.obj
 0001:00026168       ?get_address_of@?$__crt_unique_heap_ptr@PEA_WU__crt_internal_free_policy@@@@QEAAPEAPEAPEA_WXZ 0000000140027168 f i libucrt:argv_parsing.obj
 0001:00026168       ??E?$ostreambuf_iterator@_WU?$char_traits@_W@std@@@std@@QEAAAEAV01@H@Z 0000000140027168 f i libcpmt:wlocale.obj
 0001:00026168       ??$forward@AEAViterator@TryBlockMap@__FrameHandler4@@@std@@YAAEAViterator@TryBlockMap@__FrameHandler4@@AEAV123@@Z 0000000140027168 f i libvcruntime:risctrnsctrl.obj
 0001:00026168       ??$_Get_unwrapped_n@V?$ostreambuf_iterator@DU?$char_traits@D@std@@@std@@_J$0A@@std@@YAAEBV?$ostreambuf_iterator@DU?$char_traits@D@std@@@0@AEBV10@_J@Z 0000000140027168 f i libcpmt:xlocale.obj
 0001:00026168       ??$addressof@PEAD@std@@YAPEAPEADAEAPEAD@Z 0000000140027168 f i libcpmt:thread0.obj
 0001:00026168       ??E?$ostreambuf_iterator@GU?$char_traits@G@std@@@std@@QEAAAEAV01@XZ 0000000140027168 f i libcpmt:wlocale.obj
 0001:00026168       ?_Get_second@?$_Compressed_pair@V?$allocator@G@std@@V?$_String_val@U?$_Simple_types@G@std@@@2@$00@std@@QEAAAEAV?$_String_val@U?$_Simple_types@G@std@@@2@XZ 0000000140027168 f i libcpmt:wlocale.obj
 0001:00026168       ?_Get_first@?$_Compressed_pair@V?$allocator@_W@std@@V?$_String_val@U?$_Simple_types@_W@std@@@2@$00@std@@QEBAAEBV?$allocator@_W@2@XZ 0000000140027168 f i libcpmt:syserror.obj
 0001:00026168       ?_Get_first@?$_Compressed_pair@U?$default_delete@V_Facet_base@std@@@std@@PEAV_Facet_base@2@$00@std@@QEAAAEAU?$default_delete@V_Facet_base@std@@@2@XZ 0000000140027168 f i libcpmt:locale.obj
 0001:00026168       ?debug_info@?$__crt_win32_buffer@DU__crt_win32_buffer_public_dynamic_resizing@@@@QEBAAEBV__crt_win32_buffer_debug_info@@XZ 0000000140027168 f i libucrt:getcwd.obj
 0001:00026168       ?_Get_second@?$_Compressed_pair@V?$allocator@D@std@@V?$_String_val@U?$_Simple_types@D@std@@@2@$00@std@@QEAAAEAV?$_String_val@U?$_Simple_types@D@std@@@2@XZ 0000000140027168 f i libcpmt:thread0.obj
 0001:00026168       ??$forward@AEAPEAV_Facet_base@std@@@std@@YAAEAPEAV_Facet_base@0@AEAPEAV10@@Z 0000000140027168 f i libcpmt:locale.obj
 0001:00026168       ?_Get_first@?$_Compressed_pair@V?$allocator@_W@std@@V?$_String_val@U?$_Simple_types@_W@std@@@2@$00@std@@QEAAAEAV?$allocator@_W@2@XZ 0000000140027168 f i libcpmt:syserror.obj
 0001:00026168       ?_Getal@?$_String_alloc@U?$_String_base_types@GV?$allocator@G@std@@@std@@@std@@QEAAAEAV?$allocator@G@2@XZ 0000000140027168 f i libcpmt:wlocale.obj
 0001:00026168       ?get_address_of@?$__crt_unique_handle_t@U__crt_hmodule_traits@@@@QEAAPEAPEAUHINSTANCE__@@XZ 0000000140027168 f i libucrt:exit.obj
 0001:00026168       ??$_Get_unwrapped_n@V?$ostreambuf_iterator@_WU?$char_traits@_W@std@@@std@@_J$0A@@std@@YAAEBV?$ostreambuf_iterator@_WU?$char_traits@_W@std@@@0@AEBV10@_J@Z 0000000140027168 f i libcpmt:wlocale.obj
 0001:00026168       ??$addressof@$$CBV?$moneypunct@_W$0A@@std@@@std@@YAPEBV?$moneypunct@_W$0A@@0@AEBV10@@Z 0000000140027168 f i libcpmt:wlocale.obj
 0001:00026168       ??$addressof@$$CBV?$moneypunct@_W$00@std@@@std@@YAPEBV?$moneypunct@_W$00@0@AEBV10@@Z 0000000140027168 f i libcpmt:wlocale.obj
 0001:00026168       ?_Get_first@?$_Compressed_pair@U?$_StaticAllocator@V?$_Ref_count_obj_alloc@V__ExceptionPtr@@U?$_StaticAllocator@H@@@std@@@@T?$_Align_type@N$0KA@@std@@$00@std@@QEAAAEAU?$_StaticAllocator@V?$_Ref_count_obj_alloc@V__ExceptionPtr@@U?$_StaticAllocator@H@@@std@@@@XZ 0000000140027168 f i libcpmt:excptptr.obj
 0001:00026168       ?debug_info@?$__crt_win32_buffer@DU__crt_win32_buffer_no_resizing@@@@QEBAAEBV__crt_win32_buffer_empty_debug_info@@XZ 0000000140027168 f i libucrt:getcwd.obj
 0001:00026168       ??$?0H@?$_StaticAllocator@V?$_Ref_count_obj_alloc@V__ExceptionPtr@@U?$_StaticAllocator@H@@@std@@@@QEAA@AEBU?$_StaticAllocator@H@@@Z 0000000140027168 f i libcpmt:excptptr.obj
 0001:00026168       ?select_on_container_copy_construction@?$_Default_allocator_traits@V?$allocator@D@std@@@std@@SA?AV?$allocator@D@2@AEBV32@@Z 0000000140027168 f i libcpmt:thread0.obj
 0001:00026168       ??$forward@V?$allocator@G@std@@@std@@YA$$QEAV?$allocator@G@0@AEAV10@@Z 0000000140027168 f i libcpmt:wlocale.obj
 0001:00026168       ?value@?$dual_state_global@J@__crt_state_management@@QEAAAEAJXZ 0000000140027168 f i libucrt:new_mode.obj
 0001:00026168       ??$addressof@PEA_W@std@@YAPEAPEA_WAEAPEA_W@Z 0000000140027168 f i libcpmt:syserror.obj
 0001:00026168       ??E?$ostreambuf_iterator@_WU?$char_traits@_W@std@@@std@@QEAAAEAV01@XZ 0000000140027168 f i libcpmt:wlocale.obj
 0001:00026168       ?value@?$dual_state_global@P6AXH@Z@__crt_state_management@@QEAAAEAP6AXH@ZXZ 0000000140027168 f i libucrt:signal.obj
 0001:00026168       ??$forward@AEBQEAG@std@@YAAEBQEAGAEBQEAG@Z 0000000140027168 f i libcpmt:wlocale.obj
 0001:00026168       ?dangerous_get_state_array@?$dual_state_global@PEAU__crt_multibyte_data@@@__crt_state_management@@QEAAPEAPEAU__crt_multibyte_data@@XZ 0000000140027168 f i libucrt:mbctype.obj
 0001:00026168       ?_Get_data@?$_String_alloc@U?$_String_base_types@GV?$allocator@G@std@@@std@@@std@@QEBAAEBV?$_String_val@U?$_Simple_types@G@std@@@2@XZ 0000000140027168 f i libcpmt:wlocale.obj
 0001:00026168       ??$addressof@V?$_String_val@U?$_Simple_types@G@std@@@std@@@std@@YAPEAV?$_String_val@U?$_Simple_types@G@std@@@0@AEAV10@@Z 0000000140027168 f i libcpmt:wlocale.obj
 0001:00026168       ??$move@AEAPEAV__ExceptionPtr@@@std@@YA$$QEAPEAV__ExceptionPtr@@AEAPEAV1@@Z 0000000140027168 f i libcpmt:excptptr.obj
 0001:00026168       ?value@?$dual_state_global@PEAE@__crt_state_management@@QEAAAEAPEAEXZ 0000000140027168 f i libucrt:mbctype.obj
 0001:00026168       ??$forward@AEAPEAUEHExceptionRecord@@@std@@YAAEAPEAUEHExceptionRecord@@AEAPEAU1@@Z 0000000140027168 f i libcpmt:excptptr.obj
 0001:00026168       ?select_on_container_copy_construction@?$_Default_allocator_traits@V?$allocator@G@std@@@std@@SA?AV?$allocator@G@2@AEBV32@@Z 0000000140027168 f i libcpmt:wlocale.obj
 0001:00026168       ??$_Refancy@PEAG$0A@@std@@YAPEAGPEAG@Z 0000000140027168 f i libcpmt:wlocale.obj
 0001:00026168       ??0_Bxty@?$_String_val@U?$_Simple_types@_W@std@@@std@@QEAA@XZ 0000000140027168 f i libcpmt:syserror.obj
 0001:00026168       ?Delta@?$LockFreePushStack@VContextNode@SchedulerBase@details@Concurrency@@@details@Concurrency@@CAPEAVContextNode@SchedulerBase@23@PEAX@Z 0000000140027168 f i libconcrt:SchedulerBase.obj
 0001:00026168       ??0locale@std@@QEAA@W4_Uninitialized@1@@Z 0000000140027168 f i libcpmt:locale0.obj
 0001:00026168       ??$move@AEAV?$basic_string@_WU?$char_traits@_W@std@@V?$allocator@_W@2@@std@@@std@@YA$$QEAV?$basic_string@_WU?$char_traits@_W@std@@V?$allocator@_W@2@@0@AEAV10@@Z 0000000140027168 f i libcpmt:wlocale.obj
 0001:00026168       ?get_address_of@?$__crt_unique_heap_ptr@PEADU__crt_internal_free_policy@@@@QEAAPEAPEAPEADXZ 0000000140027168 f i libucrt:argv_parsing.obj
 0001:00026168       ??$move@AEAV?$allocator@G@std@@@std@@YA$$QEAV?$allocator@G@0@AEAV10@@Z 0000000140027168 f i libcpmt:wlocale.obj
 0001:00026168       ?_Get_first@?$_Compressed_pair@V?$allocator@G@std@@V?$_String_val@U?$_Simple_types@G@std@@@2@$00@std@@QEBAAEBV?$allocator@G@2@XZ 0000000140027168 f i libcpmt:wlocale.obj
 0001:00026168       ??0?$allocator@_W@std@@QEAA@XZ 0000000140027168 f i libcpmt:syserror.obj
 0001:00026168       ??$_Unfancy@_W@std@@YAPEA_WPEA_W@Z 0000000140027168 f i libcpmt:syserror.obj
 0001:00026168       ?value@?$dual_state_global@P6AXPEB_W00I_K@Z@__crt_state_management@@QEAAAEAP6AXPEB_W00I_K@ZXZ 0000000140027168 f i libucrt:invalid_parameter.obj
 0001:00026168       ??0stl_condition_variable_interface@details@Concurrency@@QEAA@XZ 0000000140027168 f i libcpmt:cond.obj
 0001:00026168       ??$_Unfancy@G@std@@YAPEAGPEAG@Z 0000000140027168 f i libcpmt:wlocale.obj
 0001:00026168       ?_Get_second@?$_Compressed_pair@V?$allocator@D@std@@V?$_String_val@U?$_Simple_types@D@std@@@2@$00@std@@QEBAAEBV?$_String_val@U?$_Simple_types@D@std@@@2@XZ 0000000140027168 f i libcpmt:thread0.obj
 0001:00026168       ?dangerous_get_state_array@?$dual_state_global@PEAE@__crt_state_management@@QEAAPEAPEAEXZ 0000000140027168 f i libucrt:mbctype.obj
 0001:00026168       ??$addressof@$$CBV?$moneypunct@G$00@std@@@std@@YAPEBV?$moneypunct@G$00@0@AEBV10@@Z 0000000140027168 f i libcpmt:wlocale.obj
 0001:00026168       ??$forward@AEBQEA_W@std@@YAAEBQEA_WAEBQEA_W@Z 0000000140027168 f i libcpmt:syserror.obj
 0001:00026168       ?_Getal@?$_String_alloc@U?$_String_base_types@DV?$allocator@D@std@@@std@@@std@@QEBAAEBV?$allocator@D@2@XZ 0000000140027168 f i libcpmt:thread0.obj
 0001:00026168       ?debug_info@?$__crt_win32_buffer@_WU__crt_win32_buffer_public_dynamic_resizing@@@@QEBAAEBV__crt_win32_buffer_debug_info@@XZ 0000000140027168 f i libucrt:getcwd.obj
 0001:00026168       ?debug_info@?$__crt_win32_buffer@DU__crt_win32_buffer_internal_dynamic_resizing@@@@QEBAAEBV__crt_win32_buffer_empty_debug_info@@XZ 0000000140027168 f i libucrt:chdir.obj
 0001:00026168       ?value@?$dual_state_global@PEAU__crt_locale_data@@@__crt_state_management@@QEAAAEAPEAU__crt_locale_data@@XZ 0000000140027168 f i libucrt:wsetlocale.obj
 0001:00026168       ??$addressof@$$CBV?$moneypunct@G$0A@@std@@@std@@YAPEBV?$moneypunct@G$0A@@0@AEBV10@@Z 0000000140027168 f i libcpmt:wlocale.obj
 0001:00026168       ??$_Get_unwrapped_n@V?$ostreambuf_iterator@GU?$char_traits@G@std@@@std@@_J$0A@@std@@YAAEBV?$ostreambuf_iterator@GU?$char_traits@G@std@@@0@AEBV10@_J@Z 0000000140027168 f i libcpmt:wlocale.obj
 0001:00026168       ?_Get_data@?$_String_alloc@U?$_String_base_types@GV?$allocator@G@std@@@std@@@std@@QEAAAEAV?$_String_val@U?$_Simple_types@G@std@@@2@XZ 0000000140027168 f i libcpmt:wlocale.obj
 0001:00026168       ??$_Unfancy@D@std@@YAPEADPEAD@Z 0000000140027168 f i libcpmt:thread0.obj
 0001:00026168       ?native_handle@critical_section@Concurrency@@QEAAAEAV12@XZ 0000000140027168 f i libconcrt:rtlocks.obj
 0001:00026168       ??$addressof@PEAG@std@@YAPEAPEAGAEAPEAG@Z 0000000140027168 f i libcpmt:wlocale.obj
 0001:00026168       ??0_Bxty@?$_String_val@U?$_Simple_types@D@std@@@std@@QEAA@XZ 0000000140027168 f i libcpmt:thread0.obj
 0001:00026168       ??$_Get_unwrapped@D@std@@YAPEADQEAD@Z 0000000140027168 f i libcpmt:xlocale.obj
 0001:00026168       ??$forward@_N@std@@YA$$QEA_NAEA_N@Z 0000000140027168 f i libcpmt:excptptr.obj
 0001:00026168       ??$addressof@V?$basic_string@GU?$char_traits@G@std@@V?$allocator@G@2@@std@@@std@@YAPEAV?$basic_string@GU?$char_traits@G@std@@V?$allocator@G@2@@0@AEAV10@@Z 0000000140027168 f i libcpmt:wlocale.obj
 0001:00026168       ??D?$ostreambuf_iterator@_WU?$char_traits@_W@std@@@std@@QEAAAEAV01@XZ 0000000140027168 f i libcpmt:wlocale.obj
 0001:00026168       ??$move@AEAV?$allocator@D@std@@@std@@YA$$QEAV?$allocator@D@0@AEAV10@@Z 0000000140027168 f i libcpmt:thread0.obj
 0001:00026168       ??$?0U?$integral_constant@_N$00@std@@@_Unused_parameter@std@@QEAA@$$QEAU?$integral_constant@_N$00@1@@Z 0000000140027168 f i libcpmt:locale.obj
 0001:00026168       ?value@?$dual_state_global@H@__crt_state_management@@QEAAAEAHXZ 0000000140027168 f i libucrt:setmode.obj
 0001:00026168       ?value@?$dual_state_global@PEAPEAD@__crt_state_management@@QEAAAEAPEAPEADXZ 0000000140027168 f i libucrt:environment_initialization.obj
 0001:00026168       ??0DefaultWaiterPool@platform@details@Concurrency@@QEAA@XZ 0000000140027168 f i libconcrt:Platform.obj
 0001:00026168       ??$move@AEAV?$allocator@_W@std@@@std@@YA$$QEAV?$allocator@_W@0@AEAV10@@Z 0000000140027168 f i libcpmt:wlocale.obj
 0001:00026168       ?_Get_second@?$_Compressed_pair@V?$allocator@_W@std@@V?$_String_val@U?$_Simple_types@_W@std@@@2@$00@std@@QEBAAEBV?$_String_val@U?$_Simple_types@_W@std@@@2@XZ 0000000140027168 f i libcpmt:syserror.obj
 0001:00026168       ??0?$allocator@D@std@@QEAA@XZ 0000000140027168 f i libcpmt:thread0.obj
 0001:00026168       ??$move@AEAV?$shared_ptr@V__ExceptionPtr@@@std@@@std@@YA$$QEAV?$shared_ptr@V__ExceptionPtr@@@0@AEAV10@@Z 0000000140027168 f i libcpmt:excptptr.obj
 0001:00026168       ??0__crt_win32_buffer_debug_info@@QEAA@HPEBDH@Z 0000000140027168 f i libucrt:getcwd.obj
 0001:00026168       ?dangerous_get_state_array@?$dual_state_global@PEAPEAD@__crt_state_management@@QEAAPEAPEAPEADXZ 0000000140027168 f i libucrt:timeset.obj
 0001:00026168       ??$_Get_size_of_n@$00@std@@YA_K_K@Z 0000000140027168 f i libcpmt:thread0.obj
 0001:00026168       ?_Get_second@?$_Compressed_pair@V?$allocator@_W@std@@V?$_String_val@U?$_Simple_types@_W@std@@@2@$00@std@@QEAAAEAV?$_String_val@U?$_Simple_types@_W@std@@@2@XZ 0000000140027168 f i libcpmt:syserror.obj
 0001:00026168       ?select_on_container_copy_construction@?$_Default_allocator_traits@V?$allocator@_W@std@@@std@@SA?AV?$allocator@_W@2@AEBV32@@Z 0000000140027168 f i libcpmt:wlocale.obj
 0001:00026168       ?_Get_first@?$_Compressed_pair@V?$allocator@D@std@@V?$_String_val@U?$_Simple_types@D@std@@@2@$00@std@@QEAAAEAV?$allocator@D@2@XZ 0000000140027168 f i libcpmt:thread0.obj
 0001:00026168       ??$_Refancy@PEAD$0A@@std@@YAPEADPEAD@Z 0000000140027168 f i libcpmt:xlocale.obj
 0001:00026168       ??0?$allocator@G@std@@QEAA@XZ 0000000140027168 f i libcpmt:wlocale.obj
 0001:00026168       ??$addressof@V?$_String_val@U?$_Simple_types@D@std@@@std@@@std@@YAPEAV?$_String_val@U?$_Simple_types@D@std@@@0@AEAV10@@Z 0000000140027168 f i libcpmt:thread0.obj
 0001:00026168       ?value@?$dual_state_global@PEAPEA_W@__crt_state_management@@QEAAAEAPEAPEA_WXZ 0000000140027168 f i libucrt:environment_initialization.obj
 0001:00026168       ??E?$ostreambuf_iterator@DU?$char_traits@D@std@@@std@@QEAAAEAV01@XZ 0000000140027168 f i libcpmt:locale.obj
 0001:0002616c       ??0stl_condition_variable_vista@details@Concurrency@@QEAA@XZ 000000014002716c f i libcpmt:cond.obj
 0001:00026194       ??0stl_condition_variable_win7@details@Concurrency@@QEAA@XZ 0000000140027194 f i libcpmt:cond.obj
 0001:000261bc       ??1GlobalCore@details@Concurrency@@QEAA@XZ 00000001400271bc f i libcpmt:cond.obj
 0001:000261cc       ??2@YAPEAX_KPEAX@Z         00000001400271cc f i libcpmt:cond.obj
 0001:000261cc       ?ToInternalContext@VirtualProcessor@details@Concurrency@@MEAAPEAVInternalContextBase@23@PEAUIExecutionContext@3@@Z 00000001400271cc f i libconcrt:VirtualProcessor.obj
 0001:000261d0       ??_EGlobalCore@details@Concurrency@@QEAAPEAXI@Z 00000001400271d0 f i libcpmt:cond.obj
 0001:00026268       ??_G_Condition_variable@details@Concurrency@@QEAAPEAXI@Z 0000000140027268 f i libcpmt:cond.obj
 0001:0002629c       ??_H@YAXPEAX_K1P6APEAX0@Z@Z 000000014002729c f i libcpmt:cond.obj
 0001:000262ec       ?_Orphan_all@?$_String_alloc@U?$_String_base_types@GV?$allocator@G@std@@@std@@@std@@QEAAXXZ 00000001400272ec f i libcpmt:wlocale.obj
 0001:000262ec       ?_Init@?$num_get@GV?$istreambuf_iterator@GU?$char_traits@G@std@@@std@@@std@@IEAAXAEBV_Locinfo@2@@Z 00000001400272ec f i libcpmt:wlocale.obj
 0001:000262ec       ??$_Adl_verify_range@PEA_WPEA_W@std@@YAXAEBQEA_W0@Z 00000001400272ec f i libcpmt:wlocale.obj
 0001:000262ec       ?DeleteKey@?$Hash@PEAV_TaskCollection@details@Concurrency@@PEAV123@@details@Concurrency@@CAXAEAPEAV_TaskCollection@23@@Z 00000001400272ec f i libconcrt:ContextBase.obj
 0001:000262ec       ??1_ContextCallback@details@Concurrency@@QEAA@XZ 00000001400272ec f i libcpmt:ppltasks.obj
 0001:000262ec       ?NotifyResourcesExternallyBusy@UMSThreadScheduler@details@Concurrency@@UEAAXPEAPEAUIVirtualProcessorRoot@3@I@Z 00000001400272ec f i libconcrt:UMSThreadScheduler.obj
 0001:000262ec       ??1?$_Ref_count_obj@V__ExceptionPtr@@@std@@UEAA@XZ 00000001400272ec f i libcpmt:excptptr.obj
 0001:000262ec       ?_Init@?$codecvt@DDU_Mbstatet@@@std@@IEAAXAEBV_Locinfo@2@@Z 00000001400272ec f i libcpmt:locale.obj
 0001:000262ec       ?_Adopt@_Iterator_base0@std@@QEAAXPEBX@Z 00000001400272ec f i libcpmt:filesys.obj
 0001:000262ec       ?__empty_global_delete@@YAXPEAX@Z 00000001400272ec f i libcpmt:cond.obj
 0001:000262ec       ??$_Adl_verify_range@PEBDPEBD@std@@YAXAEBQEBD0@Z 00000001400272ec f i libcpmt:locale.obj
 0001:000262ec       _initialize_denormal_control 00000001400272ec f i LIBCMT:denormal_control.obj
 0001:000262ec       ?_Compat@?$_String_const_iterator@V?$_String_val@U?$_Simple_types@D@std@@@std@@@std@@QEBAXAEBV12@@Z 00000001400272ec f i libcpmt:xlocale.obj
 0001:000262ec       ??$_Pocma@V?$allocator@_W@std@@@std@@YAXAEAV?$allocator@_W@0@0U?$integral_constant@_N$00@0@@Z 00000001400272ec f i libcpmt:wlocale.obj
 0001:000262ec       ??1?$_Compressed_pair@V?$allocator@G@std@@V?$_String_val@U?$_Simple_types@G@std@@@2@$00@std@@QEAA@XZ 00000001400272ec f i libcpmt:wlocale.obj
 0001:000262ec       ??$_Adl_verify_range@PEADPEAD@std@@YAXAEBQEAD0@Z 00000001400272ec f i libcpmt:wlocale.obj
 0001:000262ec       ?InitializeUtilityRoutines@details@Concurrency@@YAXXZ 00000001400272ec f i libconcrt:utils.obj
 0001:000262ec       ?_Compat@?$_String_const_iterator@V?$_String_val@U?$_Simple_types@_W@std@@@std@@@std@@QEBAXAEBV12@@Z 00000001400272ec f i libcpmt:wlocale.obj
 0001:000262ec       ?deallocate@?$_StaticAllocator@V?$_Ref_count_obj_alloc@V__ExceptionPtr@@U?$_StaticAllocator@H@@@std@@@@QEBAXPEAV?$_Ref_count_obj_alloc@V__ExceptionPtr@@U?$_StaticAllocator@H@@@std@@_K@Z 00000001400272ec f i libcpmt:excptptr.obj
 0001:000262ec       ?deallocate@__crt_win32_buffer_no_resizing@@SAXQEAXAEBV__crt_win32_buffer_empty_debug_info@@@Z 00000001400272ec f i libucrt:getcwd.obj
 0001:000262ec       ?__empty_global_delete@@YAXPEAX_KW4align_val_t@std@@@Z 00000001400272ec f i libcpmt:cond.obj
 0001:000262ec       ??$_Pocma@V?$allocator@_W@std@@@std@@YAXAEAV?$allocator@_W@0@0@Z 00000001400272ec f i libcpmt:wlocale.obj
 0001:000262ec       ?Cleanup@SchedulingNode@details@Concurrency@@AEAAXXZ 00000001400272ec f i libconcrt:SchedulingNode.obj
 0001:000262ec       ?_LogTaskExecutionCompleted@_TaskEventLogger@details@Concurrency@@QEAAXXZ 00000001400272ec f i libcpmt:ppltasks.obj
 0001:000262ec       ?_Init@?$num_get@_WV?$istreambuf_iterator@_WU?$char_traits@_W@std@@@std@@@std@@IEAAXAEBV_Locinfo@2@@Z 00000001400272ec f i libcpmt:wlocale.obj
 0001:000262ec       ??$_Adl_verify_range@PEBGPEBG@std@@YAXAEBQEBG0@Z 00000001400272ec f i libcpmt:wlocale.obj
 0001:000262ec       ?_Capture@_ContextCallback@details@Concurrency@@AEAAXXZ 00000001400272ec f i libcpmt:ppltasks.obj
 0001:000262ec       ??$destroy@PEAG@?$_Default_allocator_traits@V?$allocator@G@std@@@std@@SAXAEAV?$allocator@G@1@QEAPEAG@Z 00000001400272ec f i libcpmt:wlocale.obj
 0001:000262ec       ?_Compat@?$_String_const_iterator@V?$_String_val@U?$_Simple_types@G@std@@@std@@@std@@QEBAXAEBV12@@Z 00000001400272ec f i libcpmt:wlocale.obj
 0001:000262ec       ??$_Pocma@V?$allocator@G@std@@@std@@YAXAEAV?$allocator@G@0@0@Z 00000001400272ec f i libcpmt:wlocale.obj
 0001:000262ec       ?_Init@?$num_get@DV?$istreambuf_iterator@DU?$char_traits@D@std@@@std@@@std@@IEAAXAEBV_Locinfo@2@@Z 00000001400272ec f i libcpmt:locale.obj
 0001:000262ec       ??$_Deallocate_plain@U?$_StaticAllocator@V?$_Ref_count_obj_alloc@V__ExceptionPtr@@U?$_StaticAllocator@H@@@std@@@@$0A@@std@@YAXAEAU?$_StaticAllocator@V?$_Ref_count_obj_alloc@V__ExceptionPtr@@U?$_StaticAllocator@H@@@std@@@@QEAV?$_Ref_count_obj_alloc@V__ExceptionPtr@@U?$_StaticAllocator@H@@@0@@Z 00000001400272ec f i libcpmt:excptptr.obj
 0001:000262ec       ?VirtualProcessorActiveNotification@SchedulerBase@details@Concurrency@@MEAAX_NJ@Z 00000001400272ec f i libconcrt:SchedulerBase.obj
 0001:000262ec       ?NotifyAffinitizedWork@FairScheduleGroupSegment@details@Concurrency@@UEAAXXZ 00000001400272ec f i libconcrt:SchedulerBase.obj
 0001:000262ec       ?CompletedTransmogrification@TransmogrifiedPrimary@details@Concurrency@@MEAAXXZ 00000001400272ec f i libconcrt:TransmogrifiedPrimary.obj
 0001:000262ec       ?CreateNodeTopology@ResourceManager@details@Concurrency@@UEAAXIPEAIPEAPEAI0@Z 00000001400272ec f i libconcrt:ResourceManager.obj
 0001:000262ec       ?_Assign@_ContextCallback@details@Concurrency@@AEAAXPEAX@Z 00000001400272ec f i libcpmt:ppltasks.obj
 0001:000262ec       ?RMAwaken@InternalContextBase@details@Concurrency@@EEAAXXZ 00000001400272ec f i libconcrt:InternalContextBase.obj
 0001:000262ec       ?_LogTaskCompleted@_TaskEventLogger@details@Concurrency@@QEAAXXZ 00000001400272ec f i libcpmt:ppltasks.obj
 0001:000262ec       ?_Init@?$messages@G@std@@IEAAXAEBV_Locinfo@2@@Z 00000001400272ec f i libcpmt:wlocale.obj
 0001:000262ec       ?Increment@NoCount@CollectionTypes@details@Concurrency@@SAXXZ 00000001400272ec f i libconcrt:SchedulerBase.obj
 0001:000262ec       ?_LogWorkItemStarted@_TaskEventLogger@details@Concurrency@@QEAAXXZ 00000001400272ec f i libcpmt:ppltasks.obj
 0001:000262ec       ?Destroy@WaitAnyBlock@details@Concurrency@@UEAAXXZ 00000001400272ec f i libconcrt:event.obj
 0001:000262ec       ??$_Adl_verify_range@V?$istreambuf_iterator@_WU?$char_traits@_W@std@@@std@@V12@@std@@YAXAEBV?$istreambuf_iterator@_WU?$char_traits@_W@std@@@0@0@Z 00000001400272ec f i libcpmt:wlocale.obj
 0001:000262ec       ?_DebugAcquire@_NonReentrantLock@details@Concurrency@@AEAAXXZ 00000001400272ec f i libconcrt:rtlocks.obj
 0001:000262ec       ?_Init@?$money_get@DV?$istreambuf_iterator@DU?$char_traits@D@std@@@std@@@std@@IEAAXAEBV_Locinfo@2@@Z 00000001400272ec f i libcpmt:xlocale.obj
 0001:000262ec       ?do_close@?$messages@_W@std@@MEBAXH@Z 00000001400272ec f i libcpmt:wlocale.obj
 0001:000262ec       ??1_Bxty@?$_String_val@U?$_Simple_types@G@std@@@std@@QEAA@XZ 00000001400272ec f i libcpmt:wlocale.obj
 0001:000262ec       ?_Check_memory_order@std@@YAXW4memory_order@1@@Z 00000001400272ec f i libconcrt:TaskCollection.obj
 0001:000262ec       ?_Init@?$money_put@_WV?$ostreambuf_iterator@_WU?$char_traits@_W@std@@@std@@@std@@IEAAXAEBV_Locinfo@2@@Z 00000001400272ec f i libcpmt:wlocale.obj
 0001:000262ec       ??$destroy@PEAD@?$_Default_allocator_traits@V?$allocator@D@std@@@std@@SAXAEAV?$allocator@D@1@QEAPEAD@Z 00000001400272ec f i libcpmt:thread0.obj
 0001:000262ec       _guard_check_icall_nop     00000001400272ec f i LIBCMT:guard_support.obj
 0001:000262ec       ??1critical_section@Concurrency@@QEAA@XZ 00000001400272ec f i libconcrt:rtlocks.obj
 0001:000262ec       ?_LogCancelTask@_TaskEventLogger@details@Concurrency@@QEAAXXZ 00000001400272ec f i libcpmt:ppltasks.obj
 0001:000262ec       ?_LogWorkItemCompleted@_TaskEventLogger@details@Concurrency@@QEAAXXZ 00000001400272ec f i libcpmt:ppltasks.obj
 0001:000262ec       ??$_Enable_shared_from_this@V__ExceptionPtr@@V1@@std@@YAXAEBV?$shared_ptr@V__ExceptionPtr@@@0@PEAV__ExceptionPtr@@@Z 00000001400272ec f i libcpmt:excptptr.obj
 0001:000262ec       ?_Init@?$messages@D@std@@IEAAXAEBV_Locinfo@2@@Z 00000001400272ec f i libcpmt:xlocale.obj
 0001:000262ec       ?do_close@?$messages@G@std@@MEBAXH@Z 00000001400272ec f i libcpmt:wlocale.obj
 0001:000262ec       ?destroy@stl_condition_variable_vista@details@Concurrency@@UEAAXXZ 00000001400272ec f i libcpmt:cond.obj
 0001:000262ec       ?ValidateDRMSchedulerState@ResourceManager@details@Concurrency@@AEAAXXZ 00000001400272ec f i libconcrt:ResourceManager.obj
 0001:000262ec       ?ValidateBorrowedCores@ResourceManager@details@Concurrency@@AEAAXXZ 00000001400272ec f i libconcrt:ResourceManager.obj
 0001:000262ec       ?DeleteKey@?$Hash@II@details@Concurrency@@CAXAEAI@Z 00000001400272ec f i libconcrt:SchedulerBase.obj
 0001:000262ec       ?_Move_alloc@?$_String_alloc@U?$_String_base_types@_WV?$allocator@_W@std@@@std@@@std@@QEAAXAEAV?$allocator@_W@2@@Z 00000001400272ec f i libcpmt:wlocale.obj
 0001:000262ec       ??1?$__crt_simd_cleanup_guard@$0A@@@QEAA@XZ 00000001400272ec f i libucrt:strnlen.obj
 0001:000262ec       ?_Init@?$messages@_W@std@@IEAAXAEBV_Locinfo@2@@Z 00000001400272ec f i libcpmt:wlocale.obj
 0001:000262ec       ?_Init@?$num_put@_WV?$ostreambuf_iterator@_WU?$char_traits@_W@std@@@std@@@std@@IEAAXAEBV_Locinfo@2@@Z 00000001400272ec f i libcpmt:wlocale.obj
 0001:000262ec       _initialize_invalid_parameter_handler 00000001400272ec f i LIBCMT:invalid_parameter_handler.obj
 0001:000262ec       ??1?$_String_alloc@U?$_String_base_types@GV?$allocator@G@std@@@std@@@std@@QEAA@XZ 00000001400272ec f i libcpmt:wlocale.obj
 0001:000262ec       ??1?$_String_val@U?$_Simple_types@D@std@@@std@@QEAA@XZ 00000001400272ec f i libcpmt:thread0.obj
 0001:000262ec       ??1?$_Ref_count_obj_alloc@V__ExceptionPtr@@U?$_StaticAllocator@H@@@std@@UEAA@XZ 00000001400272ec f i libcpmt:excptptr.obj
 0001:000262ec       ??$_Adl_verify_range@V?$istreambuf_iterator@GU?$char_traits@G@std@@@std@@V12@@std@@YAXAEBV?$istreambuf_iterator@GU?$char_traits@G@std@@@0@0@Z 00000001400272ec f i libcpmt:wlocale.obj
 0001:000262ec       ?NotifyResourcesExternallyBusy@ThreadScheduler@details@Concurrency@@UEAAXPEAPEAUIVirtualProcessorRoot@3@I@Z 00000001400272ec f i libconcrt:ThreadScheduler.obj
 0001:000262ec       ?_Orphan_all@_Container_base0@std@@QEAAXXZ 00000001400272ec f i libcpmt:thread0.obj
 0001:000262ec       ??1location@Concurrency@@QEAA@XZ 00000001400272ec f i libconcrt:SchedulerBase.obj
 0001:000262ec       ?_Init@?$num_put@DV?$ostreambuf_iterator@DU?$char_traits@D@std@@@std@@@std@@IEAAXAEBV_Locinfo@2@@Z 00000001400272ec f i libcpmt:locale.obj
 0001:000262ec       ??1?$LockFreePushStack@VContextNode@SchedulerBase@details@Concurrency@@@details@Concurrency@@QEAA@XZ 00000001400272ec f i libconcrt:SchedulerBase.obj
 0001:000262ec       ?_Reset@_ContextCallback@details@Concurrency@@AEAAXXZ 00000001400272ec f i libcpmt:ppltasks.obj
 0001:000262ec       ?_Init@?$money_get@_WV?$istreambuf_iterator@_WU?$char_traits@_W@std@@@std@@@std@@IEAAXAEBV_Locinfo@2@@Z 00000001400272ec f i libcpmt:wlocale.obj
 0001:000262ec       ?ValidateStaticSchedulerState@ResourceManager@details@Concurrency@@AEAAXPEAVSchedulerProxy@23@@Z 00000001400272ec f i libconcrt:ResourceManager.obj
 0001:000262ec       ?Decrement@NoCount@CollectionTypes@details@Concurrency@@SAXXZ 00000001400272ec f i libconcrt:SchedulerBase.obj
 0001:000262ec       ?NotifyResourcesExternallyIdle@ThreadScheduler@details@Concurrency@@UEAAXPEAPEAUIVirtualProcessorRoot@3@I@Z 00000001400272ec f i libconcrt:ThreadScheduler.obj
 0001:000262ec       ??$_Pocma@V?$allocator@D@std@@@std@@YAXAEAV?$allocator@D@0@0U?$integral_constant@_N$00@0@@Z 00000001400272ec f i libcpmt:locale.obj
 0001:000262ec       ?destroy@stl_critical_section_win7@details@Concurrency@@UEAAXXZ 00000001400272ec f i libcpmt:mutex.obj
 0001:000262ec       ??1?$_String_val@U?$_Simple_types@_W@std@@@std@@QEAA@XZ 00000001400272ec f i libcpmt:syserror.obj
 0001:000262ec       ?do_close@?$messages@D@std@@MEBAXH@Z 00000001400272ec f i libcpmt:xlocale.obj
 0001:000262ec       ??1_Ref_count_base@std@@UEAA@XZ 00000001400272ec f i libcpmt:excptptr.obj
 0001:000262ec       ??$_Adl_verify_range@PEAGPEAG@std@@YAXAEBQEAG0@Z 00000001400272ec f i libcpmt:wlocale.obj
 0001:000262ec       ?DeleteValue@?$Hash@II@details@Concurrency@@CAXAEAI@Z 00000001400272ec f i libconcrt:SchedulerBase.obj
 0001:000262ec       ??$_Pocma@V?$allocator@D@std@@@std@@YAXAEAV?$allocator@D@0@0@Z 00000001400272ec f i libcpmt:locale.obj
 0001:000262ec       ?deallocate@?$_Normal_allocator_traits@U?$_StaticAllocator@V?$_Ref_count_obj_alloc@V__ExceptionPtr@@U?$_StaticAllocator@H@@@std@@@@@std@@SAXAEAU?$_StaticAllocator@V?$_Ref_count_obj_alloc@V__ExceptionPtr@@U?$_StaticAllocator@H@@@std@@@@PEAV?$_Ref_count_obj_alloc@V__ExceptionPtr@@U?$_StaticAllocator@H@@@2@_K@Z 00000001400272ec f i libcpmt:excptptr.obj
 0001:000262ec       ??1_Bxty@?$_String_val@U?$_Simple_types@D@std@@@std@@QEAA@XZ 00000001400272ec f i libcpmt:thread0.obj
 0001:000262ec       ??1?$_Compressed_pair@V?$allocator@D@std@@V?$_String_val@U?$_Simple_types@D@std@@@2@$00@std@@QEAA@XZ 00000001400272ec f i libcpmt:thread0.obj
 0001:000262ec       ?DeleteValue@?$Hash@PEAV_TaskCollection@details@Concurrency@@PEAV123@@details@Concurrency@@CAXAEAPEAV_TaskCollection@23@@Z 00000001400272ec f i libconcrt:ContextBase.obj
 0001:000262ec       ?_Move_alloc@?$_String_alloc@U?$_String_base_types@DV?$allocator@D@std@@@std@@@std@@QEAAXAEAV?$allocator@D@2@@Z 00000001400272ec f i libcpmt:locale.obj
 0001:000262ec       ??1_Generic_error_category@std@@UEAA@XZ 00000001400272ec f i libcpmt:thread0.obj
 0001:000262ec       ??1scoped_global_state_reset@__crt_state_management@@QEAA@XZ 00000001400272ec f i libucrt:onexit.obj
 0001:000262ec       ?_Init@?$money_put@DV?$ostreambuf_iterator@DU?$char_traits@D@std@@@std@@@std@@IEAAXAEBV_Locinfo@2@@Z 00000001400272ec f i libcpmt:xlocale.obj
 0001:000262ec       ??$_Adl_verify_range@V?$istreambuf_iterator@DU?$char_traits@D@std@@@std@@V12@@std@@YAXAEBV?$istreambuf_iterator@DU?$char_traits@D@std@@@0@0@Z 00000001400272ec f i libcpmt:locale.obj
 0001:000262ec       ??$_Enable_shared_from_this1@V__ExceptionPtr@@V1@@std@@YAXAEBV?$shared_ptr@V__ExceptionPtr@@@0@PEAV__ExceptionPtr@@U?$integral_constant@_N$0A@@0@@Z 00000001400272ec f i libcpmt:excptptr.obj
 0001:000262ec       ??$destroy@PEA_W@?$_Default_allocator_traits@V?$allocator@_W@std@@@std@@SAXAEAV?$allocator@_W@1@QEAPEA_W@Z 00000001400272ec f i libcpmt:syserror.obj
 0001:000262ec       ?_LogScheduleTask@_TaskEventLogger@details@Concurrency@@QEAAX_N@Z 00000001400272ec f i libcpmt:ppltasks.obj
 0001:000262ec       ?__empty_global_delete@@YAXPEAX_K@Z 00000001400272ec f i libcpmt:cond.obj
 0001:000262ec       ?_Init@?$money_put@GV?$ostreambuf_iterator@GU?$char_traits@G@std@@@std@@@std@@IEAAXAEBV_Locinfo@2@@Z 00000001400272ec f i libcpmt:wlocale.obj
 0001:000262ec       ??1_System_error_category@std@@UEAA@XZ 00000001400272ec f i libcpmt:xonce.obj
 0001:000262ec       ?_Move_alloc@?$_String_alloc@U?$_String_base_types@GV?$allocator@G@std@@@std@@@std@@QEAAXAEAV?$allocator@G@2@@Z 00000001400272ec f i libcpmt:wlocale.obj
 0001:000262ec       ?destroy@stl_condition_variable_win7@details@Concurrency@@UEAAXXZ 00000001400272ec f i libcpmt:cond.obj
 0001:000262ec       ??1?$_String_val@U?$_Simple_types@G@std@@@std@@QEAA@XZ 00000001400272ec f i libcpmt:wlocale.obj
 0001:000262ec       ??1_Bxty@?$_String_val@U?$_Simple_types@_W@std@@@std@@QEAA@XZ 00000001400272ec f i libcpmt:syserror.obj
 0001:000262ec       ??$_Adl_verify_range@PEB_WPEB_W@std@@YAXAEBQEB_W0@Z 00000001400272ec f i libcpmt:wlocale.obj
 0001:000262ec       ?_Init@?$num_put@GV?$ostreambuf_iterator@GU?$char_traits@G@std@@@std@@@std@@IEAAXAEBV_Locinfo@2@@Z 00000001400272ec f i libcpmt:wlocale.obj
 0001:000262ec       ??$_Pocma@V?$allocator@G@std@@@std@@YAXAEAV?$allocator@G@0@0U?$integral_constant@_N$00@0@@Z 00000001400272ec f i libcpmt:wlocale.obj
 0001:000262ec       ?_Check_load_memory_order@std@@YAXW4memory_order@1@@Z 00000001400272ec f i libconcrt:TaskCollection.obj
 0001:000262ec       ??1reader_writer_lock@Concurrency@@QEAA@XZ 00000001400272ec f i libconcrt:rtlocks.obj
 0001:000262ec       ??1error_category@std@@UEAA@XZ 00000001400272ec f i libcpmt:thread0.obj
 0001:000262ec       ?NotifyResourcesExternallyIdle@UMSThreadScheduler@details@Concurrency@@UEAAXPEAPEAUIVirtualProcessorRoot@3@I@Z 00000001400272ec f i libconcrt:UMSThreadScheduler.obj
 0001:000262ec       ?_Init@?$money_get@GV?$istreambuf_iterator@GU?$char_traits@G@std@@@std@@@std@@IEAAXAEBV_Locinfo@2@@Z 00000001400272ec f i libcpmt:wlocale.obj
 0001:000262ec       ?__empty_global_delete@@YAXPEAXW4align_val_t@std@@@Z 00000001400272ec f i libcpmt:cond.obj
 0001:000262ec       ??1?$_Compressed_pair@V?$allocator@_W@std@@V?$_String_val@U?$_Simple_types@_W@std@@@2@$00@std@@QEAA@XZ 00000001400272ec f i libcpmt:syserror.obj
 0001:000262f0       ?are_vista_sync_apis_available@details@Concurrency@@YA_NXZ 00000001400272f0 f i libcpmt:cond.obj
 0001:00026304       ?are_win7_sync_apis_available@details@Concurrency@@YA_NXZ 0000000140027304 f i libcpmt:cond.obj
 0001:00026318       ?create_stl_condition_variable@details@Concurrency@@YAXPEAVstl_condition_variable_interface@12@@Z 0000000140027318 f i libcpmt:cond.obj
 0001:0002637c       ?destroy@stl_condition_variable_concrt@details@Concurrency@@UEAAXXZ 000000014002737c f i libcpmt:cond.obj
 0001:00026494       _Mtx_getconcrtcs           0000000140027494 f i libcpmt:mutex.obj
 0001:00026494       ?native_handle@stl_critical_section_vista@details@Concurrency@@QEAAPEAU_RTL_CRITICAL_SECTION@@XZ 0000000140027494 f i libcpmt:cond.obj
 0001:00026494       ?_get_cs@_Mtx_internal_imp_t@@QEAAPEAVstl_critical_section_interface@details@Concurrency@@XZ 0000000140027494 f i libcpmt:mutex.obj
 0001:00026494       ?native_handle@stl_critical_section_win7@details@Concurrency@@QEAAPEAU_RTL_SRWLOCK@@XZ 0000000140027494 f i libcpmt:cond.obj
 0001:00026494       ?native_handle@stl_critical_section_concrt@details@Concurrency@@QEAAAEAVcritical_section@3@XZ 0000000140027494 f i libcpmt:cond.obj
 0001:00026494       ?GetLocaleT@_LocaleUpdate@@QEAAPEAU__crt_locale_pointers@@XZ 0000000140027494 f i libucrt:output.obj
 0001:0002649c       ?notify_all@stl_condition_variable_concrt@details@Concurrency@@UEAAXXZ 000000014002749c f i libcpmt:cond.obj
 0001:000264a8       ?notify_all@stl_condition_variable_vista@details@Concurrency@@UEAAXXZ 00000001400274a8 f i libcpmt:cond.obj
 0001:000264a8       ?notify_all@stl_condition_variable_win7@details@Concurrency@@UEAAXXZ 00000001400274a8 f i libcpmt:cond.obj
 0001:000264b4       ?notify_one@stl_condition_variable_concrt@details@Concurrency@@UEAAXXZ 00000001400274b4 f i libcpmt:cond.obj
 0001:000264c0       ?notify_one@stl_condition_variable_win7@details@Concurrency@@UEAAXXZ 00000001400274c0 f i libcpmt:cond.obj
 0001:000264c0       ?notify_one@stl_condition_variable_vista@details@Concurrency@@UEAAXXZ 00000001400274c0 f i libcpmt:cond.obj
 0001:000264cc       ?wait@stl_condition_variable_concrt@details@Concurrency@@UEAAXPEAVstl_critical_section_interface@23@@Z 00000001400274cc f i libcpmt:cond.obj
 0001:000264dc       ?wait@stl_condition_variable_vista@details@Concurrency@@UEAAXPEAVstl_critical_section_interface@23@@Z 00000001400274dc f i libcpmt:cond.obj
 0001:00026500       ?wait@stl_condition_variable_win7@details@Concurrency@@UEAAXPEAVstl_critical_section_interface@23@@Z 0000000140027500 f i libcpmt:cond.obj
 0001:00026528       ?wait_for@stl_condition_variable_concrt@details@Concurrency@@UEAA_NPEAVstl_critical_section_interface@23@I@Z 0000000140027528 f i libcpmt:cond.obj
 0001:00026538       ?wait_for@stl_condition_variable_vista@details@Concurrency@@UEAA_NPEAVstl_critical_section_interface@23@I@Z 0000000140027538 f i libcpmt:cond.obj
 0001:00026554       ?wait_for@stl_condition_variable_win7@details@Concurrency@@UEAA_NPEAVstl_critical_section_interface@23@I@Z 0000000140027554 f i libcpmt:cond.obj
 0001:00026574       _Cnd_broadcast             0000000140027574 f   libcpmt:cond.obj
 0001:0002658c       _Cnd_destroy               000000014002758c f   libcpmt:cond.obj
 0001:000265b4       ?is@?$ctype@G@std@@QEBA_NFG@Z 00000001400275b4 f   libcpmt:wlocale.obj
 0001:000265b4       ?thousands_sep@?$numpunct@_W@std@@QEBA_WXZ 00000001400275b4 f   libcpmt:wlocale.obj
 0001:000265b4       _Cnd_destroy_in_situ       00000001400275b4 f   libcpmt:cond.obj
 0001:000265b4       ?thousands_sep@?$_Mpunct@_W@std@@QEBA_WXZ 00000001400275b4 f   libcpmt:wlocale.obj
 0001:000265b4       ?thousands_sep@?$_Mpunct@D@std@@QEBADXZ 00000001400275b4 f   libcpmt:xlocale.obj
 0001:000265b4       ?thousands_sep@?$numpunct@G@std@@QEBAGXZ 00000001400275b4 f   libcpmt:wlocale.obj
 0001:000265b4       ?thousands_sep@?$numpunct@D@std@@QEBADXZ 00000001400275b4 f   libcpmt:locale.obj
 0001:000265b4       ?thousands_sep@?$_Mpunct@G@std@@QEBAGXZ 00000001400275b4 f   libcpmt:wlocale.obj
 0001:000265b4       ?is@?$ctype@_W@std@@QEBA_NF_W@Z 00000001400275b4 f   libcpmt:wlocale.obj
 0001:000265c4       _Cnd_init                  00000001400275c4 f   libcpmt:cond.obj
 0001:00026608       _Cnd_init_in_situ          0000000140027608 f   libcpmt:cond.obj
 0001:00026610       _Cnd_signal                0000000140027610 f   libcpmt:cond.obj
 0001:00026628       _Cnd_timedwait             0000000140027628 f   libcpmt:cond.obj
 0001:00026630       _Cnd_wait                  0000000140027630 f   libcpmt:cond.obj
 0001:00026638       ??0stl_critical_section_concrt@details@Concurrency@@QEAA@XZ 0000000140027638 f i libcpmt:mutex.obj
 0001:00026660       ??0stl_critical_section_vista@details@Concurrency@@QEAA@XZ 0000000140027660 f i libcpmt:mutex.obj
 0001:00026690       ??0stl_critical_section_win7@details@Concurrency@@QEAA@XZ 0000000140027690 f i libcpmt:mutex.obj
 0001:000266b8       ??_Gcritical_section@Concurrency@@QEAAPEAXI@Z 00000001400276b8 f i libcpmt:mutex.obj
 0001:000266ec       ?create_stl_critical_section@details@Concurrency@@YAXPEAVstl_critical_section_interface@12@@Z 00000001400276ec f i libcpmt:mutex.obj
 0001:00026760       ?destroy@stl_critical_section_concrt@details@Concurrency@@UEAAXXZ 0000000140027760 f i libcpmt:mutex.obj
 0001:0002676c       ?destroy@stl_critical_section_vista@details@Concurrency@@UEAAXXZ 000000014002776c f i libcpmt:mutex.obj
 0001:00026778       ?lock@stl_critical_section_concrt@details@Concurrency@@UEAAXXZ 0000000140027778 f i libcpmt:mutex.obj
 0001:00026784       ?lock@stl_critical_section_vista@details@Concurrency@@UEAAXXZ 0000000140027784 f i libcpmt:mutex.obj
 0001:00026790       ?lock@stl_critical_section_win7@details@Concurrency@@UEAAXXZ 0000000140027790 f i libcpmt:mutex.obj
 0001:00026908       ?try_lock@stl_critical_section_concrt@details@Concurrency@@UEAA_NXZ 0000000140027908 f i libcpmt:mutex.obj
 0001:00026914       ?try_lock@stl_critical_section_vista@details@Concurrency@@UEAA_NXZ 0000000140027914 f i libcpmt:mutex.obj
 0001:0002692c       ?try_lock@stl_critical_section_win7@details@Concurrency@@UEAA_NXZ 000000014002792c f i libcpmt:mutex.obj
 0001:00026944       ?try_lock_for@stl_critical_section_concrt@details@Concurrency@@UEAA_NI@Z 0000000140027944 f i libcpmt:mutex.obj
 0001:00026950       ?try_lock_for@stl_critical_section_vista@details@Concurrency@@UEAA_NI@Z 0000000140027950 f i libcpmt:mutex.obj
 0001:00026968       ?try_lock_for@stl_critical_section_win7@details@Concurrency@@UEAA_NI@Z 0000000140027968 f i libcpmt:mutex.obj
 0001:00026980       ?unlock@stl_critical_section_concrt@details@Concurrency@@UEAAXXZ 0000000140027980 f i libcpmt:mutex.obj
 0001:0002698c       ?unlock@stl_critical_section_vista@details@Concurrency@@UEAAXXZ 000000014002798c f i libcpmt:mutex.obj
 0001:00026998       ?unlock@stl_critical_section_win7@details@Concurrency@@UEAAXXZ 0000000140027998 f i libcpmt:mutex.obj
 0001:000269a4       _Mtx_clear_owner           00000001400279a4 f   libcpmt:mutex.obj
 0001:000269ac       _Mtx_current_owns          00000001400279ac f   libcpmt:mutex.obj
 0001:000269e0       _Mtx_destroy               00000001400279e0 f   libcpmt:mutex.obj
 0001:00026a0c       _Mtx_destroy_in_situ       0000000140027a0c f   libcpmt:mutex.obj
 0001:00026a20       _Mtx_init                  0000000140027a20 f   libcpmt:mutex.obj
 0001:00026a74       _Mtx_init_in_situ          0000000140027a74 f   libcpmt:mutex.obj
 0001:00026aa4       _Mtx_lock                  0000000140027aa4 f   libcpmt:mutex.obj
 0001:00026aac       _Mtx_reset_owner           0000000140027aac f   libcpmt:mutex.obj
 0001:00026ac8       _Mtx_timedlock             0000000140027ac8 f   libcpmt:mutex.obj
 0001:00026ae4       _Mtx_trylock               0000000140027ae4 f   libcpmt:mutex.obj
 0001:00026b20       _Mtx_unlock                0000000140027b20 f   libcpmt:mutex.obj
 0001:00026b48       __set_stl_sync_api_mode    0000000140027b48 f   libcpmt:mutex.obj
 0001:00026b50       ??$?0$$V@?$_Compressed_pair@V?$allocator@D@std@@V?$_String_val@U?$_Simple_types@D@std@@@2@$00@std@@QEAA@U_Zero_then_variadic_args_t@1@@Z 0000000140027b50 f i libcpmt:thread0.obj
 0001:00026b50       ??$?0$$V@?$_Compressed_pair@V?$allocator@_W@std@@V?$_String_val@U?$_Simple_types@_W@std@@@2@$00@std@@QEAA@U_Zero_then_variadic_args_t@1@@Z 0000000140027b50 f i libcpmt:syserror.obj
 0001:00026b50       ??$?0V?$allocator@D@std@@X@?$_String_alloc@U?$_String_base_types@DV?$allocator@D@std@@@std@@@std@@QEAA@$$QEAV?$allocator@D@1@@Z 0000000140027b50 f i libcpmt:thread0.obj
 0001:00026b50       ??0?$_String_val@U?$_Simple_types@D@std@@@std@@QEAA@XZ 0000000140027b50 f i libcpmt:thread0.obj
 0001:00026b50       ??0?$_String_alloc@U?$_String_base_types@GV?$allocator@G@std@@@std@@@std@@QEAA@XZ 0000000140027b50 f i libcpmt:wlocale.obj
 0001:00026b50       ??$?0V?$allocator@D@std@@$$V@?$_Compressed_pair@V?$allocator@D@std@@V?$_String_val@U?$_Simple_types@D@std@@@2@$00@std@@QEAA@U_One_then_variadic_args_t@1@$$QEAV?$allocator@D@1@@Z 0000000140027b50 f i libcpmt:thread0.obj
 0001:00026b50       ??0?$_String_alloc@U?$_String_base_types@DV?$allocator@D@std@@@std@@@std@@QEAA@XZ 0000000140027b50 f i libcpmt:thread0.obj
 0001:00026b50       ??$?0V?$allocator@G@std@@$$V@?$_Compressed_pair@V?$allocator@G@std@@V?$_String_val@U?$_Simple_types@G@std@@@2@$00@std@@QEAA@U_One_then_variadic_args_t@1@$$QEAV?$allocator@G@1@@Z 0000000140027b50 f i libcpmt:wlocale.obj
 0001:00026b50       ??$?0$$V@?$_Compressed_pair@V?$allocator@G@std@@V?$_String_val@U?$_Simple_types@G@std@@@2@$00@std@@QEAA@U_Zero_then_variadic_args_t@1@@Z 0000000140027b50 f i libcpmt:wlocale.obj
 0001:00026b50       ??0?$_String_val@U?$_Simple_types@G@std@@@std@@QEAA@XZ 0000000140027b50 f i libcpmt:wlocale.obj
 0001:00026b50       ??$?0V?$allocator@G@std@@X@?$_String_alloc@U?$_String_base_types@GV?$allocator@G@std@@@std@@@std@@QEAA@$$QEAV?$allocator@G@1@@Z 0000000140027b50 f i libcpmt:wlocale.obj
 0001:00026b60       ??$_Max_value@_K@std@@YAAEB_KAEB_K0@Z 0000000140027b60 f i libcpmt:thread0.obj
 0001:00026e0c       ??0system_error@std@@QEAA@HAEBVerror_category@1@PEBD@Z 0000000140027e0c f i libcpmt:thread0.obj
 0001:00026ef0       ??1improper_lock@Concurrency@@UEAA@XZ 0000000140027ef0 f i libconcrt:rtlocks.obj
 0001:00026ef0       ??1invalid_scheduler_policy_key@Concurrency@@UEAA@XZ 0000000140027ef0 f i libconcrt:Exceptions.obj
 0001:00026ef0       ??1default_scheduler_exists@Concurrency@@UEAA@XZ 0000000140027ef0 f i libconcrt:SchedulerBase.obj
 0001:00026ef0       ??1nested_scheduler_missing_detach@Concurrency@@UEAA@XZ 0000000140027ef0 f i libconcrt:Exceptions.obj
 0001:00026ef0       ??1missing_wait@Concurrency@@UEAA@XZ 0000000140027ef0 f i libconcrt:Exceptions.obj
 0001:00026ef0       ??1scheduler_worker_creation_error@Concurrency@@UEAA@XZ 0000000140027ef0 f i libconcrt:Exceptions.obj
 0001:00026ef0       ??1bad_array_new_length@std@@UEAA@XZ 0000000140027ef0 f i LIBCMT:throw_bad_alloc.obj
 0001:00026ef0       ??1invalid_scheduler_policy_value@Concurrency@@UEAA@XZ 0000000140027ef0 f i libconcrt:Exceptions.obj
 0001:00026ef0       ??1invalid_argument@std@@UEAA@XZ 0000000140027ef0 f i libcpmt:xthrow.obj
 0001:00026ef0       ??1logic_error@std@@UEAA@XZ 0000000140027ef0 f i libcpmt:xthrow.obj
 0001:00026ef0       ??1regex_error@std@@UEAA@XZ 0000000140027ef0 f i libcpmt:xthrow.obj
 0001:00026ef0       ??1out_of_range@std@@UEAA@XZ 0000000140027ef0 f i libcpmt:xthrow.obj
 0001:00026ef0       ??1improper_scheduler_reference@Concurrency@@UEAA@XZ 0000000140027ef0 f i libconcrt:SchedulerBase.obj
 0001:00026ef0       ??1bad_alloc@std@@UEAA@XZ  0000000140027ef0 f i libcpmt:xthrow.obj
 0001:00026ef0       ??1invalid_scheduler_policy_thread_specification@Concurrency@@UEAA@XZ 0000000140027ef0 f i libconcrt:Exceptions.obj
 0001:00026ef0       ??1bad_exception@std@@UEAA@XZ 0000000140027ef0 f i libvcruntime:frame.obj
 0001:00026ef0       ??1scheduler_not_attached@Concurrency@@UEAA@XZ 0000000140027ef0 f i libconcrt:Exceptions.obj
 0001:00026ef0       ??1operation_timed_out@Concurrency@@UEAA@XZ 0000000140027ef0 f i libconcrt:Exceptions.obj
 0001:00026ef0       ??1invalid_link_target@Concurrency@@UEAA@XZ 0000000140027ef0 f i libconcrt:Exceptions.obj
 0001:00026ef0       ??1length_error@std@@UEAA@XZ 0000000140027ef0 f i libcpmt:xthrow.obj
 0001:00026ef0       ??1improper_scheduler_detach@Concurrency@@UEAA@XZ 0000000140027ef0 f i libconcrt:SchedulerBase.obj
 0001:00026ef0       ??1improper_scheduler_attach@Concurrency@@UEAA@XZ 0000000140027ef0 f i libconcrt:SchedulerBase.obj
 0001:00026ef0       ??1context_self_unblock@Concurrency@@UEAA@XZ 0000000140027ef0 f i libconcrt:Exceptions.obj
 0001:00026ef0       ??1bad_function_call@std@@UEAA@XZ 0000000140027ef0 f i libcpmt:xthrow.obj
 0001:00026ef0       ??1bad_target@Concurrency@@UEAA@XZ 0000000140027ef0 f i libconcrt:Exceptions.obj
 0001:00026ef0       ??1scheduler_resource_allocation_error@Concurrency@@UEAA@XZ 0000000140027ef0 f i libconcrt:Platform.obj
 0001:00026ef0       ??1message_not_found@Concurrency@@UEAA@XZ 0000000140027ef0 f i libconcrt:Exceptions.obj
 0001:00026ef0       ??1_System_error@std@@UEAA@XZ 0000000140027ef0 f i libcpmt:thread0.obj
 0001:00026ef0       ??1_Interruption_exception@details@Concurrency@@UEAA@XZ 0000000140027ef0 f i libconcrt:TaskCollection.obj
 0001:00026ef0       ??1invalid_operation@Concurrency@@UEAA@XZ 0000000140027ef0 f i libconcrt:ResourceManager.obj
 0001:00026ef0       ??1context_unblock_unbalanced@Concurrency@@UEAA@XZ 0000000140027ef0 f i libconcrt:Exceptions.obj
 0001:00026ef0       ??1__non_rtti_object@std@@UEAA@XZ 0000000140027ef0 f i libvcruntime:rtti.obj
 0001:00026ef0       ??1invalid_multiple_scheduling@Concurrency@@UEAA@XZ 0000000140027ef0 f i libconcrt:Exceptions.obj
 0001:00026ef0       ??1unsupported_os@Concurrency@@UEAA@XZ 0000000140027ef0 f i libconcrt:ResourceManager.obj
 0001:00026ef0       ??1system_error@std@@UEAA@XZ 0000000140027ef0 f i libcpmt:thread0.obj
 0001:00026ef0       ??1invalid_oversubscribe_operation@Concurrency@@UEAA@XZ 0000000140027ef0 f i libconcrt:Exceptions.obj
 0001:00026ef0       ??1overflow_error@std@@UEAA@XZ 0000000140027ef0 f i libcpmt:xthrow.obj
 0001:00026ef0       ??1bad_typeid@std@@UEAA@XZ 0000000140027ef0 f i libvcruntime:rtti.obj
 0001:00026f78       ?_Assign_rv_contents_with_alloc_always_equal@?$basic_string@DU?$char_traits@D@std@@V?$allocator@D@2@@std@@QEAAX$$QEAV12@U?$integral_constant@_N$00@2@@Z 0000000140027f78 f i libcpmt:thread0.obj
 0001:00026f78       ?_Assign_rv_contents@?$basic_string@DU?$char_traits@D@std@@V?$allocator@D@2@@std@@QEAAX$$QEAV12@U?$integral_constant@_N$00@2@@Z 0000000140027f78 f i libcpmt:locale.obj
 0001:00026f98       ?_Throw_C_error@std@@YAXH@Z 0000000140027f98 f   libcpmt:thread0.obj
 0001:00026fd4       ?_Throw_Cpp_error@std@@YAXH@Z 0000000140027fd4 f   libcpmt:thread0.obj
 0001:0002701c       ?_Tidy_deallocate@?$basic_string@DU?$char_traits@D@std@@V?$allocator@D@2@@std@@QEAAXXZ 000000014002801c f i libcpmt:thread0.obj
 0001:00027078       ?_Tidy_init@?$basic_string@DU?$char_traits@D@std@@V?$allocator@D@2@@std@@QEAAXXZ 0000000140028078 f i libcpmt:thread0.obj
 0001:0002708c       ?append@?$basic_string@DU?$char_traits@D@std@@V?$allocator@D@2@@std@@QEAAAEAV12@QEBD_K@Z 000000014002808c f i libcpmt:thread0.obj
 0001:00027104       ?assign@?$basic_string@DU?$char_traits@D@std@@V?$allocator@D@2@@std@@QEAAAEAV12@QEBD_K@Z 0000000140028104 f i libcpmt:thread0.obj
 0001:00027160       ?assign@?$char_traits@D@std@@SAXAEADAEBD@Z 0000000140028160 f i libcpmt:thread0.obj
 0001:00027168       ?GetScheduler@ScheduleGroupBase@details@Concurrency@@QEAAPEAVSchedulerBase@23@XZ 0000000140028168 f i libconcrt:ScheduleGroupBase.obj
 0001:00027168       ?category@error_code@std@@QEBAAEBVerror_category@2@XZ 0000000140028168 f i libcpmt:thread0.obj
 0001:00027168       ?GetSchedulingRing@SchedulingNode@details@Concurrency@@QEAAPEAVSchedulingRing@23@XZ 0000000140028168 f i libconcrt:VirtualProcessor.obj
 0001:00027168       ?GetOwningNode@SchedulingRing@details@Concurrency@@QEBAPEAVSchedulingNode@23@XZ 0000000140028168 f i libconcrt:ScheduleGroupBase.obj
 0001:00027168       ?GetScheduleGroupSegment@WorkItem@details@Concurrency@@QEBAPEAVScheduleGroupSegmentBase@23@XZ 0000000140028168 f i libconcrt:SearchAlgorithms.obj
 0001:00027168       ?category@error_condition@std@@QEBAAEBVerror_category@2@XZ 0000000140028168 f i libcpmt:thread0.obj
 0001:00027168       ?getpDC@TryBlockMap@__FrameHandler3@@QEAAPEAU_xDISPATCHER_CONTEXT@@XZ 0000000140028168 f i libvcruntime:risctrnsctrl.obj
 0001:00027170       ?length@?$char_traits@D@std@@SA_KQEBD@Z 0000000140028170 f i libcpmt:thread0.obj
 0001:00027180       ?max_size@?$_Default_allocator_traits@V?$allocator@G@std@@@std@@SA_KAEBV?$allocator@G@2@@Z 0000000140028180 f i libcpmt:wlocale.obj
 0001:00027180       ?maximum_signed_value@__crt_strtox@@YA_J_K@Z 0000000140028180 f i libucrt:atox.obj
 0001:00027180       ?max@?$numeric_limits@_J@std@@SA_JXZ 0000000140028180 f i libcpmt:thread0.obj
 0001:00027180       ?max_size@?$_Default_allocator_traits@V?$allocator@_W@std@@@std@@SA_KAEBV?$allocator@_W@2@@Z 0000000140028180 f i libcpmt:syserror.obj
 0001:0002718c       ?max_size@?$_Default_allocator_traits@V?$allocator@D@std@@@std@@SA_KAEBV?$allocator@D@2@@Z 000000014002818c f i libcpmt:thread0.obj
 0001:0002718c       ?get_invalid_value@__crt_findfile_traits@@SAPEAXXZ 000000014002818c f i libucrt:argv_wildcards.obj
 0001:00027194       ?value@error_condition@std@@QEBAHXZ 0000000140028194 f i libcpmt:thread0.obj
 0001:00027194       ?Count@?$List@VExecutionResource@details@Concurrency@@VCount@CollectionTypes@23@@details@Concurrency@@QEBAHXZ 0000000140028194 f i libconcrt:ResourceManager.obj
 0001:00027194       ?atomic_load@std@@YAJPEBU_Atomic_long@1@@Z 0000000140028194 f i libconcrt:ContextBase.obj
 0001:00027194       ??$__crt_interlocked_read@J@@YAJPEDJ@Z 0000000140028194 f i libucrt:output.obj
 0001:00027194       ??$peek_va_arg@H@__crt_stdio_output@@YAHPEAD@Z 0000000140028194 f i libucrt:output.obj
 0001:00027194       ?__crt_interlocked_read_32@@YAHPEDH@Z 0000000140028194 f i libucrt:output.obj
 0001:00027194       ??$peek_va_arg@I@__crt_stdio_output@@YAIPEAD@Z 0000000140028194 f i libucrt:output.obj
 0001:00027194       ?Value@Count@CollectionTypes@details@Concurrency@@QEBAHXZ 0000000140028194 f i libconcrt:ResourceManager.obj
 0001:00027194       ?GetType@WorkItem@details@Concurrency@@QEBA?AW4WorkItemType@123@XZ 0000000140028194 f i libconcrt:InternalContextBase.obj
 0001:00027194       ?value@error_code@std@@QEBAHXZ 0000000140028194 f i libcpmt:thread0.obj
 0001:00027194       ?BeaconCount@CancellationBeaconStack@ContextBase@details@Concurrency@@QEBAJXZ 0000000140028194 f i libconcrt:ContextBase.obj
 0001:00027194       ?getNumTryBlocks@TryBlockMap@__FrameHandler4@@QEAAIXZ 0000000140028194 f i libvcruntime:frame.obj
 0001:00027194       ??$__crt_interlocked_read@H@@YAHPEDH@Z 0000000140028194 f i libucrt:setmode.obj
 0001:00027194       ??B_Atomic_long@std@@QEBAJXZ 0000000140028194 f i libconcrt:ContextBase.obj
 0001:00027198       _Thrd_abort                0000000140028198 f   libcpmt:cthread.obj
 0001:000271d4       _Thrd_create               00000001400281d4 f   libcpmt:cthread.obj
 0001:00027288       _Thrd_current              0000000140028288 f   libcpmt:cthread.obj
 0001:00027308       _Thrd_detach               0000000140028308 f   libcpmt:cthread.obj
 0001:00027324       _Thrd_equal                0000000140028324 f   libcpmt:cthread.obj
 0001:00027330       _Thrd_exit                 0000000140028330 f   libcpmt:cthread.obj
 0001:00027338       _Thrd_hardware_concurrency 0000000140028338 f   libcpmt:cthread.obj
 0001:00027350       _Thrd_id                   0000000140028350 f   libcpmt:cthread.obj
 0001:00027350       ?GetCurrentThreadId@platform@details@Concurrency@@YAJXZ 0000000140028350 f   libcpmt:ppltasks.obj
 0001:00027350       __threadid                 0000000140028350 f   libucrt:per_thread_data.obj
 0001:00027358       _Thrd_join                 0000000140028358 f   libcpmt:cthread.obj
 0001:000273c0       _Thrd_sleep                00000001400283c0 f   libcpmt:cthread.obj
 0001:00027434       _Thrd_start                0000000140028434 f   libcpmt:cthread.obj
 0001:00027470       _Thrd_yield                0000000140028470 f   libcpmt:cthread.obj
 0001:00027470       ?YieldToSystem@UMSFreeVirtualProcessorRoot@details@Concurrency@@UEAAXXZ 0000000140028470 f   libconcrt:UMSFreeVirtualProcessorRoot.obj
 0001:00027470       ?__SwitchToThread@platform@details@Concurrency@@YAXXZ 0000000140028470 f   libconcrt:Platform.obj
 0001:000274f8       _Getctype                  00000001400284f8 f   libcpmt:_tolower.obj
 0001:000275c0       _Tolower                   00000001400285c0 f   libcpmt:_tolower.obj
 0001:000276f0       _Toupper                   00000001400286f0 f   libcpmt:_toupper.obj
 0001:00027830       ??$_Get_size_of_n@$01@std@@YA_K_K@Z 0000000140028830 f i libcpmt:syserror.obj
 0001:00027944       ??$end@$$CBU_Sys_errtab_t@std@@$0EO@@std@@YAPEBU_Sys_errtab_t@0@AEAY0EO@$$CBU10@@Z 0000000140028944 f i libcpmt:syserror.obj
 0001:0002794c       ??$end@$$CBU_Win_errtab_t@std@@$0EN@@std@@YAPEBU_Win_errtab_t@0@AEAY0EN@$$CBU10@@Z 000000014002894c f i libcpmt:syserror.obj
 0001:00027954       ??0?$basic_string@_WU?$char_traits@_W@std@@V?$allocator@_W@2@@std@@QEAA@_K_W@Z 0000000140028954 f i libcpmt:syserror.obj
 0001:000279e8       ?_Syserror_map@std@@YAPEBDH@Z 00000001400289e8 f   libcpmt:syserror.obj
 0001:00027a10       ?_Winerror_map@std@@YAHH@Z 0000000140028a10 f   libcpmt:syserror.obj
 0001:00027a34       ?_Winerror_message@std@@YAKKPEADK@Z 0000000140028a34 f   libcpmt:syserror.obj
 0001:00027b00       ?assign@?$_WChar_traits@_W@std@@SAPEA_WQEA_W_K_W@Z 0000000140028b00 f i libcpmt:syserror.obj
 0001:00027b24       ?assign@?$_WChar_traits@G@std@@SAXAEAGAEBG@Z 0000000140028b24 f i libcpmt:wlocale.obj
 0001:00027b24       ?assign@?$_WChar_traits@_W@std@@SAXAEA_WAEB_W@Z 0000000140028b24 f i libcpmt:syserror.obj
 0001:00027b2c       ?assign@?$basic_string@_WU?$char_traits@_W@std@@V?$allocator@_W@2@@std@@QEAAAEAV12@_K_W@Z 0000000140028b2c f i libcpmt:syserror.obj
 0001:00027b78       wmemset                    0000000140028b78 f i libcpmt:syserror.obj
 0001:00027b9c       ??0bad_alloc@std@@QEAA@AEBV01@@Z 0000000140028b9c f i libcpmt:xthrow.obj
 0001:00027bdc       ??0bad_alloc@std@@QEAA@XZ  0000000140028bdc f i libcpmt:xthrow.obj
 0001:00027bfc       ??0bad_function_call@std@@QEAA@AEBV01@@Z 0000000140028bfc f i libcpmt:xthrow.obj
 0001:00027c3c       ??0bad_function_call@std@@QEAA@XZ 0000000140028c3c f i libcpmt:xthrow.obj
 0001:00027c54       ??0exception@std@@QEAA@XZ  0000000140028c54 f i libcpmt:xthrow.obj
 0001:00027c6c       ??0invalid_argument@std@@QEAA@AEBV01@@Z 0000000140028c6c f i libcpmt:xthrow.obj
 0001:00027cac       ??0invalid_argument@std@@QEAA@PEBD@Z 0000000140028cac f i libcpmt:xthrow.obj
 0001:00027cf8       ??0length_error@std@@QEAA@AEBV01@@Z 0000000140028cf8 f i libcpmt:xthrow.obj
 0001:00027d38       ??0length_error@std@@QEAA@PEBD@Z 0000000140028d38 f i libcpmt:xthrow.obj
 0001:00027d84       ??0logic_error@std@@QEAA@AEBV01@@Z 0000000140028d84 f i libcpmt:xthrow.obj
 0001:00027dc4       ??0logic_error@std@@QEAA@PEBD@Z 0000000140028dc4 f i libcpmt:xthrow.obj
 0001:00027e10       ??0out_of_range@std@@QEAA@AEBV01@@Z 0000000140028e10 f i libcpmt:xthrow.obj
 0001:00027e50       ??0out_of_range@std@@QEAA@PEBD@Z 0000000140028e50 f i libcpmt:xthrow.obj
 0001:00027e9c       ??0overflow_error@std@@QEAA@AEBV01@@Z 0000000140028e9c f i libcpmt:xthrow.obj
 0001:00027edc       ??0overflow_error@std@@QEAA@PEBD@Z 0000000140028edc f i libcpmt:xthrow.obj
 0001:00027f28       ??0regex_error@std@@QEAA@AEBV01@@Z 0000000140028f28 f i libcpmt:xthrow.obj
 0001:00027f78       ??0regex_error@std@@QEAA@W4error_type@regex_constants@1@@Z 0000000140028f78 f i libcpmt:xthrow.obj
 0001:00027fe0       ??_Gbad_alloc@std@@UEAAPEAXI@Z 0000000140028fe0 f i libcpmt:xthrow.obj
 0001:00027fe0       ??_Ebad_alloc@std@@UEAAPEAXI@Z 0000000140028fe0 f i libcpmt:xthrow.obj
 0001:00028024       ??_Ebad_function_call@std@@UEAAPEAXI@Z 0000000140029024 f i libcpmt:xthrow.obj
 0001:00028024       ??_Gbad_function_call@std@@UEAAPEAXI@Z 0000000140029024 f i libcpmt:xthrow.obj
 0001:00028068       ??_Einvalid_argument@std@@UEAAPEAXI@Z 0000000140029068 f i libcpmt:xthrow.obj
 0001:00028068       ??_Ginvalid_argument@std@@UEAAPEAXI@Z 0000000140029068 f i libcpmt:xthrow.obj
 0001:000280ac       ??_Elength_error@std@@UEAAPEAXI@Z 00000001400290ac f i libcpmt:xthrow.obj
 0001:000280ac       ??_Glength_error@std@@UEAAPEAXI@Z 00000001400290ac f i libcpmt:xthrow.obj
 0001:000280f0       ??_Elogic_error@std@@UEAAPEAXI@Z 00000001400290f0 f i libcpmt:xthrow.obj
 0001:000280f0       ??_Glogic_error@std@@UEAAPEAXI@Z 00000001400290f0 f i libcpmt:xthrow.obj
 0001:00028134       ??_Eout_of_range@std@@UEAAPEAXI@Z 0000000140029134 f i libcpmt:xthrow.obj
 0001:00028134       ??_Gout_of_range@std@@UEAAPEAXI@Z 0000000140029134 f i libcpmt:xthrow.obj
 0001:00028178       ??_Eoverflow_error@std@@UEAAPEAXI@Z 0000000140029178 f i libcpmt:xthrow.obj
 0001:00028178       ??_Goverflow_error@std@@UEAAPEAXI@Z 0000000140029178 f i libcpmt:xthrow.obj
 0001:000281bc       ??_Gregex_error@std@@UEAAPEAXI@Z 00000001400291bc f i libcpmt:xthrow.obj
 0001:000281bc       ??_Eregex_error@std@@UEAAPEAXI@Z 00000001400291bc f i libcpmt:xthrow.obj
 0001:00028200       ?_Stringify@regex_error@std@@CAPEBDW4error_type@regex_constants@2@@Z 0000000140029200 f i libcpmt:xthrow.obj
 0001:000282cc       ?_Xbad_alloc@std@@YAXXZ    00000001400292cc f   libcpmt:xthrow.obj
 0001:000282ec       ?_Xbad_function_call@std@@YAXXZ 00000001400292ec f   libcpmt:xthrow.obj
 0001:0002830c       ?_Xinvalid_argument@std@@YAXPEBD@Z 000000014002930c f   libcpmt:xthrow.obj
 0001:00028330       ?_Xlength_error@std@@YAXPEBD@Z 0000000140029330 f   libcpmt:xthrow.obj
 0001:00028354       ?_Xout_of_range@std@@YAXPEBD@Z 0000000140029354 f   libcpmt:xthrow.obj
 0001:00028378       ?_Xoverflow_error@std@@YAXPEBD@Z 0000000140029378 f   libcpmt:xthrow.obj
 0001:0002839c       ?_Xregex_error@std@@YAXW4error_type@regex_constants@1@@Z 000000014002939c f   libcpmt:xthrow.obj
 0001:000283c0       ?_Xruntime_error@std@@YAXPEBD@Z 00000001400293c0 f   libcpmt:xthrow.obj
 0001:000283e4       ?what@bad_function_call@std@@UEBAPEBDXZ 00000001400293e4 f i libcpmt:xthrow.obj
 0001:000283ec       _Query_perf_counter        00000001400293ec f   libcpmt:xtime.obj
 0001:00028408       _Query_perf_frequency      0000000140029408 f   libcpmt:xtime.obj
 0001:00028424       _Xtime_diff_to_millis      0000000140029424 f   libcpmt:xtime.obj
 0001:0002846c       _Xtime_diff_to_millis2     000000014002946c f   libcpmt:xtime.obj
 0001:0002853c       _Xtime_get_ticks           000000014002953c f   libcpmt:xtime.obj
 0001:00028634       xtime_get                  0000000140029634 f   libcpmt:xtime.obj
 0001:000286c4       _Cnd_do_broadcast_at_thread_exit 00000001400296c4 f   libcpmt:xnotify.obj
 0001:00028794       _Cnd_register_at_thread_exit 0000000140029794 f   libcpmt:xnotify.obj
 0001:0002885c       _Cnd_unregister_at_thread_exit 000000014002985c f   libcpmt:xnotify.obj
 0001:000288c8       ??0_Init_locks@std@@QEAA@XZ 00000001400298c8 f   libcpmt:xlock.obj
 0001:00028914       ??0_Lockit@std@@QEAA@H@Z   0000000140029914 f   libcpmt:xlock.obj
 0001:00028950       ??0_Lockit@std@@QEAA@XZ    0000000140029950 f   libcpmt:xlock.obj
 0001:0002896c       ??1_Init_locks@std@@QEAA@XZ 000000014002996c f   libcpmt:xlock.obj
 0001:000289b0       ??1_Lockit@std@@QEAA@XZ    00000001400299b0 f   libcpmt:xlock.obj
 0001:000289e4       ?_Init_locks_ctor@_Init_locks@std@@CAXPEAV12@@Z 00000001400299e4 f   libcpmt:xlock.obj
 0001:00028a20       ?_Init_locks_dtor@_Init_locks@std@@CAXPEAV12@@Z 0000000140029a20 f   libcpmt:xlock.obj
 0001:00028a64       ?_Lockit_ctor@_Lockit@std@@CAXPEAV12@@Z 0000000140029a64 f   libcpmt:xlock.obj
 0001:00028a70       ?_Lockit_ctor@_Lockit@std@@CAXPEAV12@H@Z 0000000140029a70 f   libcpmt:xlock.obj
 0001:00028a94       ?_Lockit_ctor@_Lockit@std@@SAXH@Z 0000000140029a94 f   libcpmt:xlock.obj
 0001:00028ab8       ?_Lockit_dtor@_Lockit@std@@CAXPEAV12@@Z 0000000140029ab8 f   libcpmt:xlock.obj
 0001:00028ad0       ?_Lockit_dtor@_Lockit@std@@SAXH@Z 0000000140029ad0 f   libcpmt:xlock.obj
 0001:00028af4       _Lock_at_thread_exit_mutex 0000000140029af4 f   libcpmt:xlock.obj
 0001:00028b00       _Unlock_at_thread_exit_mutex 0000000140029b00 f   libcpmt:xlock.obj
 0001:00028b0c       ??0?$_Yarn@D@std@@QEAA@PEBD@Z 0000000140029b0c f i libcpmt:locale0.obj
 0001:00028b2c       ??0TryBlockMap@__FrameHandler3@@QEAA@PEBU_s_FuncInfo@@PEAU_xDISPATCHER_CONTEXT@@@Z 0000000140029b2c f i libvcruntime:frame.obj
 0001:00028b2c       ??0_Fac_node@std@@QEAA@PEAU01@PEAV_Facet_base@1@@Z 0000000140029b2c f i libcpmt:locale0.obj
 0001:00028b2c       ??0iterator@UWMap@@QEAA@AEAV1@PEAE@Z 0000000140029b2c f i libvcruntime:frame.obj
 0001:00028b38       ??0_Locimp@locale@std@@AEAA@AEBV012@@Z 0000000140029b38 f i libcpmt:locale0.obj
 0001:00028bbc       ??0_Locimp@locale@std@@AEAA@_N@Z 0000000140029bbc f i libcpmt:locale0.obj
 0001:00028c08       ??0?$__crt_unique_heap_ptr@DU__crt_public_free_policy@@@@QEAA@QEAD@Z 0000000140029c08 f i libvcruntime:std_exception.obj
 0001:00028c08       ??0?$__crt_unique_heap_ptr@U__vcrt_ptd@@U__crt_internal_free_policy@@@@QEAA@QEAU__vcrt_ptd@@@Z 0000000140029c08 f i libvcruntime:per_thread_data.obj
 0001:00028c08       ??0?$__crt_unique_heap_ptr@U__crt_lowio_handle_data@@U__crt_internal_free_policy@@@@QEAA@QEAU__crt_lowio_handle_data@@@Z 0000000140029c08 f i libucrt:osfinfo.obj
 0001:00028c08       ??0?$__crt_unique_heap_ptr@U__crt_locale_pointers@@U__crt_internal_free_policy@@@@QEAA@QEAU__crt_locale_pointers@@@Z 0000000140029c08 f i libucrt:wsetlocale.obj
 0001:00028c08       ??0?$__crt_unique_heap_ptr@DU__crt_internal_free_policy@@@@QEAA@QEAD@Z 0000000140029c08 f i libvcruntime:std_type_info.obj
 0001:00028c08       ??0?$__crt_unique_heap_ptr@U__acrt_thread_parameter@@U__crt_internal_free_policy@@@@QEAA@QEAU__acrt_thread_parameter@@@Z 0000000140029c08 f i libucrt:thread.obj
 0001:00028c08       ??0?$string_output_adapter@D@__crt_stdio_output@@QEAA@QEAU?$string_output_adapter_context@D@1@@Z 0000000140029c08 f i libucrt:output.obj
 0001:00028c08       ??0?$__crt_scoped_stack_ptr@_W@@QEAA@U?$__crt_scoped_stack_ptr_tag@_W@@@Z 0000000140029c08 f i libcpmt:StlLCMapStringA.obj
 0001:00028c08       ??0?$__crt_unique_heap_ptr@U__crt_lc_time_data@@U__crt_internal_free_policy@@@@QEAA@QEAU__crt_lc_time_data@@@Z 0000000140029c08 f i libucrt:inittime.obj
 0001:00028c08       ??0?$__crt_unique_heap_ptr@Ulconv@@U__crt_internal_free_policy@@@@QEAA@QEAUlconv@@@Z 0000000140029c08 f i libucrt:initmon.obj
 0001:00028c08       ??0?$stream_output_adapter@_W@__crt_stdio_output@@QEAA@QEAU_iobuf@@@Z 0000000140029c08 f i libucrt:output.obj
 0001:00028c08       ??0__crt_stdio_stream@@QEAA@QEAU_iobuf@@@Z 0000000140029c08 f i libucrt:output.obj
 0001:00028c08       ??0?$__crt_unique_heap_ptr@PEADU__crt_internal_free_policy@@@@QEAA@QEAPEAD@Z 0000000140029c08 f i libucrt:argv_parsing.obj
 0001:00028c08       ??0?$__crt_unique_heap_ptr@GU__crt_internal_free_policy@@@@QEAA@QEAG@Z 0000000140029c08 f i libucrt:initctype.obj
 0001:00028c08       ??0?$__crt_unique_handle_t@U__crt_findfile_traits@@@@QEAA@QEAX@Z 0000000140029c08 f i libucrt:argv_wildcards.obj
 0001:00028c08       ??0?$__crt_unique_heap_ptr@PEAU__crt_stdio_stream_data@@U__crt_internal_free_policy@@@@QEAA@QEAPEAU__crt_stdio_stream_data@@@Z 0000000140029c08 f i libucrt:_file.obj
 0001:00028c08       ??0?$_String_iterator@V?$_String_val@U?$_Simple_types@G@std@@@std@@@std@@QEAA@PEAGPEBU_Container_base0@1@@Z 0000000140029c08 f i libcpmt:wlocale.obj
 0001:00028c08       ??0?$__crt_unique_heap_ptr@U__crt_stdio_stream_data@@U__crt_internal_free_policy@@@@QEAA@QEAU__crt_stdio_stream_data@@@Z 0000000140029c08 f i libucrt:stream.obj
 0001:00028c08       ??0?$__crt_unique_heap_ptr@EU__crt_internal_free_policy@@@@QEAA@QEAE@Z 0000000140029c08 f i libucrt:initctype.obj
 0001:00028c08       ??0?$_String_const_iterator@V?$_String_val@U?$_Simple_types@G@std@@@std@@@std@@QEAA@PEBGPEBU_Container_base0@1@@Z 0000000140029c08 f i libcpmt:wlocale.obj
 0001:00028c08       ??0?$stream_output_adapter@D@__crt_stdio_output@@QEAA@QEAU_iobuf@@@Z 0000000140029c08 f i libucrt:output.obj
 0001:00028c08       ??0?$__crt_unique_handle_t@U__crt_hmodule_traits@@@@QEAA@QEAUHINSTANCE__@@@Z 0000000140029c08 f i libucrt:exit.obj
 0001:00028c08       ??0?$__crt_unique_heap_ptr@U__crt_multibyte_data@@U__crt_internal_free_policy@@@@QEAA@QEAU__crt_multibyte_data@@@Z 0000000140029c08 f i libucrt:wsetlocale.obj
 0001:00028c08       ??0__crt_stdio_stream@@QEAA@QEAU__crt_stdio_stream_data@@@Z 0000000140029c08 f i libucrt:fflush.obj
 0001:00028c08       ??0?$__crt_unique_heap_ptr@_WU__crt_internal_free_policy@@@@QEAA@QEA_W@Z 0000000140029c08 f i libucrt:setlocale.obj
 0001:00028c08       ??0_Timevec@std@@QEAA@PEAX@Z 0000000140029c08 f i libcpmt:wlocale.obj
 0001:00028c08       ??0id@locale@std@@QEAA@_K@Z 0000000140029c08 f i libcpmt:locale0.obj
 0001:00028c08       ??0?$__crt_unique_heap_ptr@JU__crt_internal_free_policy@@@@QEAA@QEAJ@Z 0000000140029c08 f i libucrt:initctype.obj
 0001:00028c08       ??0?$__crt_scoped_stack_ptr_tag@_W@@QEAA@QEA_W@Z 0000000140029c08 f i libcpmt:StlLCMapStringA.obj
 0001:00028c08       ??0?$__crt_unique_heap_ptr@XU__crt_internal_free_policy@@@@QEAA@QEAX@Z 0000000140029c08 f i libvcruntime:std_type_info.obj
 0001:00028c08       ??0?$__crt_unique_heap_ptr@U__acrt_ptd@@U__crt_internal_free_policy@@@@QEAA@QEAU__acrt_ptd@@@Z 0000000140029c08 f i libucrt:per_thread_data.obj
 0001:00028c08       ??0?$__crt_unique_heap_ptr@PEA_WU__crt_internal_free_policy@@@@QEAA@QEAPEA_W@Z 0000000140029c08 f i libucrt:argv_parsing.obj
 0001:00028c08       ??0?$__crt_unique_heap_ptr@U__crt_locale_data@@U__crt_internal_free_policy@@@@QEAA@QEAU__crt_locale_data@@@Z 0000000140029c08 f i libucrt:wsetlocale.obj
 0001:00028c08       ??0?$string_output_adapter@_W@__crt_stdio_output@@QEAA@QEAU?$string_output_adapter_context@_W@1@@Z 0000000140029c08 f i libucrt:output.obj
 0001:00028c08       ??0?$__crt_unique_heap_ptr@P6AXXZU__crt_internal_free_policy@@@@QEAA@QEAP6AXXZ@Z 0000000140029c08 f i libucrt:onexit.obj
 0001:00028c08       ??0_Context@details@Concurrency@@QEAA@PEAVContext@2@@Z 0000000140029c08 f i libconcrt:Context.obj
 0001:00028c10       ??0locale@std@@AEAA@PEAV_Locimp@01@@Z 0000000140029c10 f i libcpmt:locale0.obj
 0001:00028c10       ??0EventWaitNode@details@Concurrency@@QEAA@PEAVWaitBlock@12@@Z 0000000140029c10 f i libconcrt:event.obj
 0001:00028c18       ??1?$_Yarn@D@std@@QEAA@XZ  0000000140029c18 f i libcpmt:locale0.obj
 0001:00028c38       ??1_Fac_node@std@@QEAA@XZ  0000000140029c38 f i libcpmt:locale0.obj
 0001:00028c7c       ??1_Fac_tidy_reg_t@std@@QEAA@XZ 0000000140029c7c f i libcpmt:locale0.obj
 0001:00028ce4       ??1_Locimp@locale@std@@MEAA@XZ 0000000140029ce4 f i libcpmt:locale0.obj
 0001:00028d2c       ??4?$_Yarn@D@std@@QEAAAEAV01@PEBD@Z 0000000140029d2c f i libcpmt:locale0.obj
 0001:00028da4       ??_G_Fac_node@std@@QEAAPEAXI@Z 0000000140029da4 f i libcpmt:locale0.obj
 0001:00028e10       ??_G_Locimp@locale@std@@MEAAPEAXI@Z 0000000140029e10 f i libcpmt:locale0.obj
 0001:00028e10       ??_E_Locimp@locale@std@@MEAAPEAXI@Z 0000000140029e10 f i libcpmt:locale0.obj
 0001:00028e7c       ?_C_str@?$_Yarn@D@std@@QEBAPEBDXZ 0000000140029e7c f i libcpmt:locale0.obj
 0001:00028e7c       ?_C_str@?$_Yarn@_W@std@@QEBAPEB_WXZ 0000000140029e7c f i libcpmt:wlocale.obj
 0001:00028e8c       ?IsEmpty@Slot@?$Mailbox@V_UnrealizedChore@details@Concurrency@@@details@Concurrency@@QEBA_NXZ 0000000140029e8c f i libconcrt:ContextBase.obj
 0001:00028e8c       ?Empty@?$SQueue@VSafePointInvocation@details@Concurrency@@@details@Concurrency@@QEBA_NXZ 0000000140029e8c f i libconcrt:SchedulerBase.obj
 0001:00028e8c       ?IsEmpty@Slot@?$Mailbox@VInternalContextBase@details@Concurrency@@@details@Concurrency@@QEBA_NXZ 0000000140029e8c f i libconcrt:InternalContextBase.obj
 0001:00028e8c       ?Empty@?$SQueue@VRealizedChore@details@Concurrency@@@details@Concurrency@@QEBA_NXZ 0000000140029e8c f i libconcrt:ScheduleGroupBase.obj
 0001:00028e8c       ?_Empty@?$_Yarn@_W@std@@QEBA_NXZ 0000000140029e8c f i libcpmt:wlocale.obj
 0001:00028e8c       ?_Empty@?$_Yarn@D@std@@QEBA_NXZ 0000000140029e8c f i libcpmt:locale0.obj
 0001:00028e8c       ?Empty@?$List@VWaitNode@SchedulerBase@details@Concurrency@@VNoCount@CollectionTypes@34@@details@Concurrency@@QEBA_NXZ 0000000140029e8c f i libconcrt:SchedulerBase.obj
 0001:00028e8c       ?Empty@?$List@UBoostedObject@details@Concurrency@@VNoCount@CollectionTypes@23@@details@Concurrency@@QEBA_NXZ 0000000140029e8c f i libconcrt:SearchAlgorithms.obj
 0001:00028e8c       ?Empty@?$SQueue@VInternalContextBase@details@Concurrency@@@details@Concurrency@@QEBA_NXZ 0000000140029e8c f i libconcrt:SchedulerBase.obj
 0001:00028e8c       ?Empty@?$List@UListEntry@details@Concurrency@@VNoCount@CollectionTypes@23@@details@Concurrency@@QEBA_NXZ 0000000140029e8c f i libconcrt:ContextBase.obj
 0001:00028e8c       ?empty@TokenRegistrationContainer@_CancellationTokenState@details@Concurrency@@QEAA_NXZ 0000000140029e8c f i libconcrt:TaskCollection.obj
 0001:00028e94       ?_Facet_Register@std@@YAXPEAV_Facet_base@1@@Z 0000000140029e94 f   libcpmt:locale0.obj
 0001:00028ecc       ?_Getgloballocale@locale@std@@CAPEAV_Locimp@12@XZ 0000000140029ecc f   libcpmt:locale0.obj
 0001:00028ed4       ?_Init@locale@std@@CAPEAV_Locimp@12@_N@Z 0000000140029ed4 f   libcpmt:locale0.obj
 0001:00028f80       ?_Locimp_dtor@_Locimp@locale@std@@CAXPEAV123@@Z 0000000140029f80 f   libcpmt:locale0.obj
 0001:00029008       ?_Locinfo_ctor@_Locinfo@std@@SAXPEAV12@PEBD@Z 000000014002a008 f   libcpmt:locale0.obj
 0001:00029074       ?_Locinfo_dtor@_Locinfo@std@@SAXPEAV12@@Z 000000014002a074 f   libcpmt:locale0.obj
 0001:00029090       ?_New_Locimp@_Locimp@locale@std@@CAPEAV123@AEBV123@@Z 000000014002a090 f   libcpmt:locale0.obj
 0001:000290cc       ?_New_Locimp@_Locimp@locale@std@@CAPEAV123@_N@Z 000000014002a0cc f   libcpmt:locale0.obj
 0001:0002913c       ?_Setgloballocale@locale@std@@CAXPEAX@Z 000000014002a13c f   libcpmt:locale0.obj
 0001:00029170       ?classic@locale@std@@SAAEBV12@XZ 000000014002a170 f   libcpmt:locale0.obj
 0001:00029188       ?empty@locale@std@@SA?AV12@XZ 000000014002a188 f   libcpmt:locale0.obj
 0001:000291ac       _Deletegloballocale        000000014002a1ac f   libcpmt:locale0.obj
 0001:0002921c       ?_Addstd@ios_base@std@@SAXPEAV12@@Z 000000014002a21c f   libcpmt:ios.obj
 0001:00029294       ?_Callfns@ios_base@std@@AEAAXW4event@12@@Z 000000014002a294 f i libcpmt:ios.obj
 0001:000292dc       ?_Ios_base_dtor@ios_base@std@@CAXPEAV12@@Z 000000014002a2dc f   libcpmt:ios.obj
 0001:0002935c       ?_Tidy@ios_base@std@@AEAAXXZ 000000014002a35c f i libcpmt:ios.obj
 0001:00029744       ??$peek_va_arg@_K@__crt_stdio_output@@YA_KPEAD@Z 000000014002a744 f i libucrt:output.obj
 0001:00029744       ??D?$_String_iterator@V?$_String_val@U?$_Simple_types@G@std@@@std@@@std@@QEBAAEAGXZ 000000014002a744 f i libcpmt:wlocale.obj
 0001:00029744       ??$peek_va_arg@PEAUansi_string@?1??type_case_Z@?$output_processor@DV?$string_output_adapter@D@__crt_stdio_output@@V?$positional_parameter_base@DV?$string_output_adapter@D@__crt_stdio_output@@@2@@__crt_stdio_output@@AEAA_NXZ@@__crt_stdio_output@@YAPEAUansi_string@?1??type_case_Z@?$output_processor@DV?$string_output_adapter@D@__crt_stdio_output@@V?$positional_parameter_base@DV?$string_output_adapter@D@__crt_stdio_output@@@2@@0@AEAA_NXZ@PEAD@Z 000000014002a744 f i libucrt:output.obj
 0001:00029744       ??$__crt_interlocked_read_pointer@UHINSTANCE__@@@@YAPEAUHINSTANCE__@@PEDSEAU0@@Z 000000014002a744 f i libvcruntime:winapi_downlevel.obj
 0001:00029744       ?get@?$__crt_scoped_stack_ptr@_W@@QEBAPEA_WXZ 000000014002a744 f i libcpmt:StlLCMapStringA.obj
 0001:00029744       ?get@?$__crt_unique_heap_ptr@U__crt_locale_pointers@@U__crt_internal_free_policy@@@@QEBAPEAU__crt_locale_pointers@@XZ 000000014002a744 f i libucrt:wsetlocale.obj
 0001:00029744       ??D?$_String_const_iterator@V?$_String_val@U?$_Simple_types@D@std@@@std@@@std@@QEBAAEBDXZ 000000014002a744 f i libcpmt:xlocale.obj
 0001:00029744       ?get@?$__crt_unique_handle_t@U__crt_findfile_traits@@@@QEBAPEAXXZ 000000014002a744 f i libucrt:argv_wildcards.obj
 0001:00029744       ?get@?$__crt_unique_heap_ptr@U__acrt_ptd@@U__crt_internal_free_policy@@@@QEBAPEAU__acrt_ptd@@XZ 000000014002a744 f i libucrt:per_thread_data.obj
 0001:00029744       ??$__crt_interlocked_read_pointer@X@@YAPEAXPEDSEAX@Z 000000014002a744 f i libvcruntime:winapi_downlevel.obj
 0001:00029744       ?_Getptr@_Timevec@std@@QEBAPEAXXZ 000000014002a744 f i libcpmt:wlocale.obj
 0001:00029744       ??$peek_va_arg@U_CRT_DOUBLE@@@__crt_stdio_output@@YA?AU_CRT_DOUBLE@@PEAD@Z 000000014002a744 f i libucrt:output.obj
 0001:00029744       ?get@?$__crt_unique_heap_ptr@U__crt_lowio_handle_data@@U__crt_internal_free_policy@@@@QEBAPEAU__crt_lowio_handle_data@@XZ 000000014002a744 f i libucrt:osfinfo.obj
 0001:00029744       ??$peek_va_arg@PEAD@__crt_stdio_output@@YAPEADPEAD@Z 000000014002a744 f i libucrt:output.obj
 0001:00029744       ?get@?$__crt_unique_heap_ptr@XU__crt_internal_free_policy@@@@QEBAPEAXXZ 000000014002a744 f i libvcruntime:std_type_info.obj
 0001:00029744       ?GetMask@HardwareAffinity@details@Concurrency@@QEAA_KXZ 000000014002a744 f i libconcrt:ResourceManager.obj
 0001:00029744       ??$__crt_interlocked_read_pointer@$$A6AXXZ@@YAP6AXXZPEDS6AXXZ@Z 000000014002a744 f i libvcruntime:purevirt.obj
 0001:00029744       ?get@?$__crt_unique_heap_ptr@_WU__crt_internal_free_policy@@@@QEBAPEA_WXZ 000000014002a744 f i libucrt:setlocale.obj
 0001:00029744       __acrt_get_locale_data_prefix 000000014002a744 f i libucrt:strtod.obj
 0001:00029744       ?mutex@?$unique_lock@Vmutex@std@@@std@@QEBAPEAV02@XZ 000000014002a744 f i libconcrt:TaskCollection.obj
 0001:00029744       ?get@?$__crt_unique_handle_t@U__crt_hmodule_traits@@@@QEBAPEAUHINSTANCE__@@XZ 000000014002a744 f i libucrt:exit.obj
 0001:00029744       ?GetScheduler@SchedulingNode@details@Concurrency@@QEAAPEAVSchedulerBase@23@XZ 000000014002a744 f i libconcrt:VirtualProcessor.obj
 0001:00029744       ?Unsafe_Top@?$LockFreePushStack@VContextNode@SchedulerBase@details@Concurrency@@@details@Concurrency@@QEAAPEAVContextNode@SchedulerBase@23@XZ 000000014002a744 f i libconcrt:SchedulerBase.obj
 0001:00029744       ??C__crt_stdio_stream@@QEBAPEAU__crt_stdio_stream_data@@XZ 000000014002a744 f i libucrt:output.obj
 0001:00029744       ?get@?$_Ptr_base@V__ExceptionPtr@@@std@@IEBAPEAV__ExceptionPtr@@XZ 000000014002a744 f i libcpmt:excptptr.obj
 0001:00029744       ?GetEvent@UMSBackgroundPoller@details@Concurrency@@QEAAPEAXXZ 000000014002a744 f i libconcrt:TransmogrifiedPrimary.obj
 0001:00029744       ?get@?$__crt_unique_heap_ptr@EU__crt_internal_free_policy@@@@QEBAPEAEXZ 000000014002a744 f i libucrt:argv_parsing.obj
 0001:00029744       ??$peek_va_arg@PEAUansi_string@?1??type_case_Z@?$output_processor@DV?$stream_output_adapter@D@__crt_stdio_output@@V?$positional_parameter_base@DV?$stream_output_adapter@D@__crt_stdio_output@@@2@@__crt_stdio_output@@AEAA_NXZ@@__crt_stdio_output@@YAPEAUansi_string@?1??type_case_Z@?$output_processor@DV?$stream_output_adapter@D@__crt_stdio_output@@V?$positional_parameter_base@DV?$stream_output_adapter@D@__crt_stdio_output@@@2@@0@AEAA_NXZ@PEAD@Z 000000014002a744 f i libucrt:output.obj
 0001:00029744       ?Next@?$LockFreePushStack@VContextNode@SchedulerBase@details@Concurrency@@@details@Concurrency@@SAPEAVContextNode@SchedulerBase@23@PEAV4523@@Z 000000014002a744 f i libconcrt:SchedulerBase.obj
 0001:00029744       ??$peek_va_arg@PEAUansi_string@?1??type_case_Z@?$output_processor@_WV?$string_output_adapter@_W@__crt_stdio_output@@V?$positional_parameter_base@_WV?$string_output_adapter@_W@__crt_stdio_output@@@2@@__crt_stdio_output@@AEAA_NXZ@@__crt_stdio_output@@YAPEAUansi_string@?1??type_case_Z@?$output_processor@_WV?$string_output_adapter@_W@__crt_stdio_output@@V?$positional_parameter_base@_WV?$string_output_adapter@_W@__crt_stdio_output@@@2@@0@AEAA_NXZ@PEAD@Z 000000014002a744 f i libucrt:output.obj
 0001:00029744       ?get@?$__crt_unique_heap_ptr@U__crt_lc_time_data@@U__crt_internal_free_policy@@@@QEBAPEAU__crt_lc_time_data@@XZ 000000014002a744 f i libucrt:inittime.obj
 0001:00029744       ??$peek_va_arg@PEAX@__crt_stdio_output@@YAPEAXPEAD@Z 000000014002a744 f i libucrt:output.obj
 0001:00029744       ?get@?$__crt_unique_heap_ptr@U__crt_locale_data@@U__crt_internal_free_policy@@@@QEBAPEAU__crt_locale_data@@XZ 000000014002a744 f i libucrt:wsetlocale.obj
 0001:00029744       ?getFuncInfo@TryBlockMap@__FrameHandler3@@QEAAPEBU_s_FuncInfo@@XZ 000000014002a744 f i libvcruntime:risctrnsctrl.obj
 0001:00029744       ??$__crt_interlocked_read_pointer@$$CBD@@YAPEBDPEDSEBD@Z 000000014002a744 f i libvcruntime:std_type_info.obj
 0001:00029744       ?save_state@?$c_string_character_source@D@__crt_strtox@@QEBAPEBDXZ 000000014002a744 f i libucrt:strtod.obj
 0001:00029744       ?save_state@?$c_string_character_source@_W@__crt_strtox@@QEBAPEB_WXZ 000000014002a744 f i libucrt:strtod.obj
 0001:00029744       ??$?CV__ExceptionPtr@@$0A@@?$shared_ptr@V__ExceptionPtr@@@std@@QEBAPEAV__ExceptionPtr@@XZ 000000014002a744 f i libcpmt:excptptr.obj
 0001:00029744       ?get@?$__crt_unique_heap_ptr@DU__crt_public_free_policy@@@@QEBAPEADXZ 000000014002a744 f i libvcruntime:std_exception.obj
 0001:00029744       ?get@?$__crt_unique_heap_ptr@DU__crt_internal_free_policy@@@@QEBAPEADXZ 000000014002a744 f i libvcruntime:std_type_info.obj
 0001:00029744       ??D?$_String_const_iterator@V?$_String_val@U?$_Simple_types@_W@std@@@std@@@std@@QEBAAEB_WXZ 000000014002a744 f i libcpmt:filesys.obj
 0001:00029744       ?public_stream@__crt_stdio_stream@@QEBAPEAU_iobuf@@XZ 000000014002a744 f i libucrt:output.obj
 0001:00029744       ReadNoFence64              000000014002a744 f i LIBCMT:guard_support.obj
 0001:00029744       ?get@?$__crt_unique_heap_ptr@U__crt_multibyte_data@@U__crt_internal_free_policy@@@@QEBAPEAU__crt_multibyte_data@@XZ 000000014002a744 f i libucrt:wsetlocale.obj
 0001:00029744       ?Current@?$SQueue@VSafePointInvocation@details@Concurrency@@@details@Concurrency@@QEBAPEAVSafePointInvocation@23@XZ 000000014002a744 f i libconcrt:SchedulerBase.obj
 0001:00029744       ReadPointerNoFence         000000014002a744 f i LIBCMT:guard_support.obj
 0001:00029744       ?get@?$__crt_unique_heap_ptr@PEADU__crt_internal_free_policy@@@@QEBAPEAPEADXZ 000000014002a744 f i libucrt:argv_parsing.obj
 0001:00029744       ??$peek_va_arg@_J@__crt_stdio_output@@YA_JPEAD@Z 000000014002a744 f i libucrt:output.obj
 0001:00029744       ?__crt_interlocked_read_64@@YA_JPED_J@Z 000000014002a744 f i libvcruntime:purevirt.obj
 0001:00029744       ??$peek_va_arg@PEAUansi_string@?1??type_case_Z@?$output_processor@_WV?$stream_output_adapter@_W@__crt_stdio_output@@V?$positional_parameter_base@_WV?$stream_output_adapter@_W@__crt_stdio_output@@@2@@__crt_stdio_output@@AEAA_NXZ@@__crt_stdio_output@@YAPEAUansi_string@?1??type_case_Z@?$output_processor@_WV?$stream_output_adapter@_W@__crt_stdio_output@@V?$positional_parameter_base@_WV?$stream_output_adapter@_W@__crt_stdio_output@@@2@@0@AEAA_NXZ@PEAD@Z 000000014002a744 f i libucrt:output.obj
 0001:00029744       ?get@?$__crt_unique_heap_ptr@U__vcrt_ptd@@U__crt_internal_free_policy@@@@QEBAPEAU__vcrt_ptd@@XZ 000000014002a744 f i libvcruntime:per_thread_data.obj
 0001:00029744       ??D?$_String_const_iterator@V?$_String_val@U?$_Simple_types@G@std@@@std@@@std@@QEBAAEBGXZ 000000014002a744 f i libcpmt:wlocale.obj
 0001:00029744       ?get@?$__crt_unique_heap_ptr@PEA_WU__crt_internal_free_policy@@@@QEBAPEAPEA_WXZ 000000014002a744 f i libucrt:argv_parsing.obj
 0001:00029748       ??I@YA?AW4__acrt_fenv_abstract_control@@W40@0@Z 000000014002a748 f i libucrt:_fenvutils.obj
 0001:00029748       ??I@YA?AW4__acrt_fenv_machine_sse_status@@W40@0@Z 000000014002a748 f i libucrt:_fenvutils.obj
 0001:00029748       ??Iv1@filesystem@experimental@std@@YA?AW4perms@0123@W440123@0@Z 000000014002a748 f i libcpmt:filesys.obj
 0001:00029748       ??I@YA?AW4__acrt_fenv_abstract_status@@W40@0@Z 000000014002a748 f i libucrt:_fenvutils.obj
 0001:00029828       ??Sv1@filesystem@experimental@std@@YA?AW4perms@0123@W440123@@Z 000000014002a828 f i libcpmt:filesys.obj
 0001:00029830       ??U@YA?AW4__acrt_fenv_abstract_status@@W40@0@Z 000000014002a830 f i libucrt:_fenvutils.obj
 0001:00029830       ??U@YA?AW4__acrt_fenv_abstract_control@@W40@0@Z 000000014002a830 f i libucrt:_fenvutils.obj
 0001:00029830       ??Uv1@filesystem@experimental@std@@YA?AW4perms@0123@W440123@0@Z 000000014002a830 f i libcpmt:filesys.obj
 0001:000298b8       ?assign@?$basic_string@_WU?$char_traits@_W@std@@V?$allocator@_W@2@@std@@QEAAAEAV12@QEB_W@Z 000000014002a8b8 f i libcpmt:filesys.obj
 0001:000298cc       ?empty@?$basic_string@_WU?$char_traits@_W@std@@V?$allocator@_W@2@@std@@QEBA_NXZ 000000014002a8cc f i libcpmt:filesys.obj
 0001:000298cc       ?empty@?$basic_string@GU?$char_traits@G@std@@V?$allocator@G@2@@std@@QEBA_NXZ 000000014002a8cc f i libcpmt:wlocale.obj
 0001:000298d8       _Chmod                     000000014002a8d8 f   libcpmt:filesys.obj
 0001:00029954       _Close_dir                 000000014002a954 f   libcpmt:filesys.obj
 0001:0002995c       _Copy_file                 000000014002a95c f   libcpmt:filesys.obj
 0001:00029980       _Current_get               000000014002a980 f   libcpmt:filesys.obj
 0001:000299b4       _Current_set               000000014002a9b4 f   libcpmt:filesys.obj
 0001:000299c8       _Equivalent                000000014002a9c8 f   libcpmt:filesys.obj
 0001:00029b30       _File_size                 000000014002ab30 f   libcpmt:filesys.obj
 0001:00029b7c       _Hard_links                000000014002ab7c f   libcpmt:filesys.obj
 0001:00029c34       _Last_write_time           000000014002ac34 f   libcpmt:filesys.obj
 0001:00029c8c       _Link                      000000014002ac8c f   libcpmt:filesys.obj
 0001:00029cb8       _Lstat                     000000014002acb8 f   libcpmt:filesys.obj
 0001:00029cc0       _Make_dir                  000000014002acc0 f   libcpmt:filesys.obj
 0001:00029cec       _Open_dir                  000000014002acec f   libcpmt:filesys.obj
 0001:00029e4c       _Read_dir                  000000014002ae4c f   libcpmt:filesys.obj
 0001:00029f20       _Remove_dir                000000014002af20 f   libcpmt:filesys.obj
 0001:00029f34       _Rename                    000000014002af34 f   libcpmt:filesys.obj
 0001:00029f54       _Resize                    000000014002af54 f   libcpmt:filesys.obj
 0001:00029fe4       _Set_last_write_time       000000014002afe4 f   libcpmt:filesys.obj
 0001:0002a06c       _Stat                      000000014002b06c f   libcpmt:filesys.obj
 0001:0002a11c       _Statvfs                   000000014002b11c f   libcpmt:filesys.obj
 0001:0002a268       _Symlink                   000000014002b268 f   libcpmt:filesys.obj
 0001:0002a294       _Symlink_get               000000014002b294 f   libcpmt:filesys.obj
 0001:0002a2a0       _Temp_get                  000000014002b2a0 f   libcpmt:filesys.obj
 0001:0002a30c       _To_byte                   000000014002b30c f   libcpmt:filesys.obj
 0001:0002a35c       _To_wide                   000000014002b35c f   libcpmt:filesys.obj
 0001:0002a3a0       _Unlink                    000000014002b3a0 f   libcpmt:filesys.obj
 0001:0002a3c0       ?uncaught_exception@std@@YA_NXZ 000000014002b3c0 f   libcpmt:uncaught_exception.obj
 0001:0002a900       ??0system_error@std@@QEAA@Verror_code@1@@Z 000000014002b900 f i libcpmt:xonce.obj
 0001:0002aa94       ?_Execute_once@std@@YAHAEAUonce_flag@1@P6AHPEAX1PEAPEAX@Z1@Z 000000014002ba94 f   libcpmt:xonce.obj
 0001:0002aa9c       ?_XGetLastError@std@@YAXXZ 000000014002ba9c f   libcpmt:xonce.obj
 0001:0002afbc       __crtAcquireSRWLockExclusive 000000014002bfbc f   libcpmt:winapisupp.obj
 0001:0002afd4       __crtCloseThreadpoolTimer  000000014002bfd4 f   libcpmt:winapisupp.obj
 0001:0002aff4       __crtCloseThreadpoolWait   000000014002bff4 f   libcpmt:winapisupp.obj
 0001:0002b014       __crtCloseThreadpoolWork   000000014002c014 f   libcpmt:winapisupp.obj
 0001:0002b02c       __crtCreateEventExW        000000014002c02c f   libcpmt:winapisupp.obj
 0001:0002b068       __crtCreateSemaphoreExW    000000014002c068 f   libcpmt:winapisupp.obj
 0001:0002b0bc       __crtCreateSymbolicLinkW   000000014002c0bc f   libcpmt:winapisupp.obj
 0001:0002b0f0       __crtCreateThreadpoolTimer 000000014002c0f0 f   libcpmt:winapisupp.obj
 0001:0002b10c       __crtCreateThreadpoolWait  000000014002c10c f   libcpmt:winapisupp.obj
 0001:0002b128       __crtCreateThreadpoolWork  000000014002c128 f   libcpmt:winapisupp.obj
 0001:0002b140       __crtFlsAlloc              000000014002c140 f   libcpmt:winapisupp.obj
 0001:0002b160       __crtFlsFree               000000014002c160 f   libcpmt:winapisupp.obj
 0001:0002b180       __crtFlsGetValue           000000014002c180 f   libcpmt:winapisupp.obj
 0001:0002b1a0       __crtFlsSetValue           000000014002c1a0 f   libcpmt:winapisupp.obj
 0001:0002b1c0       __crtFlushProcessWriteBuffers 000000014002c1c0 f   libcpmt:winapisupp.obj
 0001:0002b1e0       __crtFreeLibraryWhenCallbackReturns 000000014002c1e0 f   libcpmt:winapisupp.obj
 0001:0002b200       __crtGetCurrentProcessorNumber 000000014002c200 f   libcpmt:winapisupp.obj
 0001:0002b21c       __crtGetFileInformationByHandleEx 000000014002c21c f   libcpmt:winapisupp.obj
 0001:0002b24c       __crtGetSystemTimePreciseAsFileTime 000000014002c24c f   libcpmt:winapisupp.obj
 0001:0002b26c       __crtGetTickCount64        000000014002c26c f   libcpmt:winapisupp.obj
 0001:0002b298       __crtInitOnceExecuteOnce   000000014002c298 f   libcpmt:winapisupp.obj
 0001:0002b364       __crtInitializeConditionVariable 000000014002c364 f   libcpmt:winapisupp.obj
 0001:0002b37c       __crtInitializeCriticalSectionEx 000000014002c37c f   libcpmt:winapisupp.obj
 0001:0002b3ac       __crtInitializeSRWLock     000000014002c3ac f   libcpmt:winapisupp.obj
 0001:0002b3c4       __crtIsPackagedApp         000000014002c3c4 f   libcpmt:winapisupp.obj
 0001:0002b3f0       __crtReleaseSRWLockExclusive 000000014002c3f0 f   libcpmt:winapisupp.obj
 0001:0002b408       __crtSetFileInformationByHandle 000000014002c408 f   libcpmt:winapisupp.obj
 0001:0002b438       __crtSetThreadpoolTimer    000000014002c438 f   libcpmt:winapisupp.obj
 0001:0002b458       __crtSetThreadpoolWait     000000014002c458 f   libcpmt:winapisupp.obj
 0001:0002b478       __crtSleepConditionVariableCS 000000014002c478 f   libcpmt:winapisupp.obj
 0001:0002b490       __crtSleepConditionVariableSRW 000000014002c490 f   libcpmt:winapisupp.obj
 0001:0002b4b0       __crtSubmitThreadpoolWork  000000014002c4b0 f   libcpmt:winapisupp.obj
 0001:0002b4c8       __crtTryAcquireSRWLockExclusive 000000014002c4c8 f   libcpmt:winapisupp.obj
 0001:0002b4e0       __crtWaitForThreadpoolTimerCallbacks 000000014002c4e0 f   libcpmt:winapisupp.obj
 0001:0002b500       __crtWakeAllConditionVariable 000000014002c500 f   libcpmt:winapisupp.obj
 0001:0002b518       __crtWakeConditionVariable 000000014002c518 f   libcpmt:winapisupp.obj
 0001:0002b530       __crt_IsPackagedAppHelper  000000014002c530 f   libcpmt:winapisupp.obj
 0001:0002b56c       ??1?$__crt_scoped_stack_ptr@_W@@QEAA@XZ 000000014002c56c f i libcpmt:StlLCMapStringA.obj
 0001:0002b590       ?is_valid@?$__crt_unique_heap_ptr@DU__crt_internal_free_policy@@@@QEBA_NXZ 000000014002c590 f i libvcruntime:std_type_info.obj
 0001:0002b590       ??B?$__crt_unique_heap_ptr@U__vcrt_ptd@@U__crt_internal_free_policy@@@@QEBA_NXZ 000000014002c590 f i libvcruntime:per_thread_data.obj
 0001:0002b590       ?is_valid@?$__crt_unique_heap_ptr@EU__crt_internal_free_policy@@@@QEBA_NXZ 000000014002c590 f i libucrt:argv_parsing.obj
 0001:0002b590       ??B?$__crt_unique_heap_ptr@_WU__crt_internal_free_policy@@@@QEBA_NXZ 000000014002c590 f i libucrt:environment_initialization.obj
 0001:0002b590       ?is_valid@?$__crt_unique_heap_ptr@U__vcrt_ptd@@U__crt_internal_free_policy@@@@QEBA_NXZ 000000014002c590 f i libvcruntime:per_thread_data.obj
 0001:0002b590       ??B?$__crt_unique_heap_ptr@U__crt_multibyte_data@@U__crt_internal_free_policy@@@@QEBA_NXZ 000000014002c590 f i libucrt:wsetlocale.obj
 0001:0002b590       ??B?$__crt_unique_heap_ptr@DU__crt_internal_free_policy@@@@QEBA_NXZ 000000014002c590 f i libvcruntime:std_type_info.obj
 0001:0002b590       ?is_valid@?$__crt_unique_heap_ptr@XU__crt_internal_free_policy@@@@QEBA_NXZ 000000014002c590 f i libvcruntime:std_type_info.obj
 0001:0002b590       ??B?$__crt_unique_heap_ptr@U__crt_lc_time_data@@U__crt_internal_free_policy@@@@QEBA_NXZ 000000014002c590 f i libucrt:inittime.obj
 0001:0002b590       ?is_valid@?$__crt_unique_heap_ptr@PEADU__crt_internal_free_policy@@@@QEBA_NXZ 000000014002c590 f i libucrt:environment_initialization.obj
 0001:0002b590       ?is_valid@?$__crt_unique_heap_ptr@U__crt_lowio_handle_data@@U__crt_internal_free_policy@@@@QEBA_NXZ 000000014002c590 f i libucrt:osfinfo.obj
 0001:0002b590       ?is_valid@?$__crt_unique_heap_ptr@U__crt_locale_data@@U__crt_internal_free_policy@@@@QEBA_NXZ 000000014002c590 f i libucrt:wsetlocale.obj
 0001:0002b590       ??B?$__crt_unique_heap_ptr@U__crt_locale_data@@U__crt_internal_free_policy@@@@QEBA_NXZ 000000014002c590 f i libucrt:wsetlocale.obj
 0001:0002b590       ?is_valid@?$__crt_unique_heap_ptr@U__acrt_ptd@@U__crt_internal_free_policy@@@@QEBA_NXZ 000000014002c590 f i libucrt:per_thread_data.obj
 0001:0002b590       ?is_valid@?$__crt_unique_heap_ptr@U__crt_lc_time_data@@U__crt_internal_free_policy@@@@QEBA_NXZ 000000014002c590 f i libucrt:inittime.obj
 0001:0002b590       ??B?$__crt_unique_heap_ptr@DU__crt_public_free_policy@@@@QEBA_NXZ 000000014002c590 f i libvcruntime:std_exception.obj
 0001:0002b590       ??B?$__crt_unique_heap_ptr@U__crt_locale_pointers@@U__crt_internal_free_policy@@@@QEBA_NXZ 000000014002c590 f i libucrt:wsetlocale.obj
 0001:0002b590       ?is_valid@?$__crt_unique_heap_ptr@_WU__crt_internal_free_policy@@@@QEBA_NXZ 000000014002c590 f i libucrt:environment_initialization.obj
 0001:0002b590       ?__ExceptionPtrToBool@@YA_NPEBX@Z 000000014002c590 f i libcpmt:excptptr.obj
 0001:0002b590       ??B?$__crt_unique_heap_ptr@XU__crt_internal_free_policy@@@@QEBA_NXZ 000000014002c590 f i libvcruntime:std_type_info.obj
 0001:0002b590       ?is_valid@?$__crt_unique_heap_ptr@U__crt_locale_pointers@@U__crt_internal_free_policy@@@@QEBA_NXZ 000000014002c590 f i libucrt:wsetlocale.obj
 0001:0002b590       ??B?$__crt_unique_heap_ptr@EU__crt_internal_free_policy@@@@QEBA_NXZ 000000014002c590 f i libucrt:argv_parsing.obj
 0001:0002b590       ?is_valid@?$__crt_unique_heap_ptr@U__crt_multibyte_data@@U__crt_internal_free_policy@@@@QEBA_NXZ 000000014002c590 f i libucrt:wsetlocale.obj
 0001:0002b590       ??B?$__crt_unique_heap_ptr@U__crt_lowio_handle_data@@U__crt_internal_free_policy@@@@QEBA_NXZ 000000014002c590 f i libucrt:osfinfo.obj
 0001:0002b590       ?valid@__crt_stdio_stream@@QEBA_NXZ 000000014002c590 f i libucrt:output.obj
 0001:0002b590       ??B?$__crt_unique_heap_ptr@PEADU__crt_internal_free_policy@@@@QEBA_NXZ 000000014002c590 f i libucrt:environment_initialization.obj
 0001:0002b590       ?is_valid@?$__crt_unique_heap_ptr@DU__crt_public_free_policy@@@@QEBA_NXZ 000000014002c590 f i libvcruntime:std_exception.obj
 0001:0002b590       ??B?$__crt_unique_heap_ptr@U__acrt_ptd@@U__crt_internal_free_policy@@@@QEBA_NXZ 000000014002c590 f i libucrt:per_thread_data.obj
 0001:0002b590       ??B?$__crt_scoped_stack_ptr@_W@@QEBA_NXZ 000000014002c590 f i libcpmt:StlLCMapStringA.obj
 0001:0002b590       ??B?$__crt_unique_heap_ptr@PEA_WU__crt_internal_free_policy@@@@QEBA_NXZ 000000014002c590 f i libucrt:environment_initialization.obj
 0001:0002b590       ?is_valid@?$__crt_unique_heap_ptr@PEA_WU__crt_internal_free_policy@@@@QEBA_NXZ 000000014002c590 f i libucrt:environment_initialization.obj
 0001:0002b590       ??B?$shared_ptr@V__ExceptionPtr@@@std@@QEBA_NXZ 000000014002c590 f i libcpmt:excptptr.obj
 0001:0002b598       _MallocaComputeSize        000000014002c598 f i libcpmt:StlLCMapStringA.obj
 0001:0002b5a8       _MarkAllocaS               000000014002c5a8 f i libcpmt:StlLCMapStringA.obj
 0001:0002b5b8       __crtLCMapStringA          000000014002c5b8 f   libcpmt:StlLCMapStringA.obj
 0001:0002b86c       _freea_crt                 000000014002c86c f i libcpmt:StlLCMapStringA.obj
 0001:0002b88c       ??1_NonReentrantBlockingLock@details@Concurrency@@QEAA@XZ 000000014002c88c f   libconcrt:rtlocks.obj
 0001:0002b88c       _Mtxdst                    000000014002c88c f   libcpmt:xmtx.obj
 0001:0002b88c       ??1_ReentrantBlockingLock@details@Concurrency@@QEAA@XZ 000000014002c88c f   libconcrt:rtlocks.obj
 0001:0002b894       _Mtxinit                   000000014002c894 f   libcpmt:xmtx.obj
 0001:0002b8a4       ?_Acquire@_NonReentrantBlockingLock@details@Concurrency@@QEAAXXZ 000000014002c8a4 f   libconcrt:rtlocks.obj
 0001:0002b8a4       ?_Acquire@_ReentrantBlockingLock@details@Concurrency@@QEAAXXZ 000000014002c8a4 f   libconcrt:rtlocks.obj
 0001:0002b8a4       _Mtxlock                   000000014002c8a4 f   libcpmt:xmtx.obj
 0001:0002b8ac       ?_Release@_NonReentrantBlockingLock@details@Concurrency@@QEAAXXZ 000000014002c8ac f   libconcrt:rtlocks.obj
 0001:0002b8ac       ?_Release@_ReentrantBlockingLock@details@Concurrency@@QEAAXXZ 000000014002c8ac f   libconcrt:rtlocks.obj
 0001:0002b8ac       _Mtxunlock                 000000014002c8ac f   libcpmt:xmtx.obj
 0001:0002b8b4       ??$?8DU?$char_traits@D@std@@@std@@YA_NAEBV?$istreambuf_iterator@DU?$char_traits@D@std@@@0@0@Z 000000014002c8b4 f i libcpmt:locale.obj
 0001:0002b8bc       ??$?9DU?$char_traits@D@std@@@std@@YA_NAEBV?$istreambuf_iterator@DU?$char_traits@D@std@@@0@0@Z 000000014002c8bc f i libcpmt:locale.obj
 0001:0002b8d0       ??$_Find_elem@D$0BL@@std@@YA_KAEAY0BL@$$CBDD@Z 000000014002c8d0 f i libcpmt:locale.obj
 0001:0002b908       ??$_Find_elem@D$0BN@@std@@YA_KAEAY0BN@$$CBDD@Z 000000014002c908 f i libcpmt:locale.obj
 0001:0002b940       ??$_Find_elem@D$0P@@std@@YA_KAEAY0P@$$CBDD@Z 000000014002c940 f i libcpmt:locale.obj
 0001:0002b978       ??$_Find_unchecked1@PEBDD@std@@YAPEBDPEBDQEBDAEBDU?$integral_constant@_N$00@0@@Z 000000014002c978 f i libcpmt:locale.obj
 0001:0002b9a4       ??$_Find_unchecked@PEBDD@std@@YAPEBDQEBD0AEBD@Z 000000014002c9a4 f i libcpmt:locale.obj
 0001:0002b9d0       ??$_Getloctxt@DV?$istreambuf_iterator@DU?$char_traits@D@std@@@std@@@std@@YAHAEAV?$istreambuf_iterator@DU?$char_traits@D@std@@@0@0_KPEBD@Z 000000014002c9d0 f i libcpmt:locale.obj
 0001:0002bbfc       ??$_Getvals@D@?$numpunct@D@std@@IEAAXDPEBUlconv@@U_Cvtvec@@@Z 000000014002cbfc f i libcpmt:locale.obj
 0001:0002bc10       ??$_Maklocchr@D@std@@YADDPEADAEBU_Cvtvec@@@Z 000000014002cc10 f i libcpmt:locale.obj
 0001:0002bc14       ??$_Maklocstr@D@std@@YAPEADPEBDPEADAEBU_Cvtvec@@@Z 000000014002cc14 f i libcpmt:locale.obj
 0001:0002c4a4       ?validate_and_update_state_at_end_of_format_string@?$standard_base@_WV?$string_output_adapter@_W@__crt_stdio_output@@@__crt_stdio_output@@IEBA_NXZ 000000014002d4a4 f i libucrt:output.obj
 0001:0002c4a4       ?IsPrimary@UMSFreeVirtualProcessorRoot@details@Concurrency@@UEAA_NXZ 000000014002d4a4 f i libconcrt:UMSFreeVirtualProcessorRoot.obj
 0001:0002c4a4       ??$_Within_limits@D@std@@YA_NAEBDU?$integral_constant@_N$00@0@1U_Unused_parameter@0@@Z 000000014002d4a4 f i libcpmt:locale.obj
 0001:0002c4a4       ?validate_and_update_state_at_beginning_of_format_character@?$standard_base@DV?$stream_output_adapter@D@__crt_stdio_output@@@__crt_stdio_output@@IEAA_NXZ 000000014002d4a4 f i libucrt:output.obj
 0001:0002c4a4       ?validate_state_for_type_case_a@?$standard_base@_WV?$string_output_adapter@_W@__crt_stdio_output@@@__crt_stdio_output@@IEBA_NXZ 000000014002d4a4 f i libucrt:output.obj
 0001:0002c4a4       ?validate_state_for_type_case_a@?$standard_base@_WV?$stream_output_adapter@_W@__crt_stdio_output@@@__crt_stdio_output@@IEBA_NXZ 000000014002d4a4 f i libucrt:output.obj
 0001:0002c4a4       ?validate_state_for_type_case_a@?$standard_base@DV?$string_output_adapter@D@__crt_stdio_output@@@__crt_stdio_output@@IEBA_NXZ 000000014002d4a4 f i libucrt:output.obj
 0001:0002c4a4       ?should_format@?$standard_base@_WV?$string_output_adapter@_W@__crt_stdio_output@@@__crt_stdio_output@@IEAA_NXZ 000000014002d4a4 f i libucrt:output.obj
 0001:0002c4a4       ?validate_stream_is_ansi_if_required@?$__acrt_stdio_char_traits@_W@@SA_NQEAU_iobuf@@@Z 000000014002d4a4 f i libucrt:output.obj
 0001:0002c4a4       ?IsInsideCriticalRegion@ContextBase@details@Concurrency@@QEBA_NXZ 000000014002d4a4 f i libconcrt:ContextBase.obj
 0001:0002c4a4       ?IsPrimary@TransmogrifiedPrimary@details@Concurrency@@UEAA_NXZ 000000014002d4a4 f i libconcrt:TransmogrifiedPrimary.obj
 0001:0002c4a4       ?should_format@?$standard_base@DV?$string_output_adapter@D@__crt_stdio_output@@@__crt_stdio_output@@IEAA_NXZ 000000014002d4a4 f i libucrt:output.obj
 0001:0002c4a4       ?validate_and_update_state_at_beginning_of_format_character@?$standard_base@_WV?$string_output_adapter@_W@__crt_stdio_output@@@__crt_stdio_output@@IEAA_NXZ 000000014002d4a4 f i libucrt:output.obj
 0001:0002c4a4       ??$_Within_limits@PEBDD@std@@YA_NPEBDAEBD@Z 000000014002d4a4 f i libcpmt:locale.obj
 0001:0002c4a4       _should_initialize_environment 000000014002d4a4 f i LIBCMT:env_mode.obj
 0001:0002c4a4       ?SweepWaitNode@SingleWaitBlock@details@Concurrency@@UEAA_NXZ 000000014002d4a4 f i libconcrt:event.obj
 0001:0002c4a4       ?validate_and_update_state_at_end_of_format_string@?$standard_base@_WV?$stream_output_adapter@_W@__crt_stdio_output@@@__crt_stdio_output@@IEBA_NXZ 000000014002d4a4 f i libucrt:output.obj
 0001:0002c4a4       ?_ArePolicyCombinationsValid@SchedulerPolicy@Concurrency@@AEBA_NXZ 000000014002d4a4 f i libconcrt:SchedulerPolicyBase.obj
 0001:0002c4a4       ?AllowGeneralFetchOfReservedContexts@SchedulerBase@details@Concurrency@@MEAA_NXZ 000000014002d4a4 f i libconcrt:SchedulerBase.obj
 0001:0002c4a4       __acrt_uninitialize_command_line 000000014002d4a4 f i libucrt:argv_data.obj
 0001:0002c4a4       ?should_format@?$standard_base@DV?$stream_output_adapter@D@__crt_stdio_output@@@__crt_stdio_output@@IEAA_NXZ 000000014002d4a4 f i libucrt:output.obj
 0001:0002c4a4       ?validate_and_update_state_at_beginning_of_format_character@?$standard_base@_WV?$stream_output_adapter@_W@__crt_stdio_output@@@__crt_stdio_output@@IEAA_NXZ 000000014002d4a4 f i libucrt:output.obj
 0001:0002c4a4       ?validate_and_update_state_at_end_of_format_string@?$standard_base@DV?$string_output_adapter@D@__crt_stdio_output@@@__crt_stdio_output@@IEBA_NXZ 000000014002d4a4 f i libucrt:output.obj
 0001:0002c4a4       ?should_format@?$standard_base@_WV?$stream_output_adapter@_W@__crt_stdio_output@@@__crt_stdio_output@@IEAA_NXZ 000000014002d4a4 f i libucrt:output.obj
 0001:0002c4a4       ?validate_and_update_state_at_beginning_of_format_character@?$standard_base@DV?$string_output_adapter@D@__crt_stdio_output@@@__crt_stdio_output@@IEAA_NXZ 000000014002d4a4 f i libucrt:output.obj
 0001:0002c4a4       ?validate_state_for_type_case_a@?$standard_base@DV?$stream_output_adapter@D@__crt_stdio_output@@@__crt_stdio_output@@IEBA_NXZ 000000014002d4a4 f i libucrt:output.obj
 0001:0002c4a4       ?validate_and_update_state_at_end_of_format_string@?$standard_base@DV?$stream_output_adapter@D@__crt_stdio_output@@@__crt_stdio_output@@IEBA_NXZ 000000014002d4a4 f i libucrt:output.obj
 0001:0002c4a8       ??$use_facet@V?$num_get@DV?$istreambuf_iterator@DU?$char_traits@D@std@@@std@@@std@@@std@@YAAEBV?$num_get@DV?$istreambuf_iterator@DU?$char_traits@D@std@@@std@@@0@AEBVlocale@0@@Z 000000014002d4a8 f i libcpmt:locale.obj
 0001:0002c5dc       ??$use_facet@V?$num_put@DV?$ostreambuf_iterator@DU?$char_traits@D@std@@@std@@@std@@@std@@YAAEBV?$num_put@DV?$ostreambuf_iterator@DU?$char_traits@D@std@@@std@@@0@AEBVlocale@0@@Z 000000014002d5dc f i libcpmt:locale.obj
 0001:0002c710       ??$use_facet@V?$numpunct@D@std@@@std@@YAAEBV?$numpunct@D@0@AEBVlocale@0@@Z 000000014002d710 f i libcpmt:locale.obj
 0001:0002c844       ??0?$num_get@DV?$istreambuf_iterator@DU?$char_traits@D@std@@@std@@@std@@QEAA@AEBV_Locinfo@1@_K@Z 000000014002d844 f i libcpmt:locale.obj
 0001:0002c858       ??0?$num_put@DV?$ostreambuf_iterator@DU?$char_traits@D@std@@@std@@@std@@QEAA@AEBV_Locinfo@1@_K@Z 000000014002d858 f i libcpmt:locale.obj
 0001:0002c86c       ??0?$numpunct@D@std@@QEAA@AEBV_Locinfo@1@_K_N@Z 000000014002d86c f i libcpmt:locale.obj
 0001:0002c8a4       ??1?$_Yarn@_W@std@@QEAA@XZ 000000014002d8a4 f i libcpmt:locale.obj
 0001:0002c8c4       ??1messages_base@std@@UEAA@XZ 000000014002d8c4 f i libcpmt:wlocale.obj
 0001:0002c8c4       ??1?$num_get@_WV?$istreambuf_iterator@_WU?$char_traits@_W@std@@@std@@@std@@MEAA@XZ 000000014002d8c4 f i libcpmt:wlocale.obj
 0001:0002c8c4       ??1?$messages@D@std@@MEAA@XZ 000000014002d8c4 f i libcpmt:xlocale.obj
 0001:0002c8c4       ??1?$num_get@GV?$istreambuf_iterator@GU?$char_traits@G@std@@@std@@@std@@MEAA@XZ 000000014002d8c4 f i libcpmt:wlocale.obj
 0001:0002c8c4       ??1?$num_put@GV?$ostreambuf_iterator@GU?$char_traits@G@std@@@std@@@std@@MEAA@XZ 000000014002d8c4 f i libcpmt:wlocale.obj
 0001:0002c8c4       ??1?$messages@_W@std@@MEAA@XZ 000000014002d8c4 f i libcpmt:wlocale.obj
 0001:0002c8c4       ??1?$num_get@DV?$istreambuf_iterator@DU?$char_traits@D@std@@@std@@@std@@MEAA@XZ 000000014002d8c4 f i libcpmt:locale.obj
 0001:0002c8c4       ??1?$money_get@_WV?$istreambuf_iterator@_WU?$char_traits@_W@std@@@std@@@std@@MEAA@XZ 000000014002d8c4 f i libcpmt:wlocale.obj
 0001:0002c8c4       ??1money_base@std@@UEAA@XZ 000000014002d8c4 f i libcpmt:wlocale.obj
 0001:0002c8c4       ??1?$money_get@DV?$istreambuf_iterator@DU?$char_traits@D@std@@@std@@@std@@MEAA@XZ 000000014002d8c4 f i libcpmt:xlocale.obj
 0001:0002c8c4       ??1?$money_put@_WV?$ostreambuf_iterator@_WU?$char_traits@_W@std@@@std@@@std@@MEAA@XZ 000000014002d8c4 f i libcpmt:wlocale.obj
 0001:0002c8c4       ??1?$codecvt@_WDU_Mbstatet@@@std@@MEAA@XZ 000000014002d8c4 f i libcpmt:wlocale.obj
 0001:0002c8c4       ??1?$codecvt@GDU_Mbstatet@@@std@@MEAA@XZ 000000014002d8c4 f i libcpmt:wlocale.obj
 0001:0002c8c4       ??1time_base@std@@UEAA@XZ  000000014002d8c4 f i libcpmt:wlocale.obj
 0001:0002c8c4       ??1?$num_put@_WV?$ostreambuf_iterator@_WU?$char_traits@_W@std@@@std@@@std@@MEAA@XZ 000000014002d8c4 f i libcpmt:wlocale.obj
 0001:0002c8c4       ??1?$money_get@GV?$istreambuf_iterator@GU?$char_traits@G@std@@@std@@@std@@MEAA@XZ 000000014002d8c4 f i libcpmt:wlocale.obj
 0001:0002c8c4       ??1?$money_put@DV?$ostreambuf_iterator@DU?$char_traits@D@std@@@std@@@std@@MEAA@XZ 000000014002d8c4 f i libcpmt:xlocale.obj
 0001:0002c8c4       ??1?$num_put@DV?$ostreambuf_iterator@DU?$char_traits@D@std@@@std@@@std@@MEAA@XZ 000000014002d8c4 f i libcpmt:locale.obj
 0001:0002c8c4       ??1?$money_put@GV?$ostreambuf_iterator@GU?$char_traits@G@std@@@std@@@std@@MEAA@XZ 000000014002d8c4 f i libcpmt:wlocale.obj
 0001:0002c8c4       ??1?$messages@G@std@@MEAA@XZ 000000014002d8c4 f i libcpmt:wlocale.obj
 0001:0002c8d0       ??1?$numpunct@D@std@@MEAA@XZ 000000014002d8d0 f i libcpmt:locale.obj
 0001:0002c910       ??4?$basic_string@DU?$char_traits@D@std@@V?$allocator@D@2@@std@@QEAAAEAV01@$$QEAV01@@Z 000000014002d910 f i libcpmt:locale.obj
 0001:0002c998       ??4?$ostreambuf_iterator@DU?$char_traits@D@std@@@std@@QEAAAEAV01@D@Z 000000014002d998 f i libcpmt:locale.obj
 0001:0002ca08       ??A?$basic_string@DU?$char_traits@D@std@@V?$allocator@D@2@@std@@QEBAAEBD_K@Z 000000014002da08 f i libcpmt:locale.obj
 0001:0002ca18       ??D?$istreambuf_iterator@DU?$char_traits@D@std@@@std@@QEBADXZ 000000014002da18 f i libcpmt:locale.obj
 0001:0002ca78       ??E?$istreambuf_iterator@DU?$char_traits@D@std@@@std@@QEAAAEAV01@XZ 000000014002da78 f i libcpmt:locale.obj
 0001:0002cc2c       ??Y?$basic_string@DU?$char_traits@D@std@@V?$allocator@D@2@@std@@QEAAAEAV01@AEBV01@@Z 000000014002dc2c f i libcpmt:locale.obj
 0001:0002cc48       ??_G?$num_get@DV?$istreambuf_iterator@DU?$char_traits@D@std@@@std@@@std@@MEAAPEAXI@Z 000000014002dc48 f i libcpmt:locale.obj
 0001:0002cc48       ??_E?$num_get@DV?$istreambuf_iterator@DU?$char_traits@D@std@@@std@@@std@@MEAAPEAXI@Z 000000014002dc48 f i libcpmt:locale.obj
 0001:0002cc74       ??_E?$num_put@DV?$ostreambuf_iterator@DU?$char_traits@D@std@@@std@@@std@@MEAAPEAXI@Z 000000014002dc74 f i libcpmt:locale.obj
 0001:0002cc74       ??_G?$num_put@DV?$ostreambuf_iterator@DU?$char_traits@D@std@@@std@@@std@@MEAAPEAXI@Z 000000014002dc74 f i libcpmt:locale.obj
 0001:0002cca0       ??_G?$numpunct@D@std@@MEAAPEAXI@Z 000000014002dca0 f i libcpmt:locale.obj
 0001:0002cca0       ??_E?$numpunct@D@std@@MEAAPEAXI@Z 000000014002dca0 f i libcpmt:locale.obj
 0001:0002cd00       ?_Addfac@_Locimp@locale@std@@AEAAXPEAVfacet@23@_K@Z 000000014002dd00 f i libcpmt:locale.obj
 0001:0002cd08       ?_Ffmt@?$num_put@DV?$ostreambuf_iterator@DU?$char_traits@D@std@@@std@@@std@@AEBAPEADPEADDH@Z 000000014002dd08 f i libcpmt:locale.obj
 0001:0002cd08       ?_Ffmt@?$num_put@GV?$ostreambuf_iterator@GU?$char_traits@G@std@@@std@@@std@@AEBAPEADPEADDH@Z 000000014002dd08 f i libcpmt:wlocale.obj
 0001:0002cd08       ?_Ffmt@?$num_put@_WV?$ostreambuf_iterator@_WU?$char_traits@_W@std@@@std@@@std@@AEBAPEADPEADDH@Z 000000014002dd08 f i libcpmt:wlocale.obj
 0001:0002cda4       ?_Fput@?$num_put@DV?$ostreambuf_iterator@DU?$char_traits@D@std@@@std@@@std@@AEBA?AV?$ostreambuf_iterator@DU?$char_traits@D@std@@@2@V32@AEAVios_base@2@DPEBD_K@Z 000000014002dda4 f i libcpmt:locale.obj
 0001:0002d240       ?_Getcat@?$num_get@DV?$istreambuf_iterator@DU?$char_traits@D@std@@@std@@@std@@SA_KPEAPEBVfacet@locale@2@PEBV42@@Z 000000014002e240 f i libcpmt:locale.obj
 0001:0002d304       ?_Getcat@?$num_put@DV?$ostreambuf_iterator@DU?$char_traits@D@std@@@std@@@std@@SA_KPEAPEBVfacet@locale@2@PEBV42@@Z 000000014002e304 f i libcpmt:locale.obj
 0001:0002d3c8       ?_Getcat@?$numpunct@D@std@@SA_KPEAPEBVfacet@locale@2@PEBV42@@Z 000000014002e3c8 f i libcpmt:locale.obj
 0001:0002d49c       ?_Getcvt@_Locinfo@std@@QEBA?AU_Cvtvec@@XZ 000000014002e49c f i libcpmt:locale.obj
 0001:0002d4d8       ?_Getfalse@_Locinfo@std@@QEBAPEBDXZ 000000014002e4d8 f i libcpmt:locale.obj
 0001:0002d4e0       ?_Getffld@?$num_get@DV?$istreambuf_iterator@DU?$char_traits@D@std@@@std@@@std@@AEBAHPEADAEAV?$istreambuf_iterator@DU?$char_traits@D@std@@@2@1AEAVios_base@2@PEAH@Z 000000014002e4e0 f i libcpmt:locale.obj
 0001:0002e1ac       ?_Getffldx@?$num_get@DV?$istreambuf_iterator@DU?$char_traits@D@std@@@std@@@std@@AEBAHPEADAEAV?$istreambuf_iterator@DU?$char_traits@D@std@@@2@1AEAVios_base@2@PEAH@Z 000000014002f1ac f i libcpmt:locale.obj
 0001:0002eedc       ?_Getifld@?$num_get@DV?$istreambuf_iterator@DU?$char_traits@D@std@@@std@@@std@@AEBAHPEADAEAV?$istreambuf_iterator@DU?$char_traits@D@std@@@2@1HAEBVlocale@2@@Z 000000014002fedc f i libcpmt:locale.obj
 0001:0002f594       ?_Getlconv@_Locinfo@std@@QEBAPEBUlconv@@XZ 0000000140030594 f i libcpmt:locale.obj
 0001:0002f59c       ?_Getname@_Locinfo@std@@QEBAPEBDXZ 000000014003059c f i libcpmt:locale.obj
 0001:0002f5ac       ?_Gettrue@_Locinfo@std@@QEBAPEBDXZ 00000001400305ac f i libcpmt:locale.obj
 0001:0002f5b4       ?_Ifmt@?$num_put@_WV?$ostreambuf_iterator@_WU?$char_traits@_W@std@@@std@@@std@@AEBAPEADPEADPEBDH@Z 00000001400305b4 f i libcpmt:wlocale.obj
 0001:0002f5b4       ?_Ifmt@?$num_put@GV?$ostreambuf_iterator@GU?$char_traits@G@std@@@std@@@std@@AEBAPEADPEADPEBDH@Z 00000001400305b4 f i libcpmt:wlocale.obj
 0001:0002f5b4       ?_Ifmt@?$num_put@DV?$ostreambuf_iterator@DU?$char_traits@D@std@@@std@@@std@@AEBAPEADPEADPEBDH@Z 00000001400305b4 f i libcpmt:locale.obj
 0001:0002f630       ?_Inc@?$istreambuf_iterator@DU?$char_traits@D@std@@@std@@AEAAXXZ 0000000140030630 f i libcpmt:locale.obj
 0001:0002f69c       ?_Init@?$numpunct@D@std@@IEAAXAEBV_Locinfo@2@_N@Z 000000014003069c f i libcpmt:locale.obj
 0001:0002f804       ?_Iput@?$num_put@DV?$ostreambuf_iterator@DU?$char_traits@D@std@@@std@@@std@@AEBA?AV?$ostreambuf_iterator@DU?$char_traits@D@std@@@2@V32@AEAVios_base@2@DPEAD_K@Z 0000000140030804 f i libcpmt:locale.obj
 0001:0002fc30       ?_Locimp_Addfac@_Locimp@locale@std@@CAXPEAV123@PEAVfacet@23@_K@Z 0000000140030c30 f   libcpmt:locale.obj
 0001:0002fd24       ?_Locimp_ctor@_Locimp@locale@std@@CAXPEAV123@AEBV123@@Z 0000000140030d24 f   libcpmt:locale.obj
 0001:0002fe04       ?_Locinfo_Addcats@_Locinfo@std@@SAAEAV12@PEAV12@HPEBD@Z 0000000140030e04 f   libcpmt:locale.obj
 0001:0002fecc       ?_Locinfo_ctor@_Locinfo@std@@SAXPEAV12@HPEBD@Z 0000000140030ecc f   libcpmt:locale.obj
 0001:0002ff24       ?_Makeloc@_Locimp@locale@std@@CAPEAV123@AEBV_Locinfo@3@HPEAV123@PEBV23@@Z 0000000140030f24 f   libcpmt:locale.obj
 0001:0003043c       ?_Peek@?$istreambuf_iterator@DU?$char_traits@D@std@@@std@@AEBADXZ 000000014003143c f i libcpmt:locale.obj
 0001:00030498       ?_Put@?$num_put@DV?$ostreambuf_iterator@DU?$char_traits@D@std@@@std@@@std@@AEBA?AV?$ostreambuf_iterator@DU?$char_traits@D@std@@@2@V32@PEBD_K@Z 0000000140031498 f i libcpmt:locale.obj
 0001:000304f4       ?_Rep@?$num_put@DV?$ostreambuf_iterator@DU?$char_traits@D@std@@@std@@@std@@AEBA?AV?$ostreambuf_iterator@DU?$char_traits@D@std@@@2@V32@D_K@Z 00000001400314f4 f i libcpmt:locale.obj
 0001:0003054c       ?_Stodx_v2@std@@YANPEBDPEAPEADHPEAH@Z 000000014003154c f i libcpmt:locale.obj
 0001:000305d8       ?_Stofx_v2@std@@YAMPEBDPEAPEADHPEAH@Z 00000001400315d8 f i libcpmt:locale.obj
 0001:00030664       ?_Tidy@?$numpunct@D@std@@AEAAXXZ 0000000140031664 f i libcpmt:locale.obj
 0001:00030690       ?assign@?$basic_string@DU?$char_traits@D@std@@V?$allocator@D@2@@std@@QEAAAEAV12@$$QEAV12@@Z 0000000140031690 f i libcpmt:locale.obj
 0001:000306a8       ?date_order@?$time_get@DV?$istreambuf_iterator@DU?$char_traits@D@std@@@std@@@std@@QEBA?AW4dateorder@time_base@2@XZ 00000001400316a8 f i libcpmt:xlocale.obj
 0001:000306a8       ?decimal_point@?$_Mpunct@D@std@@QEBADXZ 00000001400316a8 f i libcpmt:xlocale.obj
 0001:000306a8       ?decimal_point@?$numpunct@_W@std@@QEBA_WXZ 00000001400316a8 f i libcpmt:wlocale.obj
 0001:000306a8       ?date_order@?$time_get@GV?$istreambuf_iterator@GU?$char_traits@G@std@@@std@@@std@@QEBA?AW4dateorder@time_base@2@XZ 00000001400316a8 f i libcpmt:wlocale.obj
 0001:000306a8       ?decimal_point@?$numpunct@G@std@@QEBAGXZ 00000001400316a8 f i libcpmt:wlocale.obj
 0001:000306a8       ?decimal_point@?$_Mpunct@_W@std@@QEBA_WXZ 00000001400316a8 f i libcpmt:wlocale.obj
 0001:000306a8       ?decimal_point@?$_Mpunct@G@std@@QEBAGXZ 00000001400316a8 f i libcpmt:wlocale.obj
 0001:000306a8       ?decimal_point@?$numpunct@D@std@@QEBADXZ 00000001400316a8 f i libcpmt:locale.obj
 0001:000306a8       ?date_order@?$time_get@_WV?$istreambuf_iterator@_WU?$char_traits@_W@std@@@std@@@std@@QEBA?AW4dateorder@time_base@2@XZ 00000001400316a8 f i libcpmt:wlocale.obj
 0001:000306b8       ?do_decimal_point@?$numpunct@D@std@@MEBADXZ 00000001400316b8 f i libcpmt:locale.obj
 0001:000306b8       ?MarkedForDetachment@?$WorkStealingQueue@V_UnrealizedChore@details@Concurrency@@V_CriticalNonReentrantLock@23@@details@Concurrency@@QEBA_NXZ 00000001400316b8 f i libconcrt:WorkQueue.obj
 0001:000306b8       ?do_decimal_point@?$_Mpunct@D@std@@MEBADXZ 00000001400316b8 f i libcpmt:xlocale.obj
 0001:000306bc       ?do_falsename@?$numpunct@D@std@@MEBA?AV?$basic_string@DU?$char_traits@D@std@@V?$allocator@D@2@@2@XZ 00000001400316bc f i libcpmt:locale.obj
 0001:000306ec       ?do_get@?$num_get@DV?$istreambuf_iterator@DU?$char_traits@D@std@@@std@@@std@@MEBA?AV?$istreambuf_iterator@DU?$char_traits@D@std@@@2@V32@0AEAVios_base@2@AEAHAEAG@Z 00000001400316ec f i libcpmt:locale.obj
 0001:00030850       ?do_get@?$num_get@DV?$istreambuf_iterator@DU?$char_traits@D@std@@@std@@@std@@MEBA?AV?$istreambuf_iterator@DU?$char_traits@D@std@@@2@V32@0AEAVios_base@2@AEAHAEAI@Z 0000000140031850 f i libcpmt:locale.obj
 0001:000308d0       ?do_get@?$num_get@DV?$istreambuf_iterator@DU?$char_traits@D@std@@@std@@@std@@MEBA?AV?$istreambuf_iterator@DU?$char_traits@D@std@@@2@V32@0AEAVios_base@2@AEAHAEAJ@Z 00000001400318d0 f i libcpmt:locale.obj
 0001:00030a04       ?do_get@?$num_get@DV?$istreambuf_iterator@DU?$char_traits@D@std@@@std@@@std@@MEBA?AV?$istreambuf_iterator@DU?$char_traits@D@std@@@2@V32@0AEAVios_base@2@AEAHAEAK@Z 0000000140031a04 f i libcpmt:locale.obj
 0001:00030b38       ?do_get@?$num_get@DV?$istreambuf_iterator@DU?$char_traits@D@std@@@std@@@std@@MEBA?AV?$istreambuf_iterator@DU?$char_traits@D@std@@@2@V32@0AEAVios_base@2@AEAHAEAM@Z 0000000140031b38 f i libcpmt:locale.obj
 0001:00030c50       ?do_get@?$num_get@DV?$istreambuf_iterator@DU?$char_traits@D@std@@@std@@@std@@MEBA?AV?$istreambuf_iterator@DU?$char_traits@D@std@@@2@V32@0AEAVios_base@2@AEAHAEAN@Z 0000000140031c50 f i libcpmt:locale.obj
 0001:00030d5c       ?do_get@?$num_get@DV?$istreambuf_iterator@DU?$char_traits@D@std@@@std@@@std@@MEBA?AV?$istreambuf_iterator@DU?$char_traits@D@std@@@2@V32@0AEAVios_base@2@AEAHAEAO@Z 0000000140031d5c f i libcpmt:locale.obj
 0001:00030de0       ?do_get@?$num_get@DV?$istreambuf_iterator@DU?$char_traits@D@std@@@std@@@std@@MEBA?AV?$istreambuf_iterator@DU?$char_traits@D@std@@@2@V32@0AEAVios_base@2@AEAHAEAPEAX@Z 0000000140031de0 f i libcpmt:locale.obj
 0001:00030f08       ?do_get@?$num_get@DV?$istreambuf_iterator@DU?$char_traits@D@std@@@std@@@std@@MEBA?AV?$istreambuf_iterator@DU?$char_traits@D@std@@@2@V32@0AEAVios_base@2@AEAHAEA_J@Z 0000000140031f08 f i libcpmt:locale.obj
 0001:0003103c       ?do_get@?$num_get@DV?$istreambuf_iterator@DU?$char_traits@D@std@@@std@@@std@@MEBA?AV?$istreambuf_iterator@DU?$char_traits@D@std@@@2@V32@0AEAVios_base@2@AEAHAEA_K@Z 000000014003203c f i libcpmt:locale.obj
 0001:00031170       ?do_get@?$num_get@DV?$istreambuf_iterator@DU?$char_traits@D@std@@@std@@@std@@MEBA?AV?$istreambuf_iterator@DU?$char_traits@D@std@@@2@V32@0AEAVios_base@2@AEAHAEA_N@Z 0000000140032170 f i libcpmt:locale.obj
 0001:000314dc       ?do_grouping@?$numpunct@D@std@@MEBA?AV?$basic_string@DU?$char_traits@D@std@@V?$allocator@D@2@@2@XZ 00000001400324dc f i libcpmt:locale.obj
 0001:0003150c       ?do_put@?$num_put@DV?$ostreambuf_iterator@DU?$char_traits@D@std@@@std@@@std@@MEBA?AV?$ostreambuf_iterator@DU?$char_traits@D@std@@@2@V32@AEAVios_base@2@DJ@Z 000000014003250c f i libcpmt:locale.obj
 0001:000315bc       ?do_put@?$num_put@DV?$ostreambuf_iterator@DU?$char_traits@D@std@@@std@@@std@@MEBA?AV?$ostreambuf_iterator@DU?$char_traits@D@std@@@2@V32@AEAVios_base@2@DK@Z 00000001400325bc f i libcpmt:locale.obj
 0001:0003166c       ?do_put@?$num_put@DV?$ostreambuf_iterator@DU?$char_traits@D@std@@@std@@@std@@MEBA?AV?$ostreambuf_iterator@DU?$char_traits@D@std@@@2@V32@AEAVios_base@2@DN@Z 000000014003266c f i libcpmt:locale.obj
 0001:0003184c       ?do_put@?$num_put@DV?$ostreambuf_iterator@DU?$char_traits@D@std@@@std@@@std@@MEBA?AV?$ostreambuf_iterator@DU?$char_traits@D@std@@@2@V32@AEAVios_base@2@DO@Z 000000014003284c f i libcpmt:locale.obj
 0001:00031a2c       ?do_put@?$num_put@DV?$ostreambuf_iterator@DU?$char_traits@D@std@@@std@@@std@@MEBA?AV?$ostreambuf_iterator@DU?$char_traits@D@std@@@2@V32@AEAVios_base@2@DPEBX@Z 0000000140032a2c f i libcpmt:locale.obj
 0001:00031ac8       ?do_put@?$num_put@DV?$ostreambuf_iterator@DU?$char_traits@D@std@@@std@@@std@@MEBA?AV?$ostreambuf_iterator@DU?$char_traits@D@std@@@2@V32@AEAVios_base@2@D_J@Z 0000000140032ac8 f i libcpmt:locale.obj
 0001:00031b78       ?do_put@?$num_put@DV?$ostreambuf_iterator@DU?$char_traits@D@std@@@std@@@std@@MEBA?AV?$ostreambuf_iterator@DU?$char_traits@D@std@@@2@V32@AEAVios_base@2@D_K@Z 0000000140032b78 f i libcpmt:locale.obj
 0001:00031c28       ?do_put@?$num_put@DV?$ostreambuf_iterator@DU?$char_traits@D@std@@@std@@@std@@MEBA?AV?$ostreambuf_iterator@DU?$char_traits@D@std@@@2@V32@AEAVios_base@2@D_N@Z 0000000140032c28 f i libcpmt:locale.obj
 0001:00031ee0       ?do_thousands_sep@?$numpunct@D@std@@MEBADXZ 0000000140032ee0 f i libcpmt:locale.obj
 0001:00031ee0       ?do_thousands_sep@?$_Mpunct@D@std@@MEBADXZ 0000000140032ee0 f i libcpmt:xlocale.obj
 0001:00031ee4       ?do_truename@?$numpunct@D@std@@MEBA?AV?$basic_string@DU?$char_traits@D@std@@V?$allocator@D@2@@2@XZ 0000000140032ee4 f i libcpmt:locale.obj
 0001:00031f14       ?do_open@?$messages@D@std@@MEBAHAEBV?$basic_string@DU?$char_traits@D@std@@V?$allocator@D@2@@2@AEBVlocale@2@@Z 0000000140032f14 f i libcpmt:xlocale.obj
 0001:00031f14       ?do_open@?$messages@G@std@@MEBAHAEBV?$basic_string@DU?$char_traits@D@std@@V?$allocator@D@2@@2@AEBVlocale@2@@Z 0000000140032f14 f i libcpmt:wlocale.obj
 0001:00031f14       ?eof@?$char_traits@D@std@@SAHXZ 0000000140032f14 f i libcpmt:locale.obj
 0001:00031f14       ?GetVirtualProcessorId@ExternalContextBase@details@Concurrency@@UEBAIXZ 0000000140032f14 f i libconcrt:ExternalContextBase.obj
 0001:00031f14       ?do_open@?$messages@_W@std@@MEBAHAEBV?$basic_string@DU?$char_traits@D@std@@V?$allocator@D@2@@2@AEBVlocale@2@@Z 0000000140032f14 f i libcpmt:wlocale.obj
 0001:00031f18       ?equal@?$istreambuf_iterator@DU?$char_traits@D@std@@@std@@QEBA_NAEBV12@@Z 0000000140032f18 f i libcpmt:locale.obj
 0001:00031ff4       ?falsename@?$numpunct@D@std@@QEBA?AV?$basic_string@DU?$char_traits@D@std@@V?$allocator@D@2@@2@XZ 0000000140032ff4 f i libcpmt:locale.obj
 0001:00032014       ?flags@ios_base@std@@QEBAHXZ 0000000140033014 f i libcpmt:locale.obj
 0001:00032014       ?LastDataPointCount@MeasuredHistory@HillClimbing@details@Concurrency@@QEAAIXZ 0000000140033014 f i libconcrt:HillClimbing.obj
 0001:00032014       ?get_error_code@scheduler_resource_allocation_error@Concurrency@@QEBAJXZ 0000000140033014 f i libconcrt:Exceptions.obj
 0001:00032018       ?global@locale@std@@SA?AV12@AEBV12@@Z 0000000140033018 f   libcpmt:locale.obj
 0001:0003211c       ?grouping@?$numpunct@D@std@@QEBA?AV?$basic_string@DU?$char_traits@D@std@@V?$allocator@D@2@@2@XZ 000000014003311c f i libcpmt:locale.obj
 0001:0003213c       ?insert@?$basic_string@DU?$char_traits@D@std@@V?$allocator@D@2@@std@@QEAAAEAV12@_K0D@Z 000000014003313c f i libcpmt:locale.obj
 0001:000321e0       ?size@?$__crt_win32_buffer@DU__crt_win32_buffer_no_resizing@@@@QEBA_KXZ 00000001400331e0 f i libucrt:strftime.obj
 0001:000321e0       ?GetProxy@UMSSchedulingContext@details@Concurrency@@UEAAPEAUIThreadProxy@3@XZ 00000001400331e0 f i libconcrt:UMSSchedulingContext.obj
 0001:000321e0       ?GetVirtualProcessorRoot@ThreadProxy@details@Concurrency@@QEAAPEAVVirtualProcessorRoot@23@XZ 00000001400331e0 f i libconcrt:SchedulerProxy.obj
 0001:000321e0       ?GetUMSContext@UMSThreadProxy@details@Concurrency@@QEBAPEAXXZ 00000001400331e0 f i libconcrt:TransmogrifiedPrimary.obj
 0001:000321e0       ?GetAllocatedNodes@SchedulerProxy@details@Concurrency@@QEBAPEAUSchedulerNode@23@XZ 00000001400331e0 f i libconcrt:ResourceManager.obj
 0001:000321e0       ?precision@ios_base@std@@QEBA_JXZ 00000001400331e0 f i libcpmt:locale.obj
 0001:000321e0       ?GetSchedulerProxy@ExecutionResource@details@Concurrency@@QEAAPEAVSchedulerProxy@23@XZ 00000001400331e0 f i libconcrt:ResourceManager.obj
 0001:000321e0       ?GetWaitBlock@MultiWaitBlockHolder@details@Concurrency@@QEBAPEAVMultiWaitBlock@23@XZ 00000001400331e0 f i libconcrt:event.obj
 0001:000321e8       ?sputc@?$basic_streambuf@DU?$char_traits@D@std@@@std@@QEAAHD@Z 00000001400331e8 f i libcpmt:locale.obj
 0001:00032244       ?truename@?$numpunct@D@std@@QEBA?AV?$basic_string@DU?$char_traits@D@std@@V?$allocator@D@2@@2@XZ 0000000140033244 f i libcpmt:locale.obj
 0001:00032264       ?widen@?$ctype@D@std@@QEBAPEBDPEBD0PEAD@Z 0000000140033264 f i libcpmt:locale.obj
 0001:0003227c       ?width@ios_base@std@@QEAA_J_J@Z 000000014003327c f i libcpmt:locale.obj
 0001:00032288       ?GetThreadHandle@UMSThreadProxy@details@Concurrency@@QEAAPEAXXZ 0000000140033288 f i libconcrt:UMSFreeVirtualProcessorRoot.obj
 0001:00032288       ?GetSortedNodeOrder@SchedulerProxy@details@Concurrency@@QEBAPEAIXZ 0000000140033288 f i libconcrt:ResourceManager.obj
 0001:00032288       ?width@ios_base@std@@QEBA_JXZ 0000000140033288 f i libcpmt:locale.obj
 0001:00032290       _vsprintf_s_l              0000000140033290 f i libcpmt:locale.obj
 0001:000322f4       ?abs@@YANN@Z               00000001400332f4 f i libconcrt:HillClimbing.obj
 0001:000322f4       fabsl                      00000001400332f4 f i libcpmt:locale.obj
 0001:000322fc       frexpl                     00000001400332fc f i libcpmt:locale.obj
 0001:00032304       ldexpf                     0000000140033304 f i libcpmt:locale.obj
 0001:0003231c       ??1_Init_atexit@@QEAA@XZ   000000014003331c f i libcpmt:iosptrs.obj
 0001:00032368       ?_Atexit@@YAXP6AXXZ@Z      0000000140033368 f   libcpmt:iosptrs.obj
 0001:000323a8       GetTableIndexFromLcid      00000001400333a8 f   libcpmt:winapinls.obj
 0001:000323f4       GetTableIndexFromLocaleName 00000001400333f4 f   libcpmt:winapinls.obj
 0001:00032484       __crtCompareStringEx       0000000140033484 f   libcpmt:winapinls.obj
 0001:00032520       __crtDownlevelLCIDToLocaleName 0000000140033520 f   libcpmt:winapinls.obj
 0001:000325b8       __crtDownlevelLocaleNameToLCID 00000001400335b8 f   libcpmt:winapinls.obj
 0001:000325ec       __crtGetLocaleInfoEx       00000001400335ec f   libcpmt:winapinls.obj
 0001:00032640       __crtLCMapStringEx         0000000140033640 f   libcpmt:winapinls.obj
 0001:000326dc       __wcsnicmp_ascii           00000001400336dc f   libcpmt:winapinls.obj
 0001:00032744       _Getcvt                    0000000140033744 f   libcpmt:xwctomb.obj
 0001:000327d4       _Wcrtomb                   00000001400337d4 f   libcpmt:xwctomb.obj
 0001:00032850       __Wcrtomb_lk               0000000140033850 f   libcpmt:xwctomb.obj
 0001:00032858       ??$?8_WU?$char_traits@_W@std@@@std@@YA_NAEBV?$istreambuf_iterator@_WU?$char_traits@_W@std@@@0@0@Z 0000000140033858 f i libcpmt:wlocale.obj
 0001:00032858       ??$?8GU?$char_traits@G@std@@@std@@YA_NAEBV?$istreambuf_iterator@GU?$char_traits@G@std@@@0@0@Z 0000000140033858 f i libcpmt:wlocale.obj
 0001:00032860       ??$?9GU?$char_traits@G@std@@@std@@YA_NAEBV?$istreambuf_iterator@GU?$char_traits@G@std@@@0@0@Z 0000000140033860 f i libcpmt:wlocale.obj
 0001:00032874       ??$?9_WU?$char_traits@_W@std@@@std@@YA_NAEBV?$istreambuf_iterator@_WU?$char_traits@_W@std@@@0@0@Z 0000000140033874 f i libcpmt:wlocale.obj
 0001:00032888       ??$_Copy_unchecked1@PEA_WV?$ostreambuf_iterator@_WU?$char_traits@_W@std@@@std@@@std@@YA?AV?$ostreambuf_iterator@_WU?$char_traits@_W@std@@@0@PEA_W0V10@U_General_ptr_iterator_tag@0@@Z 0000000140033888 f i libcpmt:wlocale.obj
 0001:00032888       ??$_Copy_unchecked1@PEA_WV?$ostreambuf_iterator@GU?$char_traits@G@std@@@std@@@std@@YA?AV?$ostreambuf_iterator@GU?$char_traits@G@std@@@0@PEA_W0V10@U_General_ptr_iterator_tag@0@@Z 0000000140033888 f i libcpmt:wlocale.obj
 0001:00032904       ??$_Copy_unchecked@PEA_WV?$ostreambuf_iterator@GU?$char_traits@G@std@@@std@@@std@@YA?AV?$ostreambuf_iterator@GU?$char_traits@G@std@@@0@PEA_W0V10@@Z 0000000140033904 f i libcpmt:wlocale.obj
 0001:00032930       ??$_Copy_unchecked@PEA_WV?$ostreambuf_iterator@_WU?$char_traits@_W@std@@@std@@@std@@YA?AV?$ostreambuf_iterator@_WU?$char_traits@_W@std@@@0@PEA_W0V10@@Z 0000000140033930 f i libcpmt:wlocale.obj
 0001:0003295c       ??$_Find_elem@G$0BL@@std@@YA_KAEAY0BL@$$CBGG@Z 000000014003395c f i libcpmt:wlocale.obj
 0001:0003295c       ??$_Find_elem@_W$0BL@@std@@YA_KAEAY0BL@$$CB_W_W@Z 000000014003395c f i libcpmt:wlocale.obj
 0001:00032980       ??$_Find_elem@_W$0BN@@std@@YA_KAEAY0BN@$$CB_W_W@Z 0000000140033980 f i libcpmt:wlocale.obj
 0001:00032980       ??$_Find_elem@G$0BN@@std@@YA_KAEAY0BN@$$CBGG@Z 0000000140033980 f i libcpmt:wlocale.obj
 0001:000329a4       ??$_Find_elem@G$0M@@std@@YA_KAEAY0M@$$CBGG@Z 00000001400339a4 f i libcpmt:wlocale.obj
 0001:000329a4       ??$_Find_elem@_W$0M@@std@@YA_KAEAY0M@$$CB_W_W@Z 00000001400339a4 f i libcpmt:wlocale.obj
 0001:000329c8       ??$_Find_elem@_W$0P@@std@@YA_KAEAY0P@$$CB_W_W@Z 00000001400339c8 f i libcpmt:wlocale.obj
 0001:000329c8       ??$_Find_elem@G$0P@@std@@YA_KAEAY0P@$$CBGG@Z 00000001400339c8 f i libcpmt:wlocale.obj
 0001:000329ec       ??$_Find_unchecked@PEB_W_W@std@@YAPEB_WQEB_W0AEB_W@Z 00000001400339ec f i libcpmt:wlocale.obj
 0001:000329ec       ??$_Find_unchecked1@PEBGG@std@@YAPEBGPEBGQEBGAEBGU?$integral_constant@_N$0A@@0@@Z 00000001400339ec f i libcpmt:wlocale.obj
 0001:000329ec       ??$_Find_unchecked@PEBGG@std@@YAPEBGQEBG0AEBG@Z 00000001400339ec f i libcpmt:wlocale.obj
 0001:000329ec       ??$_Find_unchecked1@PEB_W_W@std@@YAPEB_WPEB_WQEB_WAEB_WU?$integral_constant@_N$0A@@0@@Z 00000001400339ec f i libcpmt:wlocale.obj
 0001:00032a08       ??$_Getloctxt@DV?$istreambuf_iterator@_WU?$char_traits@_W@std@@@std@@@std@@YAHAEAV?$istreambuf_iterator@_WU?$char_traits@_W@std@@@0@0_KPEBD@Z 0000000140033a08 f i libcpmt:wlocale.obj
 0001:00032a08       ??$_Getloctxt@DV?$istreambuf_iterator@GU?$char_traits@G@std@@@std@@@std@@YAHAEAV?$istreambuf_iterator@GU?$char_traits@G@std@@@0@0_KPEBD@Z 0000000140033a08 f i libcpmt:wlocale.obj
 0001:00032bf0       ??$_Getloctxt@GV?$istreambuf_iterator@GU?$char_traits@G@std@@@std@@@std@@YAHAEAV?$istreambuf_iterator@GU?$char_traits@G@std@@@0@0_KPEBG@Z 0000000140033bf0 f i libcpmt:wlocale.obj
 0001:00032bf0       ??$_Getloctxt@_WV?$istreambuf_iterator@_WU?$char_traits@_W@std@@@std@@@std@@YAHAEAV?$istreambuf_iterator@_WU?$char_traits@_W@std@@@0@0_KPEB_W@Z 0000000140033bf0 f i libcpmt:wlocale.obj
 0001:00032de4       ??$_Getvals@G@?$_Mpunct@G@std@@IEAAXGPEBUlconv@@@Z 0000000140033de4 f i libcpmt:wlocale.obj
 0001:00032ed4       ??$_Getvals@G@?$numpunct@G@std@@IEAAXGPEBUlconv@@U_Cvtvec@@@Z 0000000140033ed4 f i libcpmt:wlocale.obj
 0001:00032f60       ??$_Getvals@G@?$time_get@GV?$istreambuf_iterator@GU?$char_traits@G@std@@@std@@@std@@IEAAXGAEBV_Locinfo@1@@Z 0000000140033f60 f i libcpmt:wlocale.obj
 0001:00033050       ??$_Getvals@_W@?$time_get@_WV?$istreambuf_iterator@_WU?$char_traits@_W@std@@@std@@@std@@IEAAX_WAEBV_Locinfo@1@@Z 0000000140034050 f i libcpmt:wlocale.obj
 0001:00033124       ??$_Hash_array_representation@G@std@@YA_KQEBG_K@Z 0000000140034124 f i libcpmt:wlocale.obj
 0001:00033124       ??$_Hash_array_representation@_W@std@@YA_KQEB_W_K@Z 0000000140034124 f i libcpmt:wlocale.obj
 0001:0003315c       ??$_Idl_distance@PEA_WPEA_W@std@@YA_JAEBQEA_W0@Z 000000014003415c f i libcpmt:wlocale.obj
 0001:00033168       ??$_LStrcoll@G@std@@YAHPEBG000PEBU_Collvec@@@Z 0000000140034168 f i libcpmt:wlocale.obj
 0001:000331a8       ??$_LStrcoll@_W@std@@YAHPEB_W000PEBU_Collvec@@@Z 00000001400341a8 f i libcpmt:wlocale.obj
 0001:000331b0       ??$_LStrxfrm@G@std@@YA_KPEAG0PEBG1PEBU_Collvec@@@Z 00000001400341b0 f i libcpmt:wlocale.obj
 0001:000331e4       ??$_LStrxfrm@_W@std@@YA_KPEA_W0PEB_W1PEBU_Collvec@@@Z 00000001400341e4 f i libcpmt:wlocale.obj
 0001:000331ec       ??$_Maklocchr@G@std@@YAGDPEAGAEBU_Cvtvec@@@Z 00000001400341ec f i libcpmt:wlocale.obj
 0001:00033228       ??$_Maklocchr@_W@std@@YA_WDPEA_WAEBU_Cvtvec@@@Z 0000000140034228 f i libcpmt:wlocale.obj
 0001:00033264       ??$_Maklocstr@G@std@@YAPEAGPEBDPEAGAEBU_Cvtvec@@@Z 0000000140034264 f i libcpmt:wlocale.obj
 0001:00033348       ??$_Maklocstr@_W@std@@YAPEA_WPEBDPEA_WAEBU_Cvtvec@@@Z 0000000140034348 f i libcpmt:wlocale.obj
 0001:0003342c       ?IsPrimary@UMSThreadProxy@details@Concurrency@@UEAA_NXZ 000000014003442c f i libconcrt:ThreadProxyFactoryManager.obj
 0001:0003342c       ?IsUMSScheduler@SchedulerBase@details@Concurrency@@QEBA_NXZ 000000014003442c f i libconcrt:ContextBase.obj
 0001:0003342c       ?should_skip_normal_state_processing@?$standard_base@DV?$stream_output_adapter@D@__crt_stdio_output@@@__crt_stdio_output@@IEAA_NXZ 000000014003442c f i libucrt:output.obj
 0001:0003342c       ?should_skip_type_state_output@?$standard_base@_WV?$string_output_adapter@_W@__crt_stdio_output@@@__crt_stdio_output@@IEBA_NXZ 000000014003442c f i libucrt:output.obj
 0001:0003342c       ?_IsCurrentOriginSTA@_ContextCallback@details@Concurrency@@CA_NXZ 000000014003442c f i libcpmt:ppltasks.obj
 0001:0003342c       ?should_skip_type_state_output@?$standard_base@_WV?$stream_output_adapter@_W@__crt_stdio_output@@@__crt_stdio_output@@IEBA_NXZ 000000014003442c f i libucrt:output.obj
 0001:0003342c       ?should_skip_normal_state_processing@?$standard_base@_WV?$string_output_adapter@_W@__crt_stdio_output@@@__crt_stdio_output@@IEAA_NXZ 000000014003442c f i libucrt:output.obj
 0001:0003342c       ?should_skip_type_state_output@?$standard_base@DV?$stream_output_adapter@D@__crt_stdio_output@@@__crt_stdio_output@@IEBA_NXZ 000000014003442c f i libucrt:output.obj
 0001:0003342c       ?do_always_noconv@?$codecvt@GDU_Mbstatet@@@std@@MEBA_NXZ 000000014003442c f i libcpmt:wlocale.obj
 0001:0003342c       ?should_skip_normal_state_processing@?$standard_base@DV?$string_output_adapter@D@__crt_stdio_output@@@__crt_stdio_output@@IEAA_NXZ 000000014003442c f i libucrt:output.obj
 0001:0003342c       ??$_Ptr_copy_cat@PEA_WV?$ostreambuf_iterator@GU?$char_traits@G@std@@@std@@@std@@YA?AU_General_ptr_iterator_tag@0@AEBQEA_WAEBV?$ostreambuf_iterator@GU?$char_traits@G@std@@@0@@Z 000000014003442c f i libcpmt:wlocale.obj
 0001:0003342c       ?should_skip_normal_state_processing@?$standard_base@_WV?$stream_output_adapter@_W@__crt_stdio_output@@@__crt_stdio_output@@IEAA_NXZ 000000014003442c f i libucrt:output.obj
 0001:0003342c       ?should_skip_type_state_output@?$standard_base@DV?$string_output_adapter@D@__crt_stdio_output@@@__crt_stdio_output@@IEBA_NXZ 000000014003442c f i libucrt:output.obj
 0001:0003342c       ??$_Ptr_copy_cat@PEADV?$ostreambuf_iterator@DU?$char_traits@D@std@@@std@@@std@@YA?AU_General_ptr_iterator_tag@0@AEBQEADAEBV?$ostreambuf_iterator@DU?$char_traits@D@std@@@0@@Z 000000014003442c f i libcpmt:xlocale.obj
 0001:0003342c       ?AllowGeneralFetchOfReservedContexts@UMSThreadScheduler@details@Concurrency@@MEAA_NXZ 000000014003442c f i libconcrt:UMSThreadScheduler.obj
 0001:0003342c       ?do_always_noconv@?$codecvt@_WDU_Mbstatet@@@std@@MEBA_NXZ 000000014003442c f i libcpmt:wlocale.obj
 0001:0003342c       ??$_Ptr_copy_cat@PEA_WV?$ostreambuf_iterator@_WU?$char_traits@_W@std@@@std@@@std@@YA?AU_General_ptr_iterator_tag@0@AEBQEA_WAEBV?$ostreambuf_iterator@_WU?$char_traits@_W@std@@@0@@Z 000000014003442c f i libcpmt:wlocale.obj
 0001:0003342c       ?_IsNonBlockingThread@_Task_impl_base@details@Concurrency@@SA_NXZ 000000014003442c f i libcpmt:ppltasks.obj
 0001:0003342c       ?_DebugTryAcquire@_NonReentrantLock@details@Concurrency@@AEAA_NXZ 000000014003442c f i libconcrt:rtlocks.obj
 0001:0003492c       ??$_Seek_wrapped@V?$ostreambuf_iterator@_WU?$char_traits@_W@std@@@std@@V12@@std@@YAXAEAV?$ostreambuf_iterator@_WU?$char_traits@_W@std@@@0@AEBV10@@Z 000000014003592c f i libcpmt:wlocale.obj
 0001:0003492c       ??$_Seek_wrapped@V?$ostreambuf_iterator@DU?$char_traits@D@std@@@std@@V12@@std@@YAXAEAV?$ostreambuf_iterator@DU?$char_traits@D@std@@@0@AEBV10@@Z 000000014003592c f i libcpmt:xlocale.obj
 0001:0003492c       ??$_Seek_wrapped@V?$ostreambuf_iterator@GU?$char_traits@G@std@@@std@@V12@@std@@YAXAEAV?$ostreambuf_iterator@GU?$char_traits@G@std@@@0@AEBV10@@Z 000000014003592c f i libcpmt:wlocale.obj
 0001:00034934       ??$construct@PEAGAEBQEAG@?$_Default_allocator_traits@V?$allocator@G@std@@@std@@SAXAEAV?$allocator@G@1@QEAPEAGAEBQEAG@Z 0000000140035934 f i libcpmt:wlocale.obj
 0001:0003493c       ??$copy@PEA_WV?$ostreambuf_iterator@GU?$char_traits@G@std@@@std@@@std@@YA?AV?$ostreambuf_iterator@GU?$char_traits@G@std@@@0@PEA_W0V10@@Z 000000014003593c f i libcpmt:wlocale.obj
 0001:0003497c       ??$copy@PEA_WV?$ostreambuf_iterator@_WU?$char_traits@_W@std@@@std@@@std@@YA?AV?$ostreambuf_iterator@_WU?$char_traits@_W@std@@@0@PEA_W0V10@@Z 000000014003597c f i libcpmt:wlocale.obj
 0001:000349bc       ??$use_facet@V?$codecvt@GDU_Mbstatet@@@std@@@std@@YAAEBV?$codecvt@GDU_Mbstatet@@@0@AEBVlocale@0@@Z 00000001400359bc f i libcpmt:wlocale.obj
 0001:00034af0       ??$use_facet@V?$codecvt@_WDU_Mbstatet@@@std@@@std@@YAAEBV?$codecvt@_WDU_Mbstatet@@@0@AEBVlocale@0@@Z 0000000140035af0 f i libcpmt:wlocale.obj
 0001:00034c24       ??$use_facet@V?$collate@G@std@@@std@@YAAEBV?$collate@G@0@AEBVlocale@0@@Z 0000000140035c24 f i libcpmt:wlocale.obj
 0001:00034d58       ??$use_facet@V?$collate@_W@std@@@std@@YAAEBV?$collate@_W@0@AEBVlocale@0@@Z 0000000140035d58 f i libcpmt:wlocale.obj
 0001:00034e8c       ??$use_facet@V?$ctype@G@std@@@std@@YAAEBV?$ctype@G@0@AEBVlocale@0@@Z 0000000140035e8c f i libcpmt:wlocale.obj
 0001:00034fc0       ??$use_facet@V?$ctype@_W@std@@@std@@YAAEBV?$ctype@_W@0@AEBVlocale@0@@Z 0000000140035fc0 f i libcpmt:wlocale.obj
 0001:000350f4       ??$use_facet@V?$messages@G@std@@@std@@YAAEBV?$messages@G@0@AEBVlocale@0@@Z 00000001400360f4 f i libcpmt:wlocale.obj
 0001:00035228       ??$use_facet@V?$messages@_W@std@@@std@@YAAEBV?$messages@_W@0@AEBVlocale@0@@Z 0000000140036228 f i libcpmt:wlocale.obj
 0001:0003535c       ??$use_facet@V?$money_get@GV?$istreambuf_iterator@GU?$char_traits@G@std@@@std@@@std@@@std@@YAAEBV?$money_get@GV?$istreambuf_iterator@GU?$char_traits@G@std@@@std@@@0@AEBVlocale@0@@Z 000000014003635c f i libcpmt:wlocale.obj
 0001:00035490       ??$use_facet@V?$money_get@_WV?$istreambuf_iterator@_WU?$char_traits@_W@std@@@std@@@std@@@std@@YAAEBV?$money_get@_WV?$istreambuf_iterator@_WU?$char_traits@_W@std@@@std@@@0@AEBVlocale@0@@Z 0000000140036490 f i libcpmt:wlocale.obj
 0001:000355c4       ??$use_facet@V?$money_put@GV?$ostreambuf_iterator@GU?$char_traits@G@std@@@std@@@std@@@std@@YAAEBV?$money_put@GV?$ostreambuf_iterator@GU?$char_traits@G@std@@@std@@@0@AEBVlocale@0@@Z 00000001400365c4 f i libcpmt:wlocale.obj
 0001:000356f8       ??$use_facet@V?$money_put@_WV?$ostreambuf_iterator@_WU?$char_traits@_W@std@@@std@@@std@@@std@@YAAEBV?$money_put@_WV?$ostreambuf_iterator@_WU?$char_traits@_W@std@@@std@@@0@AEBVlocale@0@@Z 00000001400366f8 f i libcpmt:wlocale.obj
 0001:0003582c       ??$use_facet@V?$moneypunct@G$00@std@@@std@@YAAEBV?$moneypunct@G$00@0@AEBVlocale@0@@Z 000000014003682c f i libcpmt:wlocale.obj
 0001:00035960       ??$use_facet@V?$moneypunct@G$0A@@std@@@std@@YAAEBV?$moneypunct@G$0A@@0@AEBVlocale@0@@Z 0000000140036960 f i libcpmt:wlocale.obj
 0001:00035a94       ??$use_facet@V?$moneypunct@_W$00@std@@@std@@YAAEBV?$moneypunct@_W$00@0@AEBVlocale@0@@Z 0000000140036a94 f i libcpmt:wlocale.obj
 0001:00035bc8       ??$use_facet@V?$moneypunct@_W$0A@@std@@@std@@YAAEBV?$moneypunct@_W$0A@@0@AEBVlocale@0@@Z 0000000140036bc8 f i libcpmt:wlocale.obj
 0001:00035cfc       ??$use_facet@V?$num_get@GV?$istreambuf_iterator@GU?$char_traits@G@std@@@std@@@std@@@std@@YAAEBV?$num_get@GV?$istreambuf_iterator@GU?$char_traits@G@std@@@std@@@0@AEBVlocale@0@@Z 0000000140036cfc f i libcpmt:wlocale.obj
 0001:00035e30       ??$use_facet@V?$num_get@_WV?$istreambuf_iterator@_WU?$char_traits@_W@std@@@std@@@std@@@std@@YAAEBV?$num_get@_WV?$istreambuf_iterator@_WU?$char_traits@_W@std@@@std@@@0@AEBVlocale@0@@Z 0000000140036e30 f i libcpmt:wlocale.obj
 0001:00035f64       ??$use_facet@V?$num_put@GV?$ostreambuf_iterator@GU?$char_traits@G@std@@@std@@@std@@@std@@YAAEBV?$num_put@GV?$ostreambuf_iterator@GU?$char_traits@G@std@@@std@@@0@AEBVlocale@0@@Z 0000000140036f64 f i libcpmt:wlocale.obj
 0001:00036098       ??$use_facet@V?$num_put@_WV?$ostreambuf_iterator@_WU?$char_traits@_W@std@@@std@@@std@@@std@@YAAEBV?$num_put@_WV?$ostreambuf_iterator@_WU?$char_traits@_W@std@@@std@@@0@AEBVlocale@0@@Z 0000000140037098 f i libcpmt:wlocale.obj
 0001:000361cc       ??$use_facet@V?$numpunct@G@std@@@std@@YAAEBV?$numpunct@G@0@AEBVlocale@0@@Z 00000001400371cc f i libcpmt:wlocale.obj
 0001:00036300       ??$use_facet@V?$numpunct@_W@std@@@std@@YAAEBV?$numpunct@_W@0@AEBVlocale@0@@Z 0000000140037300 f i libcpmt:wlocale.obj
 0001:00036434       ??$use_facet@V?$time_get@GV?$istreambuf_iterator@GU?$char_traits@G@std@@@std@@@std@@@std@@YAAEBV?$time_get@GV?$istreambuf_iterator@GU?$char_traits@G@std@@@std@@@0@AEBVlocale@0@@Z 0000000140037434 f i libcpmt:wlocale.obj
 0001:00036568       ??$use_facet@V?$time_get@_WV?$istreambuf_iterator@_WU?$char_traits@_W@std@@@std@@@std@@@std@@YAAEBV?$time_get@_WV?$istreambuf_iterator@_WU?$char_traits@_W@std@@@std@@@0@AEBVlocale@0@@Z 0000000140037568 f i libcpmt:wlocale.obj
 0001:0003669c       ??$use_facet@V?$time_put@GV?$ostreambuf_iterator@GU?$char_traits@G@std@@@std@@@std@@@std@@YAAEBV?$time_put@GV?$ostreambuf_iterator@GU?$char_traits@G@std@@@std@@@0@AEBVlocale@0@@Z 000000014003769c f i libcpmt:wlocale.obj
 0001:000367d0       ??$use_facet@V?$time_put@_WV?$ostreambuf_iterator@_WU?$char_traits@_W@std@@@std@@@std@@@std@@YAAEBV?$time_put@_WV?$ostreambuf_iterator@_WU?$char_traits@_W@std@@@std@@@0@AEBVlocale@0@@Z 00000001400377d0 f i libcpmt:wlocale.obj
 0001:00036904       ??0?$_Mpunct@G@std@@QEAA@AEBV_Locinfo@1@_K_N2@Z 0000000140037904 f i libcpmt:wlocale.obj
 0001:00036940       ??0?$_Mpunct@_W@std@@QEAA@AEBV_Locinfo@1@_K_N2@Z 0000000140037940 f i libcpmt:wlocale.obj
 0001:0003697c       ??0?$List@UListEntry@details@Concurrency@@VNoCount@CollectionTypes@23@@details@Concurrency@@QEAA@XZ 000000014003797c f i libconcrt:ContextBase.obj
 0001:0003697c       ??0Block@_HeapManager@@QEAA@XZ 000000014003797c f i libvcruntime:undname.obj
 0001:0003697c       ??0?$List@UBoostedObject@details@Concurrency@@VNoCount@CollectionTypes@23@@details@Concurrency@@QEAA@XZ 000000014003797c f i libconcrt:SchedulerBase.obj
 0001:0003697c       ??0?$_String_const_iterator@V?$_String_val@U?$_Simple_types@_W@std@@@std@@@std@@QEAA@XZ 000000014003797c f i libcpmt:wlocale.obj
 0001:0003697c       ??0__crt_deferred_errno_cache@@QEAA@XZ 000000014003797c f i libucrt:output.obj
 0001:0003697c       ??0?$_String_const_iterator@V?$_String_val@U?$_Simple_types@G@std@@@std@@@std@@QEAA@XZ 000000014003797c f i libcpmt:wlocale.obj
 0001:0003697c       ??0__crt_stdio_stream@@QEAA@XZ 000000014003797c f i libucrt:stream.obj
 0001:0003697c       ??0?$List@VWaitNode@SchedulerBase@details@Concurrency@@VNoCount@CollectionTypes@34@@details@Concurrency@@QEAA@XZ 000000014003797c f i libconcrt:SchedulerBase.obj
 0001:0003697c       ??0?$_String_const_iterator@V?$_String_val@U?$_Simple_types@D@std@@@std@@@std@@QEAA@XZ 000000014003797c f i libcpmt:xlocale.obj
 0001:00036984       ??0?$basic_string@GU?$char_traits@G@std@@V?$allocator@G@2@@std@@QEAA@$$QEAV01@@Z 0000000140037984 f i libcpmt:wlocale.obj
 0001:00036984       ??0?$basic_string@_WU?$char_traits@_W@std@@V?$allocator@_W@2@@std@@QEAA@$$QEAV01@@Z 0000000140037984 f i libcpmt:wlocale.obj
 0001:000369b0       ??0?$basic_string@GU?$char_traits@G@std@@V?$allocator@G@2@@std@@QEAA@AEBV01@@Z 00000001400379b0 f i libcpmt:wlocale.obj
 0001:000369d4       ??0?$basic_string@GU?$char_traits@G@std@@V?$allocator@G@2@@std@@QEAA@QEBG@Z 00000001400379d4 f i libcpmt:wlocale.obj
 0001:00036a18       ??0?$basic_string@GU?$char_traits@G@std@@V?$allocator@G@2@@std@@QEAA@QEBG_K@Z 0000000140037a18 f i libcpmt:wlocale.obj
 0001:00036a40       ??0?$basic_string@GU?$char_traits@G@std@@V?$allocator@G@2@@std@@QEAA@XZ 0000000140037a40 f i libcpmt:wlocale.obj
 0001:00036a58       ??0?$basic_string@GU?$char_traits@G@std@@V?$allocator@G@2@@std@@QEAA@_KG@Z 0000000140037a58 f i libcpmt:wlocale.obj
 0001:00036ac4       ??0?$basic_string@_WU?$char_traits@_W@std@@V?$allocator@_W@2@@std@@QEAA@QEB_W_K@Z 0000000140037ac4 f i libcpmt:wlocale.obj
 0001:00036aec       ??0?$codecvt@GDU_Mbstatet@@@std@@QEAA@AEBV_Locinfo@1@_K@Z 0000000140037aec f i libcpmt:wlocale.obj
 0001:00036b38       ??0?$codecvt@_WDU_Mbstatet@@@std@@QEAA@AEBV_Locinfo@1@_K@Z 0000000140037b38 f i libcpmt:wlocale.obj
 0001:00036b84       ??0?$collate@G@std@@QEAA@AEBV_Locinfo@1@_K@Z 0000000140037b84 f i libcpmt:wlocale.obj
 0001:00036bb8       ??0?$collate@_W@std@@QEAA@AEBV_Locinfo@1@_K@Z 0000000140037bb8 f i libcpmt:wlocale.obj
 0001:00036bec       ??0?$ctype@G@std@@QEAA@AEBV_Locinfo@1@_K@Z 0000000140037bec f i libcpmt:wlocale.obj
 0001:00036c50       ??0?$ctype@_W@std@@QEAA@AEBV_Locinfo@1@_K@Z 0000000140037c50 f i libcpmt:wlocale.obj
 0001:00036cb4       ??0?$messages@G@std@@QEAA@AEBV_Locinfo@1@_K@Z 0000000140037cb4 f i libcpmt:wlocale.obj
 0001:00036cc8       ??0?$messages@_W@std@@QEAA@AEBV_Locinfo@1@_K@Z 0000000140037cc8 f i libcpmt:wlocale.obj
 0001:00036cdc       ??0?$money_get@GV?$istreambuf_iterator@GU?$char_traits@G@std@@@std@@@std@@QEAA@AEBV_Locinfo@1@_K@Z 0000000140037cdc f i libcpmt:wlocale.obj
 0001:00036cf0       ??0?$money_get@_WV?$istreambuf_iterator@_WU?$char_traits@_W@std@@@std@@@std@@QEAA@AEBV_Locinfo@1@_K@Z 0000000140037cf0 f i libcpmt:wlocale.obj
 0001:00036d04       ??0?$money_put@GV?$ostreambuf_iterator@GU?$char_traits@G@std@@@std@@@std@@QEAA@AEBV_Locinfo@1@_K@Z 0000000140037d04 f i libcpmt:wlocale.obj
 0001:00036d18       ??0?$money_put@_WV?$ostreambuf_iterator@_WU?$char_traits@_W@std@@@std@@@std@@QEAA@AEBV_Locinfo@1@_K@Z 0000000140037d18 f i libcpmt:wlocale.obj
 0001:00036d2c       ??0?$moneypunct@G$00@std@@QEAA@AEBV_Locinfo@1@_K_N@Z 0000000140037d2c f i libcpmt:wlocale.obj
 0001:00036d70       ??0?$moneypunct@G$0A@@std@@QEAA@AEBV_Locinfo@1@_K_N@Z 0000000140037d70 f i libcpmt:wlocale.obj
 0001:00036db4       ??0?$moneypunct@_W$00@std@@QEAA@AEBV_Locinfo@1@_K_N@Z 0000000140037db4 f i libcpmt:wlocale.obj
 0001:00036df8       ??0?$moneypunct@_W$0A@@std@@QEAA@AEBV_Locinfo@1@_K_N@Z 0000000140037df8 f i libcpmt:wlocale.obj
 0001:00036e3c       ??0?$num_get@GV?$istreambuf_iterator@GU?$char_traits@G@std@@@std@@@std@@QEAA@AEBV_Locinfo@1@_K@Z 0000000140037e3c f i libcpmt:wlocale.obj
 0001:00036e50       ??0?$num_get@_WV?$istreambuf_iterator@_WU?$char_traits@_W@std@@@std@@@std@@QEAA@AEBV_Locinfo@1@_K@Z 0000000140037e50 f i libcpmt:wlocale.obj
 0001:00036e64       ??0?$num_put@GV?$ostreambuf_iterator@GU?$char_traits@G@std@@@std@@@std@@QEAA@AEBV_Locinfo@1@_K@Z 0000000140037e64 f i libcpmt:wlocale.obj
 0001:00036e78       ??0?$num_put@_WV?$ostreambuf_iterator@_WU?$char_traits@_W@std@@@std@@@std@@QEAA@AEBV_Locinfo@1@_K@Z 0000000140037e78 f i libcpmt:wlocale.obj
 0001:00036e8c       ??0?$numpunct@G@std@@QEAA@AEBV_Locinfo@1@_K_N@Z 0000000140037e8c f i libcpmt:wlocale.obj
 0001:00036ec4       ??0?$numpunct@_W@std@@QEAA@AEBV_Locinfo@1@_K_N@Z 0000000140037ec4 f i libcpmt:wlocale.obj
 0001:00036efc       ??0?$time_get@GV?$istreambuf_iterator@GU?$char_traits@G@std@@@std@@@std@@QEAA@AEBV_Locinfo@1@_K@Z 0000000140037efc f i libcpmt:wlocale.obj
 0001:00036f30       ??0?$time_get@_WV?$istreambuf_iterator@_WU?$char_traits@_W@std@@@std@@@std@@QEAA@AEBV_Locinfo@1@_K@Z 0000000140037f30 f i libcpmt:wlocale.obj
 0001:00036f64       ??0?$time_put@GV?$ostreambuf_iterator@GU?$char_traits@G@std@@@std@@@std@@QEAA@AEBV_Locinfo@1@_K@Z 0000000140037f64 f i libcpmt:wlocale.obj
 0001:00036f9c       ??0?$time_put@_WV?$ostreambuf_iterator@_WU?$char_traits@_W@std@@@std@@@std@@QEAA@AEBV_Locinfo@1@_K@Z 0000000140037f9c f i libcpmt:wlocale.obj
 0001:00036fd4       ??0messages_base@std@@QEAA@_K@Z 0000000140037fd4 f i libcpmt:wlocale.obj
 0001:00036fe8       ??0money_base@std@@QEAA@_K@Z 0000000140037fe8 f i libcpmt:wlocale.obj
 0001:00036ffc       ??0time_base@std@@QEAA@_K@Z 0000000140037ffc f i libcpmt:wlocale.obj
 0001:00037010       ??1?$_Mpunct@G@std@@MEAA@XZ 0000000140038010 f i libcpmt:wlocale.obj
 0001:00037058       ??1?$_Mpunct@_W@std@@MEAA@XZ 0000000140038058 f i libcpmt:wlocale.obj
 0001:000370a0       ??1?$basic_string@GU?$char_traits@G@std@@V?$allocator@G@2@@std@@QEAA@XZ 00000001400380a0 f i libcpmt:wlocale.obj
 0001:000370a8       ??1?$collate@G@std@@MEAA@XZ 00000001400380a8 f i libcpmt:wlocale.obj
 0001:000370d4       ??1?$collate@_W@std@@MEAA@XZ 00000001400380d4 f i libcpmt:wlocale.obj
 0001:00037100       ??1?$ctype@G@std@@MEAA@XZ  0000000140038100 f i libcpmt:wlocale.obj
 0001:0003713c       ??1?$ctype@_W@std@@MEAA@XZ 000000014003813c f i libcpmt:wlocale.obj
 0001:00037178       ??1?$moneypunct@G$00@std@@MEAA@XZ 0000000140038178 f i libcpmt:wlocale.obj
 0001:000371c0       ??1?$moneypunct@G$0A@@std@@MEAA@XZ 00000001400381c0 f i libcpmt:wlocale.obj
 0001:00037208       ??1?$moneypunct@_W$00@std@@MEAA@XZ 0000000140038208 f i libcpmt:wlocale.obj
 0001:00037250       ??1?$moneypunct@_W$0A@@std@@MEAA@XZ 0000000140038250 f i libcpmt:wlocale.obj
 0001:00037298       ??1?$numpunct@G@std@@MEAA@XZ 0000000140038298 f i libcpmt:wlocale.obj
 0001:000372d8       ??1?$numpunct@_W@std@@MEAA@XZ 00000001400382d8 f i libcpmt:wlocale.obj
 0001:00037318       ??1?$time_get@GV?$istreambuf_iterator@GU?$char_traits@G@std@@@std@@@std@@MEAA@XZ 0000000140038318 f i libcpmt:wlocale.obj
 0001:00037358       ??1?$time_get@_WV?$istreambuf_iterator@_WU?$char_traits@_W@std@@@std@@@std@@MEAA@XZ 0000000140038358 f i libcpmt:wlocale.obj
 0001:00037398       ??1?$time_put@GV?$ostreambuf_iterator@GU?$char_traits@G@std@@@std@@@std@@MEAA@XZ 0000000140038398 f i libcpmt:wlocale.obj
 0001:000373c4       ??1?$time_put@_WV?$ostreambuf_iterator@_WU?$char_traits@_W@std@@@std@@@std@@MEAA@XZ 00000001400383c4 f i libcpmt:wlocale.obj
 0001:000373f0       ??1_Timevec@std@@QEAA@XZ   00000001400383f0 f i libcpmt:wlocale.obj
 0001:000373f8       ??4?$_Yarn@_W@std@@QEAAAEAV01@PEB_W@Z 00000001400383f8 f i libcpmt:wlocale.obj
 0001:00037484       ??4?$basic_string@GU?$char_traits@G@std@@V?$allocator@G@2@@std@@QEAAAEAV01@$$QEAV01@@Z 0000000140038484 f i libcpmt:wlocale.obj
 0001:000374cc       ??4?$basic_string@_WU?$char_traits@_W@std@@V?$allocator@_W@2@@std@@QEAAAEAV01@$$QEAV01@@Z 00000001400384cc f i libcpmt:wlocale.obj
 0001:00037514       ??4?$ostreambuf_iterator@GU?$char_traits@G@std@@@std@@QEAAAEAV01@G@Z 0000000140038514 f i libcpmt:wlocale.obj
 0001:00037514       ??4?$ostreambuf_iterator@_WU?$char_traits@_W@std@@@std@@QEAAAEAV01@_W@Z 0000000140038514 f i libcpmt:wlocale.obj
 0001:00037588       ??4_Timevec@std@@QEAAAEAV01@AEBV01@@Z 0000000140038588 f i libcpmt:wlocale.obj
 0001:00037598       ?__ExceptionPtrCompare@@YA_NPEBX0@Z 0000000140038598 f i libcpmt:excptptr.obj
 0001:00037598       ??8?$_String_const_iterator@V?$_String_val@U?$_Simple_types@_W@std@@@std@@@std@@QEBA_NAEBV01@@Z 0000000140038598 f i libcpmt:wlocale.obj
 0001:00037598       ??$?8V__ExceptionPtr@@V0@@std@@YA_NAEBV?$shared_ptr@V__ExceptionPtr@@@0@0@Z 0000000140038598 f i libcpmt:excptptr.obj
 0001:00037598       ??8?$_String_const_iterator@V?$_String_val@U?$_Simple_types@D@std@@@std@@@std@@QEBA_NAEBV01@@Z 0000000140038598 f i libcpmt:xlocale.obj
 0001:00037598       ??8?$_String_const_iterator@V?$_String_val@U?$_Simple_types@G@std@@@std@@@std@@QEBA_NAEBV01@@Z 0000000140038598 f i libcpmt:wlocale.obj
 0001:000375a4       ??9?$_String_const_iterator@V?$_String_val@U?$_Simple_types@_W@std@@@std@@@std@@QEBA_NAEBV01@@Z 00000001400385a4 f i libcpmt:wlocale.obj
 0001:000375a4       ??9?$_String_const_iterator@V?$_String_val@U?$_Simple_types@G@std@@@std@@@std@@QEBA_NAEBV01@@Z 00000001400385a4 f i libcpmt:wlocale.obj
 0001:000375a4       ??9?$_String_const_iterator@V?$_String_val@U?$_Simple_types@D@std@@@std@@@std@@QEBA_NAEBV01@@Z 00000001400385a4 f i libcpmt:xlocale.obj
 0001:000375b0       ??A?$basic_string@GU?$char_traits@G@std@@V?$allocator@G@2@@std@@QEBAAEBG_K@Z 00000001400385b0 f i libcpmt:wlocale.obj
 0001:000375b0       ??A?$basic_string@_WU?$char_traits@_W@std@@V?$allocator@_W@2@@std@@QEBAAEB_W_K@Z 00000001400385b0 f i libcpmt:wlocale.obj
 0001:000375b0       ??A?$basic_string@GU?$char_traits@G@std@@V?$allocator@G@2@@std@@QEAAAEAG_K@Z 00000001400385b0 f i libcpmt:wlocale.obj
 0001:000375c0       ??D?$istreambuf_iterator@_WU?$char_traits@_W@std@@@std@@QEBA_WXZ 00000001400385c0 f i libcpmt:wlocale.obj
 0001:000375c0       ??D?$istreambuf_iterator@GU?$char_traits@G@std@@@std@@QEBAGXZ 00000001400385c0 f i libcpmt:wlocale.obj
 0001:00037628       ??E?$_String_iterator@V?$_String_val@U?$_Simple_types@G@std@@@std@@@std@@QEAAAEAV01@XZ 0000000140038628 f i libcpmt:wlocale.obj
 0001:00037628       ??E?$_String_const_iterator@V?$_String_val@U?$_Simple_types@_W@std@@@std@@@std@@QEAAAEAV01@XZ 0000000140038628 f i libcpmt:wlocale.obj
 0001:00037628       ??E?$_String_iterator@V?$_String_val@U?$_Simple_types@_W@std@@@std@@@std@@QEAAAEAV01@XZ 0000000140038628 f i libcpmt:wlocale.obj
 0001:00037628       ??E?$_String_const_iterator@V?$_String_val@U?$_Simple_types@G@std@@@std@@@std@@QEAAAEAV01@XZ 0000000140038628 f i libcpmt:wlocale.obj
 0001:00037630       ??E?$istreambuf_iterator@GU?$char_traits@G@std@@@std@@QEAAAEAV01@XZ 0000000140038630 f i libcpmt:wlocale.obj
 0001:00037648       ??E?$istreambuf_iterator@_WU?$char_traits@_W@std@@@std@@QEAAAEAV01@XZ 0000000140038648 f i libcpmt:wlocale.obj
 0001:00037660       ??G?$_String_iterator@V?$_String_val@U?$_Simple_types@G@std@@@std@@@std@@QEBA?AV01@_J@Z 0000000140038660 f i libcpmt:wlocale.obj
 0001:00037670       ??H?$_String_iterator@V?$_String_val@U?$_Simple_types@G@std@@@std@@@std@@QEBA?AV01@_J@Z 0000000140038670 f i libcpmt:wlocale.obj
 0001:00037670       ??H?$_String_iterator@V?$_String_val@U?$_Simple_types@_W@std@@@std@@@std@@QEBA?AV01@_J@Z 0000000140038670 f i libcpmt:wlocale.obj
 0001:00037b9c       ??Y?$_String_const_iterator@V?$_String_val@U?$_Simple_types@G@std@@@std@@@std@@QEAAAEAV01@_J@Z 0000000140038b9c f i libcpmt:wlocale.obj
 0001:00037b9c       ??Y?$_String_iterator@V?$_String_val@U?$_Simple_types@G@std@@@std@@@std@@QEAAAEAV01@_J@Z 0000000140038b9c f i libcpmt:wlocale.obj
 0001:00037ba8       ??Y?$basic_string@DU?$char_traits@D@std@@V?$allocator@D@2@@std@@QEAAAEAV01@D@Z 0000000140038ba8 f i libcpmt:wlocale.obj
 0001:00037bf8       ??Y?$basic_string@GU?$char_traits@G@std@@V?$allocator@G@2@@std@@QEAAAEAV01@AEBV01@@Z 0000000140038bf8 f i libcpmt:wlocale.obj
 0001:00037bf8       ?append@?$basic_string@GU?$char_traits@G@std@@V?$allocator@G@2@@std@@QEAAAEAV12@AEBV12@@Z 0000000140038bf8 f i libcpmt:wlocale.obj
 0001:00037c14       ??Y?$basic_string@_WU?$char_traits@_W@std@@V?$allocator@_W@2@@std@@QEAAAEAV01@AEBV01@@Z 0000000140038c14 f i libcpmt:wlocale.obj
 0001:00037c30       ??Z?$_String_iterator@V?$_String_val@U?$_Simple_types@G@std@@@std@@@std@@QEAAAEAV01@_J@Z 0000000140038c30 f i libcpmt:wlocale.obj
 0001:00037c40       ??_E?$_Mpunct@G@std@@MEAAPEAXI@Z 0000000140038c40 f i libcpmt:wlocale.obj
 0001:00037c40       ??_G?$_Mpunct@G@std@@MEAAPEAXI@Z 0000000140038c40 f i libcpmt:wlocale.obj
 0001:00037ca8       ??_E?$_Mpunct@_W@std@@MEAAPEAXI@Z 0000000140038ca8 f i libcpmt:wlocale.obj
 0001:00037ca8       ??_G?$_Mpunct@_W@std@@MEAAPEAXI@Z 0000000140038ca8 f i libcpmt:wlocale.obj
 0001:00037d10       ??_G?$codecvt@GDU_Mbstatet@@@std@@MEAAPEAXI@Z 0000000140038d10 f i libcpmt:wlocale.obj
 0001:00037d10       ??_E?$codecvt@GDU_Mbstatet@@@std@@MEAAPEAXI@Z 0000000140038d10 f i libcpmt:wlocale.obj
 0001:00037d3c       ??_G?$codecvt@_WDU_Mbstatet@@@std@@MEAAPEAXI@Z 0000000140038d3c f i libcpmt:wlocale.obj
 0001:00037d3c       ??_E?$codecvt@_WDU_Mbstatet@@@std@@MEAAPEAXI@Z 0000000140038d3c f i libcpmt:wlocale.obj
 0001:00037d68       ??_G?$collate@G@std@@MEAAPEAXI@Z 0000000140038d68 f i libcpmt:wlocale.obj
 0001:00037d68       ??_E?$collate@G@std@@MEAAPEAXI@Z 0000000140038d68 f i libcpmt:wlocale.obj
 0001:00037db4       ??_G?$collate@_W@std@@MEAAPEAXI@Z 0000000140038db4 f i libcpmt:wlocale.obj
 0001:00037db4       ??_E?$collate@_W@std@@MEAAPEAXI@Z 0000000140038db4 f i libcpmt:wlocale.obj
 0001:00037e00       ??_G?$ctype@G@std@@MEAAPEAXI@Z 0000000140038e00 f i libcpmt:wlocale.obj
 0001:00037e00       ??_E?$ctype@G@std@@MEAAPEAXI@Z 0000000140038e00 f i libcpmt:wlocale.obj
 0001:00037e5c       ??_E?$ctype@_W@std@@MEAAPEAXI@Z 0000000140038e5c f i libcpmt:wlocale.obj
 0001:00037e5c       ??_G?$ctype@_W@std@@MEAAPEAXI@Z 0000000140038e5c f i libcpmt:wlocale.obj
 0001:00037eb8       ??_G?$messages@G@std@@MEAAPEAXI@Z 0000000140038eb8 f i libcpmt:wlocale.obj
 0001:00037eb8       ??_E?$messages@G@std@@MEAAPEAXI@Z 0000000140038eb8 f i libcpmt:wlocale.obj
 0001:00037ee4       ??_E?$messages@_W@std@@MEAAPEAXI@Z 0000000140038ee4 f i libcpmt:wlocale.obj
 0001:00037ee4       ??_G?$messages@_W@std@@MEAAPEAXI@Z 0000000140038ee4 f i libcpmt:wlocale.obj
 0001:00037f10       ??_G?$money_get@GV?$istreambuf_iterator@GU?$char_traits@G@std@@@std@@@std@@MEAAPEAXI@Z 0000000140038f10 f i libcpmt:wlocale.obj
 0001:00037f10       ??_E?$money_get@GV?$istreambuf_iterator@GU?$char_traits@G@std@@@std@@@std@@MEAAPEAXI@Z 0000000140038f10 f i libcpmt:wlocale.obj
 0001:00037f3c       ??_E?$money_get@_WV?$istreambuf_iterator@_WU?$char_traits@_W@std@@@std@@@std@@MEAAPEAXI@Z 0000000140038f3c f i libcpmt:wlocale.obj
 0001:00037f3c       ??_G?$money_get@_WV?$istreambuf_iterator@_WU?$char_traits@_W@std@@@std@@@std@@MEAAPEAXI@Z 0000000140038f3c f i libcpmt:wlocale.obj
 0001:00037f68       ??_E?$money_put@GV?$ostreambuf_iterator@GU?$char_traits@G@std@@@std@@@std@@MEAAPEAXI@Z 0000000140038f68 f i libcpmt:wlocale.obj
 0001:00037f68       ??_G?$money_put@GV?$ostreambuf_iterator@GU?$char_traits@G@std@@@std@@@std@@MEAAPEAXI@Z 0000000140038f68 f i libcpmt:wlocale.obj
 0001:00037f94       ??_E?$money_put@_WV?$ostreambuf_iterator@_WU?$char_traits@_W@std@@@std@@@std@@MEAAPEAXI@Z 0000000140038f94 f i libcpmt:wlocale.obj
 0001:00037f94       ??_G?$money_put@_WV?$ostreambuf_iterator@_WU?$char_traits@_W@std@@@std@@@std@@MEAAPEAXI@Z 0000000140038f94 f i libcpmt:wlocale.obj
 0001:00037fc0       ??_G?$moneypunct@G$00@std@@MEAAPEAXI@Z 0000000140038fc0 f i libcpmt:wlocale.obj
 0001:00037fc0       ??_E?$moneypunct@G$00@std@@MEAAPEAXI@Z 0000000140038fc0 f i libcpmt:wlocale.obj
 0001:00038028       ??_E?$moneypunct@G$0A@@std@@MEAAPEAXI@Z 0000000140039028 f i libcpmt:wlocale.obj
 0001:00038028       ??_G?$moneypunct@G$0A@@std@@MEAAPEAXI@Z 0000000140039028 f i libcpmt:wlocale.obj
 0001:00038090       ??_E?$moneypunct@_W$00@std@@MEAAPEAXI@Z 0000000140039090 f i libcpmt:wlocale.obj
 0001:00038090       ??_G?$moneypunct@_W$00@std@@MEAAPEAXI@Z 0000000140039090 f i libcpmt:wlocale.obj
 0001:000380f8       ??_G?$moneypunct@_W$0A@@std@@MEAAPEAXI@Z 00000001400390f8 f i libcpmt:wlocale.obj
 0001:000380f8       ??_E?$moneypunct@_W$0A@@std@@MEAAPEAXI@Z 00000001400390f8 f i libcpmt:wlocale.obj
 0001:00038160       ??_E?$num_get@GV?$istreambuf_iterator@GU?$char_traits@G@std@@@std@@@std@@MEAAPEAXI@Z 0000000140039160 f i libcpmt:wlocale.obj
 0001:00038160       ??_G?$num_get@GV?$istreambuf_iterator@GU?$char_traits@G@std@@@std@@@std@@MEAAPEAXI@Z 0000000140039160 f i libcpmt:wlocale.obj
 0001:0003818c       ??_G?$num_get@_WV?$istreambuf_iterator@_WU?$char_traits@_W@std@@@std@@@std@@MEAAPEAXI@Z 000000014003918c f i libcpmt:wlocale.obj
 0001:0003818c       ??_E?$num_get@_WV?$istreambuf_iterator@_WU?$char_traits@_W@std@@@std@@@std@@MEAAPEAXI@Z 000000014003918c f i libcpmt:wlocale.obj
 0001:000381b8       ??_E?$num_put@GV?$ostreambuf_iterator@GU?$char_traits@G@std@@@std@@@std@@MEAAPEAXI@Z 00000001400391b8 f i libcpmt:wlocale.obj
 0001:000381b8       ??_G?$num_put@GV?$ostreambuf_iterator@GU?$char_traits@G@std@@@std@@@std@@MEAAPEAXI@Z 00000001400391b8 f i libcpmt:wlocale.obj
 0001:000381e4       ??_G?$num_put@_WV?$ostreambuf_iterator@_WU?$char_traits@_W@std@@@std@@@std@@MEAAPEAXI@Z 00000001400391e4 f i libcpmt:wlocale.obj
 0001:000381e4       ??_E?$num_put@_WV?$ostreambuf_iterator@_WU?$char_traits@_W@std@@@std@@@std@@MEAAPEAXI@Z 00000001400391e4 f i libcpmt:wlocale.obj
 0001:00038210       ??_G?$numpunct@G@std@@MEAAPEAXI@Z 0000000140039210 f i libcpmt:wlocale.obj
 0001:00038210       ??_E?$numpunct@G@std@@MEAAPEAXI@Z 0000000140039210 f i libcpmt:wlocale.obj
 0001:00038270       ??_E?$numpunct@_W@std@@MEAAPEAXI@Z 0000000140039270 f i libcpmt:wlocale.obj
 0001:00038270       ??_G?$numpunct@_W@std@@MEAAPEAXI@Z 0000000140039270 f i libcpmt:wlocale.obj
 0001:000382d0       ??_E?$time_get@GV?$istreambuf_iterator@GU?$char_traits@G@std@@@std@@@std@@MEAAPEAXI@Z 00000001400392d0 f i libcpmt:wlocale.obj
 0001:000382d0       ??_G?$time_get@GV?$istreambuf_iterator@GU?$char_traits@G@std@@@std@@@std@@MEAAPEAXI@Z 00000001400392d0 f i libcpmt:wlocale.obj
 0001:00038330       ??_G?$time_get@_WV?$istreambuf_iterator@_WU?$char_traits@_W@std@@@std@@@std@@MEAAPEAXI@Z 0000000140039330 f i libcpmt:wlocale.obj
 0001:00038330       ??_E?$time_get@_WV?$istreambuf_iterator@_WU?$char_traits@_W@std@@@std@@@std@@MEAAPEAXI@Z 0000000140039330 f i libcpmt:wlocale.obj
 0001:00038390       ??_G?$time_put@GV?$ostreambuf_iterator@GU?$char_traits@G@std@@@std@@@std@@MEAAPEAXI@Z 0000000140039390 f i libcpmt:wlocale.obj
 0001:00038390       ??_E?$time_put@GV?$ostreambuf_iterator@GU?$char_traits@G@std@@@std@@@std@@MEAAPEAXI@Z 0000000140039390 f i libcpmt:wlocale.obj
 0001:000383dc       ??_G?$time_put@_WV?$ostreambuf_iterator@_WU?$char_traits@_W@std@@@std@@@std@@MEAAPEAXI@Z 00000001400393dc f i libcpmt:wlocale.obj
 0001:000383dc       ??_E?$time_put@_WV?$ostreambuf_iterator@_WU?$char_traits@_W@std@@@std@@@std@@MEAAPEAXI@Z 00000001400393dc f i libcpmt:wlocale.obj
 0001:00038428       ??_Gmessages_base@std@@UEAAPEAXI@Z 0000000140039428 f i libcpmt:wlocale.obj
 0001:00038428       ??_Emessages_base@std@@UEAAPEAXI@Z 0000000140039428 f i libcpmt:wlocale.obj
 0001:00038454       ??_Emoney_base@std@@UEAAPEAXI@Z 0000000140039454 f i libcpmt:wlocale.obj
 0001:00038454       ??_Gmoney_base@std@@UEAAPEAXI@Z 0000000140039454 f i libcpmt:wlocale.obj
 0001:00038480       ??_Gtime_base@std@@UEAAPEAXI@Z 0000000140039480 f i libcpmt:wlocale.obj
 0001:00038480       ??_Etime_base@std@@UEAAPEAXI@Z 0000000140039480 f i libcpmt:wlocale.obj
 0001:000384ac       ?_Assign_rv_contents_with_alloc_always_equal@?$basic_string@_WU?$char_traits@_W@std@@V?$allocator@_W@2@@std@@QEAAX$$QEAV12@U?$integral_constant@_N$00@2@@Z 00000001400394ac f i libcpmt:wlocale.obj
 0001:000384ac       ?_Assign_rv_contents@?$basic_string@_WU?$char_traits@_W@std@@V?$allocator@_W@2@@std@@QEAAX$$QEAV12@U?$integral_constant@_N$00@2@@Z 00000001400394ac f i libcpmt:wlocale.obj
 0001:000384ac       ?_Assign_rv_contents_with_alloc_always_equal@?$basic_string@GU?$char_traits@G@std@@V?$allocator@G@2@@std@@QEAAX$$QEAV12@U?$integral_constant@_N$00@2@@Z 00000001400394ac f i libcpmt:wlocale.obj
 0001:000384ac       ?_Assign_rv_contents@?$basic_string@GU?$char_traits@G@std@@V?$allocator@G@2@@std@@QEAAX$$QEAV12@U?$integral_constant@_N$00@2@@Z 00000001400394ac f i libcpmt:wlocale.obj
 0001:000384cc       ?_Calculate_growth@?$basic_string@GU?$char_traits@G@std@@V?$allocator@G@2@@std@@QEBA_K_K@Z 00000001400394cc f i libcpmt:wlocale.obj
 0001:00038508       ?_Check_offset@?$_String_val@U?$_Simple_types@G@std@@@std@@QEBAX_K@Z 0000000140039508 f i libcpmt:wlocale.obj
 0001:00038520       ?_Check_offset@?$_String_val@U?$_Simple_types@_W@std@@@std@@QEBAX_K@Z 0000000140039520 f i libcpmt:wlocale.obj
 0001:00038538       ?_Construct_lv_contents@?$basic_string@GU?$char_traits@G@std@@V?$allocator@G@2@@std@@QEAAXAEBV12@@Z 0000000140039538 f i libcpmt:wlocale.obj
 0001:000385c4       ?_Donarrow@?$ctype@G@std@@IEBADGD@Z 00000001400395c4 f i libcpmt:wlocale.obj
 0001:00038618       ?_Donarrow@?$ctype@_W@std@@IEBAD_WD@Z 0000000140039618 f i libcpmt:wlocale.obj
 0001:0003866c       ?_Dowiden@?$ctype@G@std@@IEBAGD@Z 000000014003966c f i libcpmt:wlocale.obj
 0001:000386b4       ?_Dowiden@?$ctype@_W@std@@IEBA_WD@Z 00000001400396b4 f i libcpmt:wlocale.obj
 0001:000386fc       ?_Eos@?$basic_string@_WU?$char_traits@_W@std@@V?$allocator@_W@2@@std@@QEAAX_K@Z 00000001400396fc f i libcpmt:wlocale.obj
 0001:000386fc       ?_Eos@?$basic_string@GU?$char_traits@G@std@@V?$allocator@G@2@@std@@QEAAX_K@Z 00000001400396fc f i libcpmt:wlocale.obj
 0001:00038714       ?_Fnv1a_append_bytes@std@@YA_K_KQEBE_K@Z 0000000140039714 f i libcpmt:wlocale.obj
 0001:00038740       ?_Fput@?$num_put@GV?$ostreambuf_iterator@GU?$char_traits@G@std@@@std@@@std@@AEBA?AV?$ostreambuf_iterator@GU?$char_traits@G@std@@@2@V32@AEAVios_base@2@GPEBD_K@Z 0000000140039740 f i libcpmt:wlocale.obj
 0001:00038bc0       ?_Fput@?$num_put@_WV?$ostreambuf_iterator@_WU?$char_traits@_W@std@@@std@@@std@@AEBA?AV?$ostreambuf_iterator@_WU?$char_traits@_W@std@@@2@V32@AEAVios_base@2@_WPEBD_K@Z 0000000140039bc0 f i libcpmt:wlocale.obj
 0001:00039040       ?_Getcat@?$codecvt@GDU_Mbstatet@@@std@@SA_KPEAPEBVfacet@locale@2@PEBV42@@Z 000000014003a040 f i libcpmt:wlocale.obj
 0001:00039134       ?_Getcat@?$codecvt@_WDU_Mbstatet@@@std@@SA_KPEAPEBVfacet@locale@2@PEBV42@@Z 000000014003a134 f i libcpmt:wlocale.obj
 0001:00039228       ?_Getcat@?$collate@G@std@@SA_KPEAPEBVfacet@locale@2@PEBV42@@Z 000000014003a228 f i libcpmt:wlocale.obj
 0001:00039368       ?_Getcat@?$collate@_W@std@@SA_KPEAPEBVfacet@locale@2@PEBV42@@Z 000000014003a368 f i libcpmt:wlocale.obj
 0001:000394a8       ?_Getcat@?$ctype@G@std@@SA_KPEAPEBVfacet@locale@2@PEBV42@@Z 000000014003a4a8 f i libcpmt:wlocale.obj
 0001:000395b8       ?_Getcat@?$ctype@_W@std@@SA_KPEAPEBVfacet@locale@2@PEBV42@@Z 000000014003a5b8 f i libcpmt:wlocale.obj
 0001:000396c8       ?_Getcat@?$messages@G@std@@SA_KPEAPEBVfacet@locale@2@PEBV42@@Z 000000014003a6c8 f i libcpmt:wlocale.obj
 0001:0003978c       ?_Getcat@?$messages@_W@std@@SA_KPEAPEBVfacet@locale@2@PEBV42@@Z 000000014003a78c f i libcpmt:wlocale.obj
 0001:00039850       ?_Getcat@?$money_get@GV?$istreambuf_iterator@GU?$char_traits@G@std@@@std@@@std@@SA_KPEAPEBVfacet@locale@2@PEBV42@@Z 000000014003a850 f i libcpmt:wlocale.obj
 0001:00039914       ?_Getcat@?$money_get@_WV?$istreambuf_iterator@_WU?$char_traits@_W@std@@@std@@@std@@SA_KPEAPEBVfacet@locale@2@PEBV42@@Z 000000014003a914 f i libcpmt:wlocale.obj
 0001:000399d8       ?_Getcat@?$money_put@GV?$ostreambuf_iterator@GU?$char_traits@G@std@@@std@@@std@@SA_KPEAPEBVfacet@locale@2@PEBV42@@Z 000000014003a9d8 f i libcpmt:wlocale.obj
 0001:00039a9c       ?_Getcat@?$money_put@_WV?$ostreambuf_iterator@_WU?$char_traits@_W@std@@@std@@@std@@SA_KPEAPEBVfacet@locale@2@PEBV42@@Z 000000014003aa9c f i libcpmt:wlocale.obj
 0001:00039b60       ?_Getcat@?$moneypunct@G$00@std@@SA_KPEAPEBVfacet@locale@2@PEBV42@@Z 000000014003ab60 f i libcpmt:wlocale.obj
 0001:00039c40       ?_Getcat@?$moneypunct@G$0A@@std@@SA_KPEAPEBVfacet@locale@2@PEBV42@@Z 000000014003ac40 f i libcpmt:wlocale.obj
 0001:00039d20       ?_Getcat@?$moneypunct@_W$00@std@@SA_KPEAPEBVfacet@locale@2@PEBV42@@Z 000000014003ad20 f i libcpmt:wlocale.obj
 0001:00039e00       ?_Getcat@?$moneypunct@_W$0A@@std@@SA_KPEAPEBVfacet@locale@2@PEBV42@@Z 000000014003ae00 f i libcpmt:wlocale.obj
 0001:00039ee0       ?_Getcat@?$num_get@GV?$istreambuf_iterator@GU?$char_traits@G@std@@@std@@@std@@SA_KPEAPEBVfacet@locale@2@PEBV42@@Z 000000014003aee0 f i libcpmt:wlocale.obj
 0001:00039fa4       ?_Getcat@?$num_get@_WV?$istreambuf_iterator@_WU?$char_traits@_W@std@@@std@@@std@@SA_KPEAPEBVfacet@locale@2@PEBV42@@Z 000000014003afa4 f i libcpmt:wlocale.obj
 0001:0003a068       ?_Getcat@?$num_put@GV?$ostreambuf_iterator@GU?$char_traits@G@std@@@std@@@std@@SA_KPEAPEBVfacet@locale@2@PEBV42@@Z 000000014003b068 f i libcpmt:wlocale.obj
 0001:0003a12c       ?_Getcat@?$num_put@_WV?$ostreambuf_iterator@_WU?$char_traits@_W@std@@@std@@@std@@SA_KPEAPEBVfacet@locale@2@PEBV42@@Z 000000014003b12c f i libcpmt:wlocale.obj
 0001:0003a1f0       ?_Getcat@?$numpunct@G@std@@SA_KPEAPEBVfacet@locale@2@PEBV42@@Z 000000014003b1f0 f i libcpmt:wlocale.obj
 0001:0003a2c4       ?_Getcat@?$numpunct@_W@std@@SA_KPEAPEBVfacet@locale@2@PEBV42@@Z 000000014003b2c4 f i libcpmt:wlocale.obj
 0001:0003a398       ?_Getcat@?$time_get@GV?$istreambuf_iterator@GU?$char_traits@G@std@@@std@@@std@@SA_KPEAPEBVfacet@locale@2@PEBV42@@Z 000000014003b398 f i libcpmt:wlocale.obj
 0001:0003a464       ?_Getcat@?$time_get@_WV?$istreambuf_iterator@_WU?$char_traits@_W@std@@@std@@@std@@SA_KPEAPEBVfacet@locale@2@PEBV42@@Z 000000014003b464 f i libcpmt:wlocale.obj
 0001:0003a530       ?_Getcat@?$time_put@GV?$ostreambuf_iterator@GU?$char_traits@G@std@@@std@@@std@@SA_KPEAPEBVfacet@locale@2@PEBV42@@Z 000000014003b530 f i libcpmt:wlocale.obj
 0001:0003a610       ?_Getcat@?$time_put@_WV?$ostreambuf_iterator@_WU?$char_traits@_W@std@@@std@@@std@@SA_KPEAPEBVfacet@locale@2@PEBV42@@Z 000000014003b610 f i libcpmt:wlocale.obj
 0001:0003a6f0       ?_Getcoll@_Locinfo@std@@QEBA?AU_Collvec@@XZ 000000014003b6f0 f i libcpmt:wlocale.obj
 0001:0003a714       ?_Getdateorder@_Locinfo@std@@QEBAHXZ 000000014003b714 f i libcpmt:wlocale.obj
 0001:0003a71c       ?_Getdays@_Locinfo@std@@QEBAPEBDXZ 000000014003b71c f i libcpmt:wlocale.obj
 0001:0003a768       ?_Getffld@?$num_get@GV?$istreambuf_iterator@GU?$char_traits@G@std@@@std@@@std@@AEBAHPEADAEAV?$istreambuf_iterator@GU?$char_traits@G@std@@@2@1AEAVios_base@2@PEAH@Z 000000014003b768 f i libcpmt:wlocale.obj
 0001:0003b01c       ?_Getffld@?$num_get@_WV?$istreambuf_iterator@_WU?$char_traits@_W@std@@@std@@@std@@AEBAHPEADAEAV?$istreambuf_iterator@_WU?$char_traits@_W@std@@@2@1AEAVios_base@2@PEAH@Z 000000014003c01c f i libcpmt:wlocale.obj
 0001:0003b8d0       ?_Getffldx@?$num_get@GV?$istreambuf_iterator@GU?$char_traits@G@std@@@std@@@std@@AEBAHPEADAEAV?$istreambuf_iterator@GU?$char_traits@G@std@@@2@1AEAVios_base@2@PEAH@Z 000000014003c8d0 f i libcpmt:wlocale.obj
 0001:0003c0e8       ?_Getffldx@?$num_get@_WV?$istreambuf_iterator@_WU?$char_traits@_W@std@@@std@@@std@@AEBAHPEADAEAV?$istreambuf_iterator@_WU?$char_traits@_W@std@@@2@1AEAVios_base@2@PEAH@Z 000000014003d0e8 f i libcpmt:wlocale.obj
 0001:0003c900       ?_Getfmt@?$time_get@GV?$istreambuf_iterator@GU?$char_traits@G@std@@@std@@@std@@IEBA?AV?$istreambuf_iterator@GU?$char_traits@G@std@@@2@V32@0AEAVios_base@2@AEAHPEAUtm@@PEBD@Z 000000014003d900 f i libcpmt:wlocale.obj
 0001:0003cae4       ?_Getfmt@?$time_get@_WV?$istreambuf_iterator@_WU?$char_traits@_W@std@@@std@@@std@@IEBA?AV?$istreambuf_iterator@_WU?$char_traits@_W@std@@@2@V32@0AEAVios_base@2@AEAHPEAUtm@@PEBD@Z 000000014003dae4 f i libcpmt:wlocale.obj
 0001:0003ccc8       ?_Getifld@?$num_get@GV?$istreambuf_iterator@GU?$char_traits@G@std@@@std@@@std@@AEBAHPEADAEAV?$istreambuf_iterator@GU?$char_traits@G@std@@@2@1HAEBVlocale@2@@Z 000000014003dcc8 f i libcpmt:wlocale.obj
 0001:0003d170       ?_Getifld@?$num_get@_WV?$istreambuf_iterator@_WU?$char_traits@_W@std@@@std@@@std@@AEBAHPEADAEAV?$istreambuf_iterator@_WU?$char_traits@_W@std@@@2@1HAEBVlocale@2@@Z 000000014003e170 f i libcpmt:wlocale.obj
 0001:0003d618       ?_Getint@?$time_get@GV?$istreambuf_iterator@GU?$char_traits@G@std@@@std@@@std@@AEBAHAEAV?$istreambuf_iterator@GU?$char_traits@G@std@@@2@0HHAEAHAEBV?$ctype@G@2@@Z 000000014003e618 f i libcpmt:wlocale.obj
 0001:0003d7e4       ?_Getint@?$time_get@_WV?$istreambuf_iterator@_WU?$char_traits@_W@std@@@std@@@std@@AEBAHAEAV?$istreambuf_iterator@_WU?$char_traits@_W@std@@@2@0HHAEAHAEBV?$ctype@_W@2@@Z 000000014003e7e4 f i libcpmt:wlocale.obj
 0001:0003d9b0       ?_Getmfld@?$money_get@GV?$istreambuf_iterator@GU?$char_traits@G@std@@@std@@@std@@AEBA?AV?$basic_string@DU?$char_traits@D@std@@V?$allocator@D@2@@2@AEAV?$istreambuf_iterator@GU?$char_traits@G@std@@@2@0_NAEAVios_base@2@AEAY0M@G@Z 000000014003e9b0 f i libcpmt:wlocale.obj
 0001:0003e978       ?_Getmfld@?$money_get@_WV?$istreambuf_iterator@_WU?$char_traits@_W@std@@@std@@@std@@AEBA?AV?$basic_string@DU?$char_traits@D@std@@V?$allocator@D@2@@2@AEAV?$istreambuf_iterator@_WU?$char_traits@_W@std@@@2@0_NAEAVios_base@2@AEAY0M@_W@Z 000000014003f978 f i libcpmt:wlocale.obj
 0001:0003f940       ?_Getmonths@_Locinfo@std@@QEBAPEBDXZ 0000000140040940 f i libcpmt:wlocale.obj
 0001:0003f98c       ?_Getvals@?$_Mpunct@_W@std@@IEAAX_WPEBUlconv@@@Z 000000014004098c f i libcpmt:wlocale.obj
 0001:0003fa14       ?_Getvals@?$numpunct@_W@std@@IEAAX_WPEBUlconv@@U_Cvtvec@@@Z 0000000140040a14 f i libcpmt:wlocale.obj
 0001:0003fa2c       ?_Gnavail@?$basic_streambuf@GU?$char_traits@G@std@@@std@@IEBA_JXZ 0000000140040a2c f i libcpmt:wlocale.obj
 0001:0003fa2c       ?_Gnavail@?$basic_streambuf@_WU?$char_traits@_W@std@@@std@@IEBA_JXZ 0000000140040a2c f i libcpmt:wlocale.obj
 0001:0003fa44       ?_Gninc@?$basic_streambuf@GU?$char_traits@G@std@@@std@@IEAAPEAGXZ 0000000140040a44 f i libcpmt:wlocale.obj
 0001:0003fa44       ?_Gninc@?$basic_streambuf@_WU?$char_traits@_W@std@@@std@@IEAAPEA_WXZ 0000000140040a44 f i libcpmt:wlocale.obj
 0001:0003fa5c       ?_Inc@?$istreambuf_iterator@GU?$char_traits@G@std@@@std@@AEAAXXZ 0000000140040a5c f i libcpmt:wlocale.obj
 0001:0003fa5c       ?_Inc@?$istreambuf_iterator@_WU?$char_traits@_W@std@@@std@@AEAAXXZ 0000000140040a5c f i libcpmt:wlocale.obj
 0001:0003fad0       ?_Init@?$_Mpunct@G@std@@IEAAXAEBV_Locinfo@2@_N@Z 0000000140040ad0 f i libcpmt:wlocale.obj
 0001:0003fc74       ?_Init@?$_Mpunct@_W@std@@IEAAXAEBV_Locinfo@2@_N@Z 0000000140040c74 f i libcpmt:wlocale.obj
 0001:0003fe18       ?_Init@?$codecvt@GDU_Mbstatet@@@std@@IEAAXAEBV_Locinfo@2@@Z 0000000140040e18 f i libcpmt:wlocale.obj
 0001:0003fe50       ?_Init@?$codecvt@_WDU_Mbstatet@@@std@@IEAAXAEBV_Locinfo@2@@Z 0000000140040e50 f i libcpmt:wlocale.obj
 0001:0003fe88       ?_Init@?$collate@G@std@@IEAAXAEBV_Locinfo@2@@Z 0000000140040e88 f i libcpmt:wlocale.obj
 0001:0003feac       ?_Init@?$collate@_W@std@@IEAAXAEBV_Locinfo@2@@Z 0000000140040eac f i libcpmt:wlocale.obj
 0001:0003fed0       ?_Init@?$ctype@G@std@@IEAAXAEBV_Locinfo@2@@Z 0000000140040ed0 f i libcpmt:wlocale.obj
 0001:0003ff24       ?_Init@?$ctype@_W@std@@IEAAXAEBV_Locinfo@2@@Z 0000000140040f24 f i libcpmt:wlocale.obj
 0001:0003ff78       ?_Init@?$numpunct@G@std@@IEAAXAEBV_Locinfo@2@_N@Z 0000000140040f78 f i libcpmt:wlocale.obj
 0001:000401a0       ?_Init@?$numpunct@_W@std@@IEAAXAEBV_Locinfo@2@_N@Z 00000001400411a0 f i libcpmt:wlocale.obj
 0001:00040398       ?_Init@?$time_get@GV?$istreambuf_iterator@GU?$char_traits@G@std@@@std@@@std@@IEAAXAEBV_Locinfo@2@@Z 0000000140041398 f i libcpmt:wlocale.obj
 0001:000403d4       ?_Init@?$time_get@_WV?$istreambuf_iterator@_WU?$char_traits@_W@std@@@std@@@std@@IEAAXAEBV_Locinfo@2@@Z 00000001400413d4 f i libcpmt:wlocale.obj
 0001:00040410       ?_Init@?$time_put@GV?$ostreambuf_iterator@GU?$char_traits@G@std@@@std@@@std@@IEAAXAEBV_Locinfo@2@@Z 0000000140041410 f i libcpmt:wlocale.obj
 0001:00040430       ?_Init@?$time_put@_WV?$ostreambuf_iterator@_WU?$char_traits@_W@std@@@std@@@std@@IEAAXAEBV_Locinfo@2@@Z 0000000140041430 f i libcpmt:wlocale.obj
 0001:00040450       ?_Iput@?$num_put@GV?$ostreambuf_iterator@GU?$char_traits@G@std@@@std@@@std@@AEBA?AV?$ostreambuf_iterator@GU?$char_traits@G@std@@@2@V32@AEAVios_base@2@GPEAD_K@Z 0000000140041450 f i libcpmt:wlocale.obj
 0001:0004085c       ?_Iput@?$num_put@_WV?$ostreambuf_iterator@_WU?$char_traits@_W@std@@@std@@@std@@AEBA?AV?$ostreambuf_iterator@_WU?$char_traits@_W@std@@@2@V32@AEAVios_base@2@_WPEAD_K@Z 000000014004185c f i libcpmt:wlocale.obj
 0001:00040c68       ?_Large_string_engaged@?$_String_val@U?$_Simple_types@G@std@@@std@@QEBA_NXZ 0000000140041c68 f i libcpmt:wlocale.obj
 0001:00040c74       ?_Makeushloc@_Locimp@locale@std@@CAXAEBV_Locinfo@3@HPEAV123@PEBV23@@Z 0000000140041c74 f   libcpmt:wlocale.obj
 0001:0004192c       ?_Makewloc@_Locimp@locale@std@@CAXAEBV_Locinfo@3@HPEAV123@PEBV23@@Z 000000014004292c f   libcpmt:wlocale.obj
 0001:000425e4       ?_Maklocwcs@std@@YAPEA_WPEB_W@Z 00000001400435e4 f i libcpmt:wlocale.obj
 0001:00042650       ?_Makpat@?$_Mpunct@_W@std@@AEAAXAEAUpattern@money_base@2@III@Z 0000000140043650 f i libcpmt:wlocale.obj
 0001:00042650       ?_Makpat@?$_Mpunct@D@std@@AEAAXAEAUpattern@money_base@2@III@Z 0000000140043650 f i libcpmt:xlocale.obj
 0001:00042650       ?_Makpat@?$_Mpunct@G@std@@AEAAXAEAUpattern@money_base@2@III@Z 0000000140043650 f i libcpmt:wlocale.obj
 0001:00042690       ?_Myptr@?$_String_val@U?$_Simple_types@G@std@@@std@@QEAAPEAGXZ 0000000140043690 f i libcpmt:wlocale.obj
 0001:00042690       ?_Myptr@?$_String_val@U?$_Simple_types@G@std@@@std@@QEBAPEBGXZ 0000000140043690 f i libcpmt:wlocale.obj
 0001:00042690       ?c_str@?$basic_string@GU?$char_traits@G@std@@V?$allocator@G@2@@std@@QEBAPEBGXZ 0000000140043690 f i libcpmt:wlocale.obj
 0001:000426a0       ?_Peek@?$istreambuf_iterator@GU?$char_traits@G@std@@@std@@AEBAGXZ 00000001400436a0 f i libcpmt:wlocale.obj
 0001:00042700       ?_Peek@?$istreambuf_iterator@_WU?$char_traits@_W@std@@@std@@AEBA_WXZ 0000000140043700 f i libcpmt:wlocale.obj
 0001:00042760       ?_Pnavail@?$basic_streambuf@GU?$char_traits@G@std@@@std@@IEBA_JXZ 0000000140043760 f i libcpmt:wlocale.obj
 0001:00042760       ?_Pnavail@?$basic_streambuf@_WU?$char_traits@_W@std@@@std@@IEBA_JXZ 0000000140043760 f i libcpmt:wlocale.obj
 0001:00042778       ?_Pninc@?$basic_streambuf@GU?$char_traits@G@std@@@std@@IEAAPEAGXZ 0000000140043778 f i libcpmt:wlocale.obj
 0001:00042778       ?_Pninc@?$basic_streambuf@_WU?$char_traits@_W@std@@@std@@IEAAPEA_WXZ 0000000140043778 f i libcpmt:wlocale.obj
 0001:00042790       ?_Put@?$money_put@GV?$ostreambuf_iterator@GU?$char_traits@G@std@@@std@@@std@@CA?AV?$ostreambuf_iterator@GU?$char_traits@G@std@@@2@V32@V?$_String_const_iterator@V?$_String_val@U?$_Simple_types@G@std@@@std@@@2@_K@Z 0000000140043790 f i libcpmt:wlocale.obj
 0001:000427ec       ?_Put@?$money_put@_WV?$ostreambuf_iterator@_WU?$char_traits@_W@std@@@std@@@std@@CA?AV?$ostreambuf_iterator@_WU?$char_traits@_W@std@@@2@V32@V?$_String_const_iterator@V?$_String_val@U?$_Simple_types@_W@std@@@std@@@2@_K@Z 00000001400437ec f i libcpmt:wlocale.obj
 0001:00042848       ?_Put@?$num_put@GV?$ostreambuf_iterator@GU?$char_traits@G@std@@@std@@@std@@AEBA?AV?$ostreambuf_iterator@GU?$char_traits@G@std@@@2@V32@PEBG_K@Z 0000000140043848 f i libcpmt:wlocale.obj
 0001:000428a4       ?_Put@?$num_put@_WV?$ostreambuf_iterator@_WU?$char_traits@_W@std@@@std@@@std@@AEBA?AV?$ostreambuf_iterator@_WU?$char_traits@_W@std@@@2@V32@PEB_W_K@Z 00000001400438a4 f i libcpmt:wlocale.obj
 0001:00042900       ?_Putmfld@?$money_put@GV?$ostreambuf_iterator@GU?$char_traits@G@std@@@std@@@std@@AEBA?AV?$ostreambuf_iterator@GU?$char_traits@G@std@@@2@V32@_NAEAVios_base@2@G1V?$basic_string@GU?$char_traits@G@std@@V?$allocator@G@2@@2@G@Z 0000000140043900 f i libcpmt:wlocale.obj
 0001:000430e4       ?_Putmfld@?$money_put@_WV?$ostreambuf_iterator@_WU?$char_traits@_W@std@@@std@@@std@@AEBA?AV?$ostreambuf_iterator@_WU?$char_traits@_W@std@@@2@V32@_NAEAVios_base@2@_W1V?$basic_string@_WU?$char_traits@_W@std@@V?$allocator@_W@2@@2@3@Z 00000001400440e4 f i libcpmt:wlocale.obj
 0001:000438c8       ?_Rep@?$money_put@GV?$ostreambuf_iterator@GU?$char_traits@G@std@@@std@@@std@@CA?AV?$ostreambuf_iterator@GU?$char_traits@G@std@@@2@V32@G_K@Z 00000001400448c8 f i libcpmt:wlocale.obj
 0001:00043920       ?_Rep@?$money_put@_WV?$ostreambuf_iterator@_WU?$char_traits@_W@std@@@std@@@std@@CA?AV?$ostreambuf_iterator@_WU?$char_traits@_W@std@@@2@V32@_W_K@Z 0000000140044920 f i libcpmt:wlocale.obj
 0001:00043978       ?_Rep@?$num_put@GV?$ostreambuf_iterator@GU?$char_traits@G@std@@@std@@@std@@AEBA?AV?$ostreambuf_iterator@GU?$char_traits@G@std@@@2@V32@G_K@Z 0000000140044978 f i libcpmt:wlocale.obj
 0001:000439d0       ?_Rep@?$num_put@_WV?$ostreambuf_iterator@_WU?$char_traits@_W@std@@@std@@@std@@AEBA?AV?$ostreambuf_iterator@_WU?$char_traits@_W@std@@@2@V32@_W_K@Z 00000001400449d0 f i libcpmt:wlocale.obj
 0001:00043a28       ?_Tidy@?$_Mpunct@_W@std@@AEAAXXZ 0000000140044a28 f i libcpmt:wlocale.obj
 0001:00043a28       ?_Tidy@?$_Mpunct@G@std@@AEAAXXZ 0000000140044a28 f i libcpmt:wlocale.obj
 0001:00043a28       ?_Tidy@?$_Mpunct@D@std@@AEAAXXZ 0000000140044a28 f i libcpmt:xlocale.obj
 0001:00043a5c       ?_Tidy@?$numpunct@G@std@@AEAAXXZ 0000000140044a5c f i libcpmt:wlocale.obj
 0001:00043a88       ?_Tidy@?$numpunct@_W@std@@AEAAXXZ 0000000140044a88 f i libcpmt:wlocale.obj
 0001:00043ab4       ?_Tidy@?$time_get@_WV?$istreambuf_iterator@_WU?$char_traits@_W@std@@@std@@@std@@AEAAXXZ 0000000140044ab4 f i libcpmt:wlocale.obj
 0001:00043ab4       ?_Tidy@?$time_get@DV?$istreambuf_iterator@DU?$char_traits@D@std@@@std@@@std@@AEAAXXZ 0000000140044ab4 f i libcpmt:xlocale.obj
 0001:00043ab4       ?_Tidy@?$time_get@GV?$istreambuf_iterator@GU?$char_traits@G@std@@@std@@@std@@AEAAXXZ 0000000140044ab4 f i libcpmt:wlocale.obj
 0001:00043ae0       ?_Tidy_deallocate@?$basic_string@GU?$char_traits@G@std@@V?$allocator@G@2@@std@@QEAAXXZ 0000000140044ae0 f i libcpmt:wlocale.obj
 0001:00043b44       ?_Tidy_init@?$basic_string@GU?$char_traits@G@std@@V?$allocator@G@2@@std@@QEAAXXZ 0000000140044b44 f i libcpmt:wlocale.obj
 0001:00043b58       ?_W_Getdays@_Locinfo@std@@QEBAPEBGXZ 0000000140044b58 f i libcpmt:wlocale.obj
 0001:00043ba4       ?_W_Getmonths@_Locinfo@std@@QEBAPEBGXZ 0000000140044ba4 f i libcpmt:wlocale.obj
 0001:00043bf0       ?_W_Gettnames@_Locinfo@std@@QEBA?AV_Timevec@2@XZ 0000000140044bf0 f i libcpmt:wlocale.obj
 0001:00043c0c       ?_Xlen@?$basic_string@GU?$char_traits@G@std@@V?$allocator@G@2@@std@@SAXXZ 0000000140044c0c f i libcpmt:wlocale.obj
 0001:00043c20       ?_Xran@?$_String_val@U?$_Simple_types@G@std@@@std@@SAXXZ 0000000140044c20 f i libcpmt:wlocale.obj
 0001:00043c34       ?_Xran@?$_String_val@U?$_Simple_types@_W@std@@@std@@SAXXZ 0000000140044c34 f i libcpmt:wlocale.obj
 0001:00043c48       ?allocate@?$allocator@G@std@@QEAAPEAG_K@Z 0000000140044c48 f i libcpmt:wlocale.obj
 0001:00043cb4       ?append@?$basic_string@GU?$char_traits@G@std@@V?$allocator@G@2@@std@@QEAAAEAV12@QEBG_K@Z 0000000140044cb4 f i libcpmt:wlocale.obj
 0001:00043d30       ?append@?$basic_string@GU?$char_traits@G@std@@V?$allocator@G@2@@std@@QEAAAEAV12@_KG@Z 0000000140044d30 f i libcpmt:wlocale.obj
 0001:00043da4       ?append@?$basic_string@_WU?$char_traits@_W@std@@V?$allocator@_W@2@@std@@QEAAAEAV12@_K_W@Z 0000000140044da4 f i libcpmt:wlocale.obj
 0001:00043e18       ?assign@?$_WChar_traits@G@std@@SAPEAGQEAG_KG@Z 0000000140044e18 f i libcpmt:wlocale.obj
 0001:00043e3c       ?assign@?$basic_string@GU?$char_traits@G@std@@V?$allocator@G@2@@std@@QEAAAEAV12@$$QEAV12@@Z 0000000140044e3c f i libcpmt:wlocale.obj
 0001:00043e84       ?assign@?$basic_string@GU?$char_traits@G@std@@V?$allocator@G@2@@std@@QEAAAEAV12@QEBG@Z 0000000140044e84 f i libcpmt:wlocale.obj
 0001:00043ea8       ?assign@?$basic_string@GU?$char_traits@G@std@@V?$allocator@G@2@@std@@QEAAAEAV12@QEBG_K@Z 0000000140044ea8 f i libcpmt:wlocale.obj
 0001:00043f14       ?assign@?$basic_string@GU?$char_traits@G@std@@V?$allocator@G@2@@std@@QEAAAEAV12@_KG@Z 0000000140044f14 f i libcpmt:wlocale.obj
 0001:00043f60       ?assign@?$basic_string@_WU?$char_traits@_W@std@@V?$allocator@_W@2@@std@@QEAAAEAV12@$$QEAV12@@Z 0000000140044f60 f i libcpmt:wlocale.obj
 0001:00043fa8       ?begin@?$basic_string@_WU?$char_traits@_W@std@@V?$allocator@_W@2@@std@@QEAA?AV?$_String_iterator@V?$_String_val@U?$_Simple_types@_W@std@@@std@@@2@XZ 0000000140044fa8 f i libcpmt:wlocale.obj
 0001:00043fa8       ?begin@?$basic_string@GU?$char_traits@G@std@@V?$allocator@G@2@@std@@QEAA?AV?$_String_iterator@V?$_String_val@U?$_Simple_types@G@std@@@std@@@2@XZ 0000000140044fa8 f i libcpmt:wlocale.obj
 0001:00043fbc       ?copy@?$_WChar_traits@G@std@@SAPEAGQEAGQEBG_K@Z 0000000140044fbc f i libcpmt:wlocale.obj
 0001:00043fd8       ?curr_symbol@?$_Mpunct@G@std@@QEBA?AV?$basic_string@GU?$char_traits@G@std@@V?$allocator@G@2@@2@XZ 0000000140044fd8 f i libcpmt:wlocale.obj
 0001:00043ff8       ?curr_symbol@?$_Mpunct@_W@std@@QEBA?AV?$basic_string@_WU?$char_traits@_W@std@@V?$allocator@_W@2@@2@XZ 0000000140044ff8 f i libcpmt:wlocale.obj
 0001:00044018       ?deallocate@?$allocator@G@std@@QEAAXQEAG_K@Z 0000000140045018 f i libcpmt:wlocale.obj
 0001:00044058       ?do_compare@?$collate@G@std@@MEBAHPEBG000@Z 0000000140045058 f i libcpmt:wlocale.obj
 0001:000440ac       ?do_compare@?$collate@_W@std@@MEBAHPEB_W000@Z 00000001400450ac f i libcpmt:wlocale.obj
 0001:000440f0       ?do_curr_symbol@?$_Mpunct@G@std@@MEBA?AV?$basic_string@GU?$char_traits@G@std@@V?$allocator@G@2@@2@XZ 00000001400450f0 f i libcpmt:wlocale.obj
 0001:00044138       ?do_curr_symbol@?$_Mpunct@_W@std@@MEBA?AV?$basic_string@_WU?$char_traits@_W@std@@V?$allocator@_W@2@@2@XZ 0000000140045138 f i libcpmt:wlocale.obj
 0001:00044178       ?GetStackSize@ThreadProxy@details@Concurrency@@QEAAIXZ 0000000140045178 f i libconcrt:ThreadProxyFactoryManager.obj
 0001:00044178       ?do_date_order@?$time_get@GV?$istreambuf_iterator@GU?$char_traits@G@std@@@std@@@std@@MEBA?AW4dateorder@time_base@2@XZ 0000000140045178 f i libcpmt:wlocale.obj
 0001:00044178       ?GetNumBorrowedCores@SchedulerNode@details@Concurrency@@QEAAIXZ 0000000140045178 f i libconcrt:ResourceManager.obj
 0001:00044178       ?do_date_order@?$time_get@DV?$istreambuf_iterator@DU?$char_traits@D@std@@@std@@@std@@MEBA?AW4dateorder@time_base@2@XZ 0000000140045178 f i libcpmt:xlocale.obj
 0001:00044178       ?do_date_order@?$time_get@_WV?$istreambuf_iterator@_WU?$char_traits@_W@std@@@std@@@std@@MEBA?AW4dateorder@time_base@2@XZ 0000000140045178 f i libcpmt:wlocale.obj
 0001:0004417c       ?do_decimal_point@?$_Mpunct@G@std@@MEBAGXZ 000000014004517c f i libcpmt:wlocale.obj
 0001:0004417c       ?do_decimal_point@?$_Mpunct@_W@std@@MEBA_WXZ 000000014004517c f i libcpmt:wlocale.obj
 0001:0004417c       ?do_decimal_point@?$numpunct@_W@std@@MEBA_WXZ 000000014004517c f i libcpmt:wlocale.obj
 0001:0004417c       ?do_decimal_point@?$numpunct@G@std@@MEBAGXZ 000000014004517c f i libcpmt:wlocale.obj
 0001:00044184       _get_startup_thread_locale_mode 0000000140045184 f i LIBCMT:thread_locale.obj
 0001:00044184       __scrt_stub_for_initialize_mta 0000000140045184 f i LIBCMT:utility_desktop.obj
 0001:00044184       __scrt_initialize_winrt    0000000140045184 f i LIBCMT:utility_desktop.obj
 0001:00044184       ?do_encoding@?$codecvt@_WDU_Mbstatet@@@std@@MEBAHXZ 0000000140045184 f i libcpmt:wlocale.obj
 0001:00044184       ?EnterCriticalRegion@ContextBase@details@Concurrency@@QEAAHXZ 0000000140045184 f i libconcrt:ContextBase.obj
 0001:00044184       ?EnterHyperCriticalRegion@ContextBase@details@Concurrency@@QEAAHXZ 0000000140045184 f i libconcrt:ContextBase.obj
 0001:00044184       ?do_encoding@?$codecvt@GDU_Mbstatet@@@std@@MEBAHXZ 0000000140045184 f i libcpmt:wlocale.obj
 0001:00044184       ?ExitHyperCriticalRegion@ContextBase@details@Concurrency@@QEAAHXZ 0000000140045184 f i libconcrt:ContextBase.obj
 0001:00044184       ?DisableTracing@Concurrency@@YAJXZ 0000000140045184 f i libconcrt:Trace.obj
 0001:00044184       ?Release@UMSFreeThreadProxyFactory@details@Concurrency@@UEAAJXZ 0000000140045184 f i libconcrt:ThreadProxyFactoryManager.obj
 0001:00044184       ?Reference@UMSFreeThreadProxyFactory@details@Concurrency@@UEAAJXZ 0000000140045184 f i libconcrt:ThreadProxyFactoryManager.obj
 0001:00044184       ?_Get_deleter@_Ref_count_base@std@@UEBAPEAXAEBVtype_info@@@Z 0000000140045184 f i libcpmt:excptptr.obj
 0001:00044184       ?getESTypes@__FrameHandler4@@SAPEBU_s_ESTypeList@@PEAUFuncInfo4@@@Z 0000000140045184 f i libvcruntime:frame.obj
 0001:00044184       ?get_invalid_value@__crt_hmodule_traits@@SAPEAUHINSTANCE__@@XZ 0000000140045184 f i libucrt:exit.obj
 0001:00044184       ?get_current_state_index@__crt_state_management@@YA_KAEBV__crt_scoped_get_last_error_reset@@@Z 0000000140045184 f i libucrt:per_thread_data.obj
 0001:00044184       ?GetDefaultDestination@VirtualProcessor@details@Concurrency@@UEAAPEAUIExecutionContext@3@XZ 0000000140045184 f i libconcrt:VirtualProcessor.obj
 0001:00044184       ?EnableTracing@Concurrency@@YAJXZ 0000000140045184 f i libconcrt:Trace.obj
 0001:00044184       ?ExitCriticalRegion@ContextBase@details@Concurrency@@QEAAHXZ 0000000140045184 f i libconcrt:ContextBase.obj
 0001:00044184       _get_startup_new_mode      0000000140045184 f i LIBCMT:new_mode.obj
 0001:00044184       _get_startup_commit_mode   0000000140045184 f i LIBCMT:commit_mode.obj
 0001:00044184       ?get_current_state_index@__crt_state_management@@YA_KXZ 0000000140045184 f i libucrt:invalid_parameter.obj
 0001:00044184       _matherr                   0000000140045184 f i LIBCMT:matherr.obj
 0001:00044184       ?PreRunnableSearch@VirtualProcessor@details@Concurrency@@UEAAPEAVInternalContextBase@23@XZ 0000000140045184 f i libconcrt:VirtualProcessor.obj
 0001:00044184       __scrt_exe_initialize_mta  0000000140045184 f i LIBCMT:utility_desktop.obj
 0001:00044184       _guard_rf_checks_enforced  0000000140045184 f i LIBCMT:guard_support.obj
 0001:00044184       ?GetContextKind@ExternalContextBase@details@Concurrency@@EEBA?AW4ContextKind@ContextBase@23@XZ 0000000140045184 f i libconcrt:ExternalContextBase.obj
 0001:00044188       ?do_falsename@?$numpunct@G@std@@MEBA?AV?$basic_string@GU?$char_traits@G@std@@V?$allocator@G@2@@2@XZ 0000000140045188 f i libcpmt:wlocale.obj
 0001:000441d0       ?do_falsename@?$numpunct@_W@std@@MEBA?AV?$basic_string@_WU?$char_traits@_W@std@@V?$allocator@_W@2@@2@XZ 00000001400451d0 f i libcpmt:wlocale.obj
 0001:00044210       ?do_frac_digits@?$_Mpunct@G@std@@MEBAHXZ 0000000140045210 f i libcpmt:wlocale.obj
 0001:00044210       ?do_frac_digits@?$_Mpunct@_W@std@@MEBAHXZ 0000000140045210 f i libcpmt:wlocale.obj
 0001:00044210       ?do_frac_digits@?$_Mpunct@D@std@@MEBAHXZ 0000000140045210 f i libcpmt:xlocale.obj
 0001:00044214       ?do_get@?$messages@G@std@@MEBA?AV?$basic_string@GU?$char_traits@G@std@@V?$allocator@G@2@@2@HHHAEBV32@@Z 0000000140045214 f i libcpmt:wlocale.obj
 0001:00044240       ?do_get@?$messages@_W@std@@MEBA?AV?$basic_string@_WU?$char_traits@_W@std@@V?$allocator@_W@2@@2@HHHAEBV32@@Z 0000000140045240 f i libcpmt:wlocale.obj
 0001:0004426c       ?do_get@?$money_get@GV?$istreambuf_iterator@GU?$char_traits@G@std@@@std@@@std@@MEBA?AV?$istreambuf_iterator@GU?$char_traits@G@std@@@2@V32@0_NAEAVios_base@2@AEAHAEAO@Z 000000014004526c f i libcpmt:wlocale.obj
 0001:000443b0       ?do_get@?$money_get@GV?$istreambuf_iterator@GU?$char_traits@G@std@@@std@@@std@@MEBA?AV?$istreambuf_iterator@GU?$char_traits@G@std@@@2@V32@0_NAEAVios_base@2@AEAHAEAV?$basic_string@GU?$char_traits@G@std@@V?$allocator@G@2@@2@@Z 00000001400453b0 f i libcpmt:wlocale.obj
 0001:00044530       ?do_get@?$money_get@_WV?$istreambuf_iterator@_WU?$char_traits@_W@std@@@std@@@std@@MEBA?AV?$istreambuf_iterator@_WU?$char_traits@_W@std@@@2@V32@0_NAEAVios_base@2@AEAHAEAO@Z 0000000140045530 f i libcpmt:wlocale.obj
 0001:00044674       ?do_get@?$money_get@_WV?$istreambuf_iterator@_WU?$char_traits@_W@std@@@std@@@std@@MEBA?AV?$istreambuf_iterator@_WU?$char_traits@_W@std@@@2@V32@0_NAEAVios_base@2@AEAHAEAV?$basic_string@_WU?$char_traits@_W@std@@V?$allocator@_W@2@@2@@Z 0000000140045674 f i libcpmt:wlocale.obj
 0001:000447f4       ?do_get@?$num_get@GV?$istreambuf_iterator@GU?$char_traits@G@std@@@std@@@std@@MEBA?AV?$istreambuf_iterator@GU?$char_traits@G@std@@@2@V32@0AEAVios_base@2@AEAHAEAG@Z 00000001400457f4 f i libcpmt:wlocale.obj
 0001:00044958       ?do_get@?$num_get@GV?$istreambuf_iterator@GU?$char_traits@G@std@@@std@@@std@@MEBA?AV?$istreambuf_iterator@GU?$char_traits@G@std@@@2@V32@0AEAVios_base@2@AEAHAEAI@Z 0000000140045958 f i libcpmt:wlocale.obj
 0001:000449d8       ?do_get@?$num_get@GV?$istreambuf_iterator@GU?$char_traits@G@std@@@std@@@std@@MEBA?AV?$istreambuf_iterator@GU?$char_traits@G@std@@@2@V32@0AEAVios_base@2@AEAHAEAJ@Z 00000001400459d8 f i libcpmt:wlocale.obj
 0001:00044b0c       ?do_get@?$num_get@GV?$istreambuf_iterator@GU?$char_traits@G@std@@@std@@@std@@MEBA?AV?$istreambuf_iterator@GU?$char_traits@G@std@@@2@V32@0AEAVios_base@2@AEAHAEAK@Z 0000000140045b0c f i libcpmt:wlocale.obj
 0001:00044c40       ?do_get@?$num_get@GV?$istreambuf_iterator@GU?$char_traits@G@std@@@std@@@std@@MEBA?AV?$istreambuf_iterator@GU?$char_traits@G@std@@@2@V32@0AEAVios_base@2@AEAHAEAM@Z 0000000140045c40 f i libcpmt:wlocale.obj
 0001:00044d58       ?do_get@?$num_get@GV?$istreambuf_iterator@GU?$char_traits@G@std@@@std@@@std@@MEBA?AV?$istreambuf_iterator@GU?$char_traits@G@std@@@2@V32@0AEAVios_base@2@AEAHAEAN@Z 0000000140045d58 f i libcpmt:wlocale.obj
 0001:00044e64       ?do_get@?$num_get@GV?$istreambuf_iterator@GU?$char_traits@G@std@@@std@@@std@@MEBA?AV?$istreambuf_iterator@GU?$char_traits@G@std@@@2@V32@0AEAVios_base@2@AEAHAEAO@Z 0000000140045e64 f i libcpmt:wlocale.obj
 0001:00044ee8       ?do_get@?$num_get@GV?$istreambuf_iterator@GU?$char_traits@G@std@@@std@@@std@@MEBA?AV?$istreambuf_iterator@GU?$char_traits@G@std@@@2@V32@0AEAVios_base@2@AEAHAEAPEAX@Z 0000000140045ee8 f i libcpmt:wlocale.obj
 0001:00045010       ?do_get@?$num_get@GV?$istreambuf_iterator@GU?$char_traits@G@std@@@std@@@std@@MEBA?AV?$istreambuf_iterator@GU?$char_traits@G@std@@@2@V32@0AEAVios_base@2@AEAHAEA_J@Z 0000000140046010 f i libcpmt:wlocale.obj
 0001:00045144       ?do_get@?$num_get@GV?$istreambuf_iterator@GU?$char_traits@G@std@@@std@@@std@@MEBA?AV?$istreambuf_iterator@GU?$char_traits@G@std@@@2@V32@0AEAVios_base@2@AEAHAEA_K@Z 0000000140046144 f i libcpmt:wlocale.obj
 0001:00045278       ?do_get@?$num_get@GV?$istreambuf_iterator@GU?$char_traits@G@std@@@std@@@std@@MEBA?AV?$istreambuf_iterator@GU?$char_traits@G@std@@@2@V32@0AEAVios_base@2@AEAHAEA_N@Z 0000000140046278 f i libcpmt:wlocale.obj
 0001:00045534       ?do_get@?$num_get@_WV?$istreambuf_iterator@_WU?$char_traits@_W@std@@@std@@@std@@MEBA?AV?$istreambuf_iterator@_WU?$char_traits@_W@std@@@2@V32@0AEAVios_base@2@AEAHAEAG@Z 0000000140046534 f i libcpmt:wlocale.obj
 0001:00045698       ?do_get@?$num_get@_WV?$istreambuf_iterator@_WU?$char_traits@_W@std@@@std@@@std@@MEBA?AV?$istreambuf_iterator@_WU?$char_traits@_W@std@@@2@V32@0AEAVios_base@2@AEAHAEAI@Z 0000000140046698 f i libcpmt:wlocale.obj
 0001:00045718       ?do_get@?$num_get@_WV?$istreambuf_iterator@_WU?$char_traits@_W@std@@@std@@@std@@MEBA?AV?$istreambuf_iterator@_WU?$char_traits@_W@std@@@2@V32@0AEAVios_base@2@AEAHAEAJ@Z 0000000140046718 f i libcpmt:wlocale.obj
 0001:0004584c       ?do_get@?$num_get@_WV?$istreambuf_iterator@_WU?$char_traits@_W@std@@@std@@@std@@MEBA?AV?$istreambuf_iterator@_WU?$char_traits@_W@std@@@2@V32@0AEAVios_base@2@AEAHAEAK@Z 000000014004684c f i libcpmt:wlocale.obj
 0001:00045980       ?do_get@?$num_get@_WV?$istreambuf_iterator@_WU?$char_traits@_W@std@@@std@@@std@@MEBA?AV?$istreambuf_iterator@_WU?$char_traits@_W@std@@@2@V32@0AEAVios_base@2@AEAHAEAM@Z 0000000140046980 f i libcpmt:wlocale.obj
 0001:00045a98       ?do_get@?$num_get@_WV?$istreambuf_iterator@_WU?$char_traits@_W@std@@@std@@@std@@MEBA?AV?$istreambuf_iterator@_WU?$char_traits@_W@std@@@2@V32@0AEAVios_base@2@AEAHAEAN@Z 0000000140046a98 f i libcpmt:wlocale.obj
 0001:00045ba4       ?do_get@?$num_get@_WV?$istreambuf_iterator@_WU?$char_traits@_W@std@@@std@@@std@@MEBA?AV?$istreambuf_iterator@_WU?$char_traits@_W@std@@@2@V32@0AEAVios_base@2@AEAHAEAO@Z 0000000140046ba4 f i libcpmt:wlocale.obj
 0001:00045c28       ?do_get@?$num_get@_WV?$istreambuf_iterator@_WU?$char_traits@_W@std@@@std@@@std@@MEBA?AV?$istreambuf_iterator@_WU?$char_traits@_W@std@@@2@V32@0AEAVios_base@2@AEAHAEAPEAX@Z 0000000140046c28 f i libcpmt:wlocale.obj
 0001:00045d50       ?do_get@?$num_get@_WV?$istreambuf_iterator@_WU?$char_traits@_W@std@@@std@@@std@@MEBA?AV?$istreambuf_iterator@_WU?$char_traits@_W@std@@@2@V32@0AEAVios_base@2@AEAHAEA_J@Z 0000000140046d50 f i libcpmt:wlocale.obj
 0001:00045e84       ?do_get@?$num_get@_WV?$istreambuf_iterator@_WU?$char_traits@_W@std@@@std@@@std@@MEBA?AV?$istreambuf_iterator@_WU?$char_traits@_W@std@@@2@V32@0AEAVios_base@2@AEAHAEA_K@Z 0000000140046e84 f i libcpmt:wlocale.obj
 0001:00045fb8       ?do_get@?$num_get@_WV?$istreambuf_iterator@_WU?$char_traits@_W@std@@@std@@@std@@MEBA?AV?$istreambuf_iterator@_WU?$char_traits@_W@std@@@2@V32@0AEAVios_base@2@AEAHAEA_N@Z 0000000140046fb8 f i libcpmt:wlocale.obj
 0001:00046274       ?do_get@?$time_get@GV?$istreambuf_iterator@GU?$char_traits@G@std@@@std@@@std@@MEBA?AV?$istreambuf_iterator@GU?$char_traits@G@std@@@2@V32@0AEAVios_base@2@AEAHPEAUtm@@DD@Z 0000000140047274 f i libcpmt:wlocale.obj
 0001:000467f0       ?do_get@?$time_get@_WV?$istreambuf_iterator@_WU?$char_traits@_W@std@@@std@@@std@@MEBA?AV?$istreambuf_iterator@_WU?$char_traits@_W@std@@@2@V32@0AEAVios_base@2@AEAHPEAUtm@@DD@Z 00000001400477f0 f i libcpmt:wlocale.obj
 0001:00046d6c       ?do_get_date@?$time_get@GV?$istreambuf_iterator@GU?$char_traits@G@std@@@std@@@std@@MEBA?AV?$istreambuf_iterator@GU?$char_traits@G@std@@@2@V32@0AEAVios_base@2@AEAHPEAUtm@@@Z 0000000140047d6c f i libcpmt:wlocale.obj
 0001:00047344       ?do_get_date@?$time_get@_WV?$istreambuf_iterator@_WU?$char_traits@_W@std@@@std@@@std@@MEBA?AV?$istreambuf_iterator@_WU?$char_traits@_W@std@@@2@V32@0AEAVios_base@2@AEAHPEAUtm@@@Z 0000000140048344 f i libcpmt:wlocale.obj
 0001:0004791c       ?do_get_monthname@?$time_get@GV?$istreambuf_iterator@GU?$char_traits@G@std@@@std@@@std@@MEBA?AV?$istreambuf_iterator@GU?$char_traits@G@std@@@2@V32@0AEAVios_base@2@AEAHPEAUtm@@@Z 000000014004891c f i libcpmt:wlocale.obj
 0001:00047970       ?do_get_monthname@?$time_get@_WV?$istreambuf_iterator@_WU?$char_traits@_W@std@@@std@@@std@@MEBA?AV?$istreambuf_iterator@_WU?$char_traits@_W@std@@@2@V32@0AEAVios_base@2@AEAHPEAUtm@@@Z 0000000140048970 f i libcpmt:wlocale.obj
 0001:000479c4       ?do_get_time@?$time_get@GV?$istreambuf_iterator@GU?$char_traits@G@std@@@std@@@std@@MEBA?AV?$istreambuf_iterator@GU?$char_traits@G@std@@@2@V32@0AEAVios_base@2@AEAHPEAUtm@@@Z 00000001400489c4 f i libcpmt:wlocale.obj
 0001:00047b78       ?do_get_time@?$time_get@_WV?$istreambuf_iterator@_WU?$char_traits@_W@std@@@std@@@std@@MEBA?AV?$istreambuf_iterator@_WU?$char_traits@_W@std@@@2@V32@0AEAVios_base@2@AEAHPEAUtm@@@Z 0000000140048b78 f i libcpmt:wlocale.obj
 0001:00047d2c       ?do_get_weekday@?$time_get@GV?$istreambuf_iterator@GU?$char_traits@G@std@@@std@@@std@@MEBA?AV?$istreambuf_iterator@GU?$char_traits@G@std@@@2@V32@0AEAVios_base@2@AEAHPEAUtm@@@Z 0000000140048d2c f i libcpmt:wlocale.obj
 0001:00047d80       ?do_get_weekday@?$time_get@_WV?$istreambuf_iterator@_WU?$char_traits@_W@std@@@std@@@std@@MEBA?AV?$istreambuf_iterator@_WU?$char_traits@_W@std@@@2@V32@0AEAVios_base@2@AEAHPEAUtm@@@Z 0000000140048d80 f i libcpmt:wlocale.obj
 0001:00047dd4       ?do_get_year@?$time_get@GV?$istreambuf_iterator@GU?$char_traits@G@std@@@std@@@std@@MEBA?AV?$istreambuf_iterator@GU?$char_traits@G@std@@@2@V32@0AEAVios_base@2@AEAHPEAUtm@@@Z 0000000140048dd4 f i libcpmt:wlocale.obj
 0001:00047ef0       ?do_get_year@?$time_get@_WV?$istreambuf_iterator@_WU?$char_traits@_W@std@@@std@@@std@@MEBA?AV?$istreambuf_iterator@_WU?$char_traits@_W@std@@@2@V32@0AEAVios_base@2@AEAHPEAUtm@@@Z 0000000140048ef0 f i libcpmt:wlocale.obj
 0001:0004800c       ?do_grouping@?$_Mpunct@G@std@@MEBA?AV?$basic_string@DU?$char_traits@D@std@@V?$allocator@D@2@@2@XZ 000000014004900c f i libcpmt:wlocale.obj
 0001:0004803c       ?do_grouping@?$_Mpunct@_W@std@@MEBA?AV?$basic_string@DU?$char_traits@D@std@@V?$allocator@D@2@@2@XZ 000000014004903c f i libcpmt:wlocale.obj
 0001:0004806c       ?do_grouping@?$numpunct@G@std@@MEBA?AV?$basic_string@DU?$char_traits@D@std@@V?$allocator@D@2@@2@XZ 000000014004906c f i libcpmt:wlocale.obj
 0001:0004809c       ?do_grouping@?$numpunct@_W@std@@MEBA?AV?$basic_string@DU?$char_traits@D@std@@V?$allocator@D@2@@2@XZ 000000014004909c f i libcpmt:wlocale.obj
 0001:000480cc       ?do_hash@?$collate@G@std@@MEBAJPEBG0@Z 00000001400490cc f i libcpmt:wlocale.obj
 0001:000480cc       ?do_hash@?$collate@_W@std@@MEBAJPEB_W0@Z 00000001400490cc f i libcpmt:wlocale.obj
 0001:00048108       ?do_in@?$codecvt@GDU_Mbstatet@@@std@@MEBAHAEAU_Mbstatet@@PEBD1AEAPEBDPEAG3AEAPEAG@Z 0000000140049108 f i libcpmt:wlocale.obj
 0001:000481b4       ?do_in@?$codecvt@_WDU_Mbstatet@@@std@@MEBAHAEAU_Mbstatet@@PEBD1AEAPEBDPEA_W3AEAPEA_W@Z 00000001400491b4 f i libcpmt:wlocale.obj
 0001:00048260       ?do_is@?$ctype@G@std@@MEBAPEBGPEBG0PEAF@Z 0000000140049260 f i libcpmt:wlocale.obj
 0001:00048260       ?do_is@?$ctype@_W@std@@MEBAPEB_WPEB_W0PEAF@Z 0000000140049260 f i libcpmt:wlocale.obj
 0001:0004827c       ?do_is@?$ctype@G@std@@MEBA_NFG@Z 000000014004927c f i libcpmt:wlocale.obj
 0001:000482a0       ?do_is@?$ctype@_W@std@@MEBA_NF_W@Z 00000001400492a0 f i libcpmt:wlocale.obj
 0001:000482c4       ?do_length@?$codecvt@GDU_Mbstatet@@@std@@MEBAHAEAU_Mbstatet@@PEBD1_K@Z 00000001400492c4 f i libcpmt:wlocale.obj
 0001:0004836c       ?do_length@?$codecvt@_WDU_Mbstatet@@@std@@MEBAHAEAU_Mbstatet@@PEBD1_K@Z 000000014004936c f i libcpmt:wlocale.obj
 0001:00048414       ?do_max_length@?$codecvt@_WDU_Mbstatet@@@std@@MEBAHXZ 0000000140049414 f i libcpmt:wlocale.obj
 0001:00048414       ?do_max_length@?$codecvt@GDU_Mbstatet@@@std@@MEBAHXZ 0000000140049414 f i libcpmt:wlocale.obj
 0001:0004841c       ?do_narrow@?$ctype@G@std@@MEBADGD@Z 000000014004941c f i libcpmt:wlocale.obj
 0001:00048470       ?do_narrow@?$ctype@G@std@@MEBAPEBGPEBG0DPEAD@Z 0000000140049470 f i libcpmt:wlocale.obj
 0001:00048528       ?do_narrow@?$ctype@_W@std@@MEBAD_WD@Z 0000000140049528 f i libcpmt:wlocale.obj
 0001:0004857c       ?do_narrow@?$ctype@_W@std@@MEBAPEB_WPEB_W0DPEAD@Z 000000014004957c f i libcpmt:wlocale.obj
 0001:00048634       ?do_neg_format@?$_Mpunct@G@std@@MEBA?AUpattern@money_base@2@XZ 0000000140049634 f i libcpmt:wlocale.obj
 0001:00048634       ?do_neg_format@?$_Mpunct@D@std@@MEBA?AUpattern@money_base@2@XZ 0000000140049634 f i libcpmt:xlocale.obj
 0001:00048634       ?do_neg_format@?$_Mpunct@_W@std@@MEBA?AUpattern@money_base@2@XZ 0000000140049634 f i libcpmt:wlocale.obj
 0001:00048640       ?do_negative_sign@?$_Mpunct@G@std@@MEBA?AV?$basic_string@GU?$char_traits@G@std@@V?$allocator@G@2@@2@XZ 0000000140049640 f i libcpmt:wlocale.obj
 0001:00048688       ?do_negative_sign@?$_Mpunct@_W@std@@MEBA?AV?$basic_string@_WU?$char_traits@_W@std@@V?$allocator@_W@2@@2@XZ 0000000140049688 f i libcpmt:wlocale.obj
 0001:000486c8       ?do_out@?$codecvt@GDU_Mbstatet@@@std@@MEBAHAEAU_Mbstatet@@PEBG1AEAPEBGPEAD3AEAPEAD@Z 00000001400496c8 f i libcpmt:wlocale.obj
 0001:000487f8       ?do_out@?$codecvt@_WDU_Mbstatet@@@std@@MEBAHAEAU_Mbstatet@@PEB_W1AEAPEB_WPEAD3AEAPEAD@Z 00000001400497f8 f i libcpmt:wlocale.obj
 0001:00048928       ?do_pos_format@?$_Mpunct@G@std@@MEBA?AUpattern@money_base@2@XZ 0000000140049928 f i libcpmt:wlocale.obj
 0001:00048928       ?do_pos_format@?$_Mpunct@D@std@@MEBA?AUpattern@money_base@2@XZ 0000000140049928 f i libcpmt:xlocale.obj
 0001:00048928       ?do_pos_format@?$_Mpunct@_W@std@@MEBA?AUpattern@money_base@2@XZ 0000000140049928 f i libcpmt:wlocale.obj
 0001:00048934       ?do_positive_sign@?$_Mpunct@G@std@@MEBA?AV?$basic_string@GU?$char_traits@G@std@@V?$allocator@G@2@@2@XZ 0000000140049934 f i libcpmt:wlocale.obj
 0001:0004897c       ?do_positive_sign@?$_Mpunct@_W@std@@MEBA?AV?$basic_string@_WU?$char_traits@_W@std@@V?$allocator@_W@2@@2@XZ 000000014004997c f i libcpmt:wlocale.obj
 0001:000489bc       ?do_put@?$money_put@GV?$ostreambuf_iterator@GU?$char_traits@G@std@@@std@@@std@@MEBA?AV?$ostreambuf_iterator@GU?$char_traits@G@std@@@2@V32@_NAEAVios_base@2@GAEBV?$basic_string@GU?$char_traits@G@std@@V?$allocator@G@2@@2@@Z 00000001400499bc f i libcpmt:wlocale.obj
 0001:00048c9c       ?do_put@?$money_put@GV?$ostreambuf_iterator@GU?$char_traits@G@std@@@std@@@std@@MEBA?AV?$ostreambuf_iterator@GU?$char_traits@G@std@@@2@V32@_NAEAVios_base@2@GO@Z 0000000140049c9c f i libcpmt:wlocale.obj
 0001:00048e94       ?do_put@?$money_put@_WV?$ostreambuf_iterator@_WU?$char_traits@_W@std@@@std@@@std@@MEBA?AV?$ostreambuf_iterator@_WU?$char_traits@_W@std@@@2@V32@_NAEAVios_base@2@_WAEBV?$basic_string@_WU?$char_traits@_W@std@@V?$allocator@_W@2@@2@@Z 0000000140049e94 f i libcpmt:wlocale.obj
 0001:00049174       ?do_put@?$money_put@_WV?$ostreambuf_iterator@_WU?$char_traits@_W@std@@@std@@@std@@MEBA?AV?$ostreambuf_iterator@_WU?$char_traits@_W@std@@@2@V32@_NAEAVios_base@2@_WO@Z 000000014004a174 f i libcpmt:wlocale.obj
 0001:0004936c       ?do_put@?$num_put@GV?$ostreambuf_iterator@GU?$char_traits@G@std@@@std@@@std@@MEBA?AV?$ostreambuf_iterator@GU?$char_traits@G@std@@@2@V32@AEAVios_base@2@GJ@Z 000000014004a36c f i libcpmt:wlocale.obj
 0001:0004941c       ?do_put@?$num_put@GV?$ostreambuf_iterator@GU?$char_traits@G@std@@@std@@@std@@MEBA?AV?$ostreambuf_iterator@GU?$char_traits@G@std@@@2@V32@AEAVios_base@2@GK@Z 000000014004a41c f i libcpmt:wlocale.obj
 0001:000494cc       ?do_put@?$num_put@GV?$ostreambuf_iterator@GU?$char_traits@G@std@@@std@@@std@@MEBA?AV?$ostreambuf_iterator@GU?$char_traits@G@std@@@2@V32@AEAVios_base@2@GN@Z 000000014004a4cc f i libcpmt:wlocale.obj
 0001:000496ac       ?do_put@?$num_put@GV?$ostreambuf_iterator@GU?$char_traits@G@std@@@std@@@std@@MEBA?AV?$ostreambuf_iterator@GU?$char_traits@G@std@@@2@V32@AEAVios_base@2@GO@Z 000000014004a6ac f i libcpmt:wlocale.obj
 0001:0004988c       ?do_put@?$num_put@GV?$ostreambuf_iterator@GU?$char_traits@G@std@@@std@@@std@@MEBA?AV?$ostreambuf_iterator@GU?$char_traits@G@std@@@2@V32@AEAVios_base@2@GPEBX@Z 000000014004a88c f i libcpmt:wlocale.obj
 0001:0004992c       ?do_put@?$num_put@GV?$ostreambuf_iterator@GU?$char_traits@G@std@@@std@@@std@@MEBA?AV?$ostreambuf_iterator@GU?$char_traits@G@std@@@2@V32@AEAVios_base@2@G_J@Z 000000014004a92c f i libcpmt:wlocale.obj
 0001:000499dc       ?do_put@?$num_put@GV?$ostreambuf_iterator@GU?$char_traits@G@std@@@std@@@std@@MEBA?AV?$ostreambuf_iterator@GU?$char_traits@G@std@@@2@V32@AEAVios_base@2@G_K@Z 000000014004a9dc f i libcpmt:wlocale.obj
 0001:00049a8c       ?do_put@?$num_put@GV?$ostreambuf_iterator@GU?$char_traits@G@std@@@std@@@std@@MEBA?AV?$ostreambuf_iterator@GU?$char_traits@G@std@@@2@V32@AEAVios_base@2@G_N@Z 000000014004aa8c f i libcpmt:wlocale.obj
 0001:00049ca4       ?do_put@?$num_put@_WV?$ostreambuf_iterator@_WU?$char_traits@_W@std@@@std@@@std@@MEBA?AV?$ostreambuf_iterator@_WU?$char_traits@_W@std@@@2@V32@AEAVios_base@2@_WJ@Z 000000014004aca4 f i libcpmt:wlocale.obj
 0001:00049d54       ?do_put@?$num_put@_WV?$ostreambuf_iterator@_WU?$char_traits@_W@std@@@std@@@std@@MEBA?AV?$ostreambuf_iterator@_WU?$char_traits@_W@std@@@2@V32@AEAVios_base@2@_WK@Z 000000014004ad54 f i libcpmt:wlocale.obj
 0001:00049e04       ?do_put@?$num_put@_WV?$ostreambuf_iterator@_WU?$char_traits@_W@std@@@std@@@std@@MEBA?AV?$ostreambuf_iterator@_WU?$char_traits@_W@std@@@2@V32@AEAVios_base@2@_WN@Z 000000014004ae04 f i libcpmt:wlocale.obj
 0001:00049fe4       ?do_put@?$num_put@_WV?$ostreambuf_iterator@_WU?$char_traits@_W@std@@@std@@@std@@MEBA?AV?$ostreambuf_iterator@_WU?$char_traits@_W@std@@@2@V32@AEAVios_base@2@_WO@Z 000000014004afe4 f i libcpmt:wlocale.obj
 0001:0004a1c4       ?do_put@?$num_put@_WV?$ostreambuf_iterator@_WU?$char_traits@_W@std@@@std@@@std@@MEBA?AV?$ostreambuf_iterator@_WU?$char_traits@_W@std@@@2@V32@AEAVios_base@2@_WPEBX@Z 000000014004b1c4 f i libcpmt:wlocale.obj
 0001:0004a264       ?do_put@?$num_put@_WV?$ostreambuf_iterator@_WU?$char_traits@_W@std@@@std@@@std@@MEBA?AV?$ostreambuf_iterator@_WU?$char_traits@_W@std@@@2@V32@AEAVios_base@2@_W_J@Z 000000014004b264 f i libcpmt:wlocale.obj
 0001:0004a314       ?do_put@?$num_put@_WV?$ostreambuf_iterator@_WU?$char_traits@_W@std@@@std@@@std@@MEBA?AV?$ostreambuf_iterator@_WU?$char_traits@_W@std@@@2@V32@AEAVios_base@2@_W_K@Z 000000014004b314 f i libcpmt:wlocale.obj
 0001:0004a3c4       ?do_put@?$num_put@_WV?$ostreambuf_iterator@_WU?$char_traits@_W@std@@@std@@@std@@MEBA?AV?$ostreambuf_iterator@_WU?$char_traits@_W@std@@@2@V32@AEAVios_base@2@_W_N@Z 000000014004b3c4 f i libcpmt:wlocale.obj
 0001:0004a5dc       ?do_put@?$time_put@_WV?$ostreambuf_iterator@_WU?$char_traits@_W@std@@@std@@@std@@MEBA?AV?$ostreambuf_iterator@_WU?$char_traits@_W@std@@@2@V32@AEAVios_base@2@_WPEBUtm@@DD@Z 000000014004b5dc f i libcpmt:wlocale.obj
 0001:0004a5dc       ?do_put@?$time_put@GV?$ostreambuf_iterator@GU?$char_traits@G@std@@@std@@@std@@MEBA?AV?$ostreambuf_iterator@GU?$char_traits@G@std@@@2@V32@AEAVios_base@2@GPEBUtm@@DD@Z 000000014004b5dc f i libcpmt:wlocale.obj
 0001:0004a718       ?do_scan_is@?$ctype@G@std@@MEBAPEBGFPEBG0@Z 000000014004b718 f i libcpmt:wlocale.obj
 0001:0004a77c       ?do_scan_is@?$ctype@_W@std@@MEBAPEB_WFPEB_W0@Z 000000014004b77c f i libcpmt:wlocale.obj
 0001:0004a7e0       ?do_scan_not@?$ctype@G@std@@MEBAPEBGFPEBG0@Z 000000014004b7e0 f i libcpmt:wlocale.obj
 0001:0004a844       ?do_scan_not@?$ctype@_W@std@@MEBAPEB_WFPEB_W0@Z 000000014004b844 f i libcpmt:wlocale.obj
 0001:0004a8a8       ?do_thousands_sep@?$numpunct@G@std@@MEBAGXZ 000000014004b8a8 f i libcpmt:wlocale.obj
 0001:0004a8a8       ?do_thousands_sep@?$numpunct@_W@std@@MEBA_WXZ 000000014004b8a8 f i libcpmt:wlocale.obj
 0001:0004a8a8       ?do_thousands_sep@?$_Mpunct@G@std@@MEBAGXZ 000000014004b8a8 f i libcpmt:wlocale.obj
 0001:0004a8a8       ?do_thousands_sep@?$_Mpunct@_W@std@@MEBA_WXZ 000000014004b8a8 f i libcpmt:wlocale.obj
 0001:0004a8b0       ?do_tolower@?$ctype@G@std@@MEBAGG@Z 000000014004b8b0 f i libcpmt:wlocale.obj
 0001:0004a8b0       ?do_tolower@?$ctype@_W@std@@MEBA_W_W@Z 000000014004b8b0 f i libcpmt:wlocale.obj
 0001:0004a8c0       ?do_tolower@?$ctype@G@std@@MEBAPEBGPEAGPEBG@Z 000000014004b8c0 f i libcpmt:wlocale.obj
 0001:0004a928       ?do_tolower@?$ctype@_W@std@@MEBAPEB_WPEA_WPEB_W@Z 000000014004b928 f i libcpmt:wlocale.obj
 0001:0004a990       ?do_toupper@?$ctype@G@std@@MEBAGG@Z 000000014004b990 f i libcpmt:wlocale.obj
 0001:0004a990       ?do_toupper@?$ctype@_W@std@@MEBA_W_W@Z 000000014004b990 f i libcpmt:wlocale.obj
 0001:0004a9a0       ?do_toupper@?$ctype@G@std@@MEBAPEBGPEAGPEBG@Z 000000014004b9a0 f i libcpmt:wlocale.obj
 0001:0004aa08       ?do_toupper@?$ctype@_W@std@@MEBAPEB_WPEA_WPEB_W@Z 000000014004ba08 f i libcpmt:wlocale.obj
 0001:0004aa70       ?do_transform@?$collate@G@std@@MEBA?AV?$basic_string@GU?$char_traits@G@std@@V?$allocator@G@2@@2@PEBG0@Z 000000014004ba70 f i libcpmt:wlocale.obj
 0001:0004ab7c       ?do_transform@?$collate@_W@std@@MEBA?AV?$basic_string@_WU?$char_traits@_W@std@@V?$allocator@_W@2@@2@PEB_W0@Z 000000014004bb7c f i libcpmt:wlocale.obj
 0001:0004ac84       ?do_truename@?$numpunct@G@std@@MEBA?AV?$basic_string@GU?$char_traits@G@std@@V?$allocator@G@2@@2@XZ 000000014004bc84 f i libcpmt:wlocale.obj
 0001:0004accc       ?do_truename@?$numpunct@_W@std@@MEBA?AV?$basic_string@_WU?$char_traits@_W@std@@V?$allocator@_W@2@@2@XZ 000000014004bccc f i libcpmt:wlocale.obj
 0001:0004ad0c       ?do_unshift@?$codecvt@GDU_Mbstatet@@@std@@MEBAHAEAU_Mbstatet@@PEAD1AEAPEAD@Z 000000014004bd0c f i libcpmt:wlocale.obj
 0001:0004adb0       ?do_unshift@?$codecvt@_WDU_Mbstatet@@@std@@MEBAHAEAU_Mbstatet@@PEAD1AEAPEAD@Z 000000014004bdb0 f i libcpmt:wlocale.obj
 0001:0004ae54       ?do_widen@?$ctype@G@std@@MEBAGD@Z 000000014004be54 f i libcpmt:wlocale.obj
 0001:0004ae9c       ?do_widen@?$ctype@G@std@@MEBAPEBDPEBD0PEAG@Z 000000014004be9c f i libcpmt:wlocale.obj
 0001:0004af38       ?do_widen@?$ctype@_W@std@@MEBAPEBDPEBD0PEA_W@Z 000000014004bf38 f i libcpmt:wlocale.obj
 0001:0004afd4       ?do_widen@?$ctype@_W@std@@MEBA_WD@Z 000000014004bfd4 f i libcpmt:wlocale.obj
 0001:0004b01c       ?end@?$basic_string@GU?$char_traits@G@std@@V?$allocator@G@2@@std@@QEAA?AV?$_String_iterator@V?$_String_val@U?$_Simple_types@G@std@@@std@@@2@XZ 000000014004c01c f i libcpmt:wlocale.obj
 0001:0004b038       ?eof@?$_WChar_traits@_W@std@@SAGXZ 000000014004c038 f i libcpmt:wlocale.obj
 0001:0004b038       ?eof@?$_WChar_traits@G@std@@SAGXZ 000000014004c038 f i libcpmt:wlocale.obj
 0001:0004b040       ?eq_int_type@?$_WChar_traits@G@std@@SA_NAEBG0@Z 000000014004c040 f i libcpmt:wlocale.obj
 0001:0004b040       ?eq_int_type@?$_WChar_traits@_W@std@@SA_NAEBG0@Z 000000014004c040 f i libcpmt:wlocale.obj
 0001:0004b04c       ?equal@?$istreambuf_iterator@_WU?$char_traits@_W@std@@@std@@QEBA_NAEBV12@@Z 000000014004c04c f i libcpmt:wlocale.obj
 0001:0004b04c       ?equal@?$istreambuf_iterator@GU?$char_traits@G@std@@@std@@QEBA_NAEBV12@@Z 000000014004c04c f i libcpmt:wlocale.obj
 0001:0004b140       ?erase@?$basic_string@DU?$char_traits@D@std@@V?$allocator@D@2@@std@@QEAAAEAV12@_K@Z 000000014004c140 f i libcpmt:wlocale.obj
 0001:0004b170       ?erase@?$basic_string@GU?$char_traits@G@std@@V?$allocator@G@2@@std@@QEAAAEAV12@_K@Z 000000014004c170 f i libcpmt:wlocale.obj
 0001:0004b1a4       ?erase@?$basic_string@_WU?$char_traits@_W@std@@V?$allocator@_W@2@@std@@QEAAAEAV12@_K@Z 000000014004c1a4 f i libcpmt:wlocale.obj
 0001:0004b1d8       ?falsename@?$numpunct@G@std@@QEBA?AV?$basic_string@GU?$char_traits@G@std@@V?$allocator@G@2@@2@XZ 000000014004c1d8 f i libcpmt:wlocale.obj
 0001:0004b1f8       ?falsename@?$numpunct@_W@std@@QEBA?AV?$basic_string@_WU?$char_traits@_W@std@@V?$allocator@_W@2@@2@XZ 000000014004c1f8 f i libcpmt:wlocale.obj
 0001:0004b218       ?frac_digits@?$_Mpunct@D@std@@QEBAHXZ 000000014004c218 f i libcpmt:xlocale.obj
 0001:0004b218       ?frac_digits@?$_Mpunct@_W@std@@QEBAHXZ 000000014004c218 f i libcpmt:wlocale.obj
 0001:0004b218       ?frac_digits@?$_Mpunct@G@std@@QEBAHXZ 000000014004c218 f i libcpmt:wlocale.obj
 0001:0004b228       ?get_monthname@?$time_get@GV?$istreambuf_iterator@GU?$char_traits@G@std@@@std@@@std@@QEBA?AV?$istreambuf_iterator@GU?$char_traits@G@std@@@2@V32@0AEAVios_base@2@AEAHPEAUtm@@@Z 000000014004c228 f i libcpmt:wlocale.obj
 0001:0004b28c       ?get_monthname@?$time_get@_WV?$istreambuf_iterator@_WU?$char_traits@_W@std@@@std@@@std@@QEBA?AV?$istreambuf_iterator@_WU?$char_traits@_W@std@@@2@V32@0AEAVios_base@2@AEAHPEAUtm@@@Z 000000014004c28c f i libcpmt:wlocale.obj
 0001:0004b2f0       ?get_weekday@?$time_get@GV?$istreambuf_iterator@GU?$char_traits@G@std@@@std@@@std@@QEBA?AV?$istreambuf_iterator@GU?$char_traits@G@std@@@2@V32@0AEAVios_base@2@AEAHPEAUtm@@@Z 000000014004c2f0 f i libcpmt:wlocale.obj
 0001:0004b354       ?get_weekday@?$time_get@_WV?$istreambuf_iterator@_WU?$char_traits@_W@std@@@std@@@std@@QEBA?AV?$istreambuf_iterator@_WU?$char_traits@_W@std@@@2@V32@0AEAVios_base@2@AEAHPEAUtm@@@Z 000000014004c354 f i libcpmt:wlocale.obj
 0001:0004b3b8       ?get_year@?$time_get@GV?$istreambuf_iterator@GU?$char_traits@G@std@@@std@@@std@@QEBA?AV?$istreambuf_iterator@GU?$char_traits@G@std@@@2@V32@0AEAVios_base@2@AEAHPEAUtm@@@Z 000000014004c3b8 f i libcpmt:wlocale.obj
 0001:0004b41c       ?get_year@?$time_get@_WV?$istreambuf_iterator@_WU?$char_traits@_W@std@@@std@@@std@@QEBA?AV?$istreambuf_iterator@_WU?$char_traits@_W@std@@@2@V32@0AEAVios_base@2@AEAHPEAUtm@@@Z 000000014004c41c f i libcpmt:wlocale.obj
 0001:0004b480       ?gptr@?$basic_streambuf@_WU?$char_traits@_W@std@@@std@@IEBAPEA_WXZ 000000014004c480 f i libcpmt:wlocale.obj
 0001:0004b480       ?gptr@?$basic_streambuf@GU?$char_traits@G@std@@@std@@IEBAPEAGXZ 000000014004c480 f i libcpmt:wlocale.obj
 0001:0004b488       ?grouping@?$_Mpunct@G@std@@QEBA?AV?$basic_string@DU?$char_traits@D@std@@V?$allocator@D@2@@2@XZ 000000014004c488 f i libcpmt:wlocale.obj
 0001:0004b4a8       ?grouping@?$_Mpunct@_W@std@@QEBA?AV?$basic_string@DU?$char_traits@D@std@@V?$allocator@D@2@@2@XZ 000000014004c4a8 f i libcpmt:wlocale.obj
 0001:0004b4c8       ?grouping@?$numpunct@G@std@@QEBA?AV?$basic_string@DU?$char_traits@D@std@@V?$allocator@D@2@@2@XZ 000000014004c4c8 f i libcpmt:wlocale.obj
 0001:0004b4e8       ?grouping@?$numpunct@_W@std@@QEBA?AV?$basic_string@DU?$char_traits@D@std@@V?$allocator@D@2@@2@XZ 000000014004c4e8 f i libcpmt:wlocale.obj
 0001:0004b508       ?insert@?$basic_string@GU?$char_traits@G@std@@V?$allocator@G@2@@std@@QEAAAEAV12@_K0G@Z 000000014004c508 f i libcpmt:wlocale.obj
 0001:0004b5b4       ?insert@?$basic_string@_WU?$char_traits@_W@std@@V?$allocator@_W@2@@std@@QEAAAEAV12@_K0_W@Z 000000014004c5b4 f i libcpmt:wlocale.obj
 0001:0004b660       ?length@?$_WChar_traits@G@std@@SA_KPEBG@Z 000000014004c660 f i libcpmt:wlocale.obj
 0001:0004b660       ?length@?$_Char_traits@GG@std@@SA_KPEBG@Z 000000014004c660 f i libcpmt:wlocale.obj
 0001:0004b674       ?max_size@?$basic_string@GU?$char_traits@G@std@@V?$allocator@G@2@@std@@QEBA_KXZ 000000014004c674 f i libcpmt:wlocale.obj
 0001:0004b680       ?move@?$_WChar_traits@G@std@@SAPEAGQEAGQEBG_K@Z 000000014004c680 f i libcpmt:wlocale.obj
 0001:0004b688       ?name@locale@std@@QEBA?AV?$basic_string@DU?$char_traits@D@std@@V?$allocator@D@2@@2@XZ 000000014004c688 f i libcpmt:wlocale.obj
 0001:0004b7f0       ?narrow@?$ctype@_W@std@@QEBAD_WD@Z 000000014004c7f0 f i libcpmt:wlocale.obj
 0001:0004b7f0       ?narrow@?$ctype@G@std@@QEBADGD@Z 000000014004c7f0 f i libcpmt:wlocale.obj
 0001:0004b800       ?neg_format@?$_Mpunct@G@std@@QEBA?AUpattern@money_base@2@XZ 000000014004c800 f i libcpmt:wlocale.obj
 0001:0004b820       ?neg_format@?$_Mpunct@_W@std@@QEBA?AUpattern@money_base@2@XZ 000000014004c820 f i libcpmt:wlocale.obj
 0001:0004b840       ?negative_sign@?$_Mpunct@G@std@@QEBA?AV?$basic_string@GU?$char_traits@G@std@@V?$allocator@G@2@@2@XZ 000000014004c840 f i libcpmt:wlocale.obj
 0001:0004b860       ?negative_sign@?$_Mpunct@_W@std@@QEBA?AV?$basic_string@_WU?$char_traits@_W@std@@V?$allocator@_W@2@@2@XZ 000000014004c860 f i libcpmt:wlocale.obj
 0001:0004b880       ?pos_format@?$_Mpunct@G@std@@QEBA?AUpattern@money_base@2@XZ 000000014004c880 f i libcpmt:wlocale.obj
 0001:0004b8a0       ?pos_format@?$_Mpunct@_W@std@@QEBA?AUpattern@money_base@2@XZ 000000014004c8a0 f i libcpmt:wlocale.obj
 0001:0004b8c0       ?positive_sign@?$_Mpunct@G@std@@QEBA?AV?$basic_string@GU?$char_traits@G@std@@V?$allocator@G@2@@2@XZ 000000014004c8c0 f i libcpmt:wlocale.obj
 0001:0004b8e0       ?positive_sign@?$_Mpunct@_W@std@@QEBA?AV?$basic_string@_WU?$char_traits@_W@std@@V?$allocator@_W@2@@2@XZ 000000014004c8e0 f i libcpmt:wlocale.obj
 0001:0004b900       ?push_back@?$basic_string@GU?$char_traits@G@std@@V?$allocator@G@2@@std@@QEAAXG@Z 000000014004c900 f i libcpmt:wlocale.obj
 0001:0004b93c       ?resize@?$basic_string@GU?$char_traits@G@std@@V?$allocator@G@2@@std@@QEAAX_KG@Z 000000014004c93c f i libcpmt:wlocale.obj
 0001:0004b964       ?resize@?$basic_string@_WU?$char_traits@_W@std@@V?$allocator@_W@2@@std@@QEAAX_K_W@Z 000000014004c964 f i libcpmt:wlocale.obj
 0001:0004b98c       ?sbumpc@?$basic_streambuf@_WU?$char_traits@_W@std@@@std@@QEAAGXZ 000000014004c98c f i libcpmt:wlocale.obj
 0001:0004b98c       ?sbumpc@?$basic_streambuf@GU?$char_traits@G@std@@@std@@QEAAGXZ 000000014004c98c f i libcpmt:wlocale.obj
 0001:0004b9cc       ?sgetc@?$basic_streambuf@_WU?$char_traits@_W@std@@@std@@QEAAGXZ 000000014004c9cc f i libcpmt:wlocale.obj
 0001:0004b9cc       ?sgetc@?$basic_streambuf@GU?$char_traits@G@std@@@std@@QEAAGXZ 000000014004c9cc f i libcpmt:wlocale.obj
 0001:0004b9fc       ?Scheduler@SchedulerProxy@details@Concurrency@@QEBAPEAUIScheduler@3@XZ 000000014004c9fc f i libconcrt:ResourceManager.obj
 0001:0004b9fc       ?data@?$__crt_win32_buffer@DU__crt_win32_buffer_internal_dynamic_resizing@@@@QEAAPEADXZ 000000014004c9fc f i libucrt:chdir.obj
 0001:0004b9fc       ??$_As@VSchedulingNode@details@Concurrency@@@location@Concurrency@@QEBAPEAVSchedulingNode@details@1@XZ 000000014004c9fc f i libconcrt:location.obj
 0001:0004b9fc       ?GetSchedulingRing@ScheduleGroupSegmentBase@details@Concurrency@@QEBAPEAVSchedulingRing@23@XZ 000000014004c9fc f i libconcrt:ScheduleGroupBase.obj
 0001:0004b9fc       ?data@?$__crt_win32_buffer@DU__crt_win32_buffer_no_resizing@@@@QEAAPEADXZ 000000014004c9fc f i libucrt:getcwd.obj
 0001:0004b9fc       ?data@?$__crt_win32_buffer@_WU__crt_win32_buffer_internal_dynamic_resizing@@@@QEAAPEA_WXZ 000000014004c9fc f i libucrt:getcwd.obj
 0001:0004b9fc       ??$_As@VVirtualProcessor@details@Concurrency@@@location@Concurrency@@QEBAPEAVVirtualProcessor@details@1@XZ 000000014004c9fc f i libconcrt:SchedulingNode.obj
 0001:0004b9fc       ?data@?$__crt_win32_buffer@DU__crt_win32_buffer_public_dynamic_resizing@@@@QEAAPEADXZ 000000014004c9fc f i libucrt:getcwd.obj
 0001:0004b9fc       ?GetContext@WorkItem@details@Concurrency@@QEBAPEAVInternalContextBase@23@XZ 000000014004c9fc f i libconcrt:InternalContextBase.obj
 0001:0004b9fc       ?_OwningCollection@_UnrealizedChore@details@Concurrency@@QEBAPEAV_TaskCollectionBase@23@XZ 000000014004c9fc f i libconcrt:WorkQueue.obj
 0001:0004b9fc       ?GetThreadHandle@ThreadProxy@details@Concurrency@@QEAAPEAXXZ 000000014004c9fc f i libconcrt:FreeVirtualProcessorRoot.obj
 0001:0004b9fc       ?size@?$basic_string@GU?$char_traits@G@std@@V?$allocator@G@2@@std@@QEBA_KXZ 000000014004c9fc f i libcpmt:wlocale.obj
 0001:0004b9fc       ?GetAnonymousScheduleGroupSegment@SchedulingRing@details@Concurrency@@QEBAPEAVScheduleGroupSegmentBase@23@XZ 000000014004c9fc f i libconcrt:SchedulerBase.obj
 0001:0004ba04       ?sputc@?$basic_streambuf@GU?$char_traits@G@std@@@std@@QEAAGG@Z 000000014004ca04 f i libcpmt:wlocale.obj
 0001:0004ba5c       ?sputc@?$basic_streambuf@_WU?$char_traits@_W@std@@@std@@QEAAG_W@Z 000000014004ca5c f i libcpmt:wlocale.obj
 0001:0004bab4       ??$peek_va_arg@G@__crt_stdio_output@@YAGPEAD@Z 000000014004cab4 f i libucrt:output.obj
 0001:0004bab4       ?to_int_type@?$_WChar_traits@_W@std@@SAGAEB_W@Z 000000014004cab4 f i libcpmt:wlocale.obj
 0001:0004bab4       ?to_int_type@?$_WChar_traits@G@std@@SAGAEBG@Z 000000014004cab4 f i libcpmt:wlocale.obj
 0001:0004bab4       ??$peek_va_arg@_W@__crt_stdio_output@@YA_WPEAD@Z 000000014004cab4 f i libucrt:output.obj
 0001:0004bab4       ?to_char_type@?$_WChar_traits@_W@std@@SA_WAEBG@Z 000000014004cab4 f i libcpmt:wlocale.obj
 0001:0004bab4       ??$peek_va_arg@F@__crt_stdio_output@@YAFPEAD@Z 000000014004cab4 f i libucrt:output.obj
 0001:0004bab4       ?to_char_type@?$_WChar_traits@G@std@@SAGAEBG@Z 000000014004cab4 f i libcpmt:wlocale.obj
 0001:0004bab8       ?truename@?$numpunct@G@std@@QEBA?AV?$basic_string@GU?$char_traits@G@std@@V?$allocator@G@2@@2@XZ 000000014004cab8 f i libcpmt:wlocale.obj
 0001:0004bad8       ?truename@?$numpunct@_W@std@@QEBA?AV?$basic_string@_WU?$char_traits@_W@std@@V?$allocator@_W@2@@2@XZ 000000014004cad8 f i libcpmt:wlocale.obj
 0001:0004baf8       ?widen@?$ctype@_W@std@@QEBA_WD@Z 000000014004caf8 f i libcpmt:wlocale.obj
 0001:0004baf8       ?widen@?$ctype@G@std@@QEBAGD@Z 000000014004caf8 f i libcpmt:wlocale.obj
 0001:0004bb08       ?widen@?$ctype@G@std@@QEBAPEBDPEBD0PEAG@Z 000000014004cb08 f i libcpmt:wlocale.obj
 0001:0004bb20       ?widen@?$ctype@_W@std@@QEBAPEBDPEBD0PEA_W@Z 000000014004cb20 f i libcpmt:wlocale.obj
 0001:0004bb38       ??$_Copy_unchecked1@PEADV?$ostreambuf_iterator@DU?$char_traits@D@std@@@std@@@std@@YA?AV?$ostreambuf_iterator@DU?$char_traits@D@std@@@0@PEAD0V10@U_General_ptr_iterator_tag@0@@Z 000000014004cb38 f i libcpmt:xlocale.obj
 0001:0004bbac       ??$_Copy_unchecked@PEADV?$ostreambuf_iterator@DU?$char_traits@D@std@@@std@@@std@@YA?AV?$ostreambuf_iterator@DU?$char_traits@D@std@@@0@PEAD0V10@@Z 000000014004cbac f i libcpmt:xlocale.obj
 0001:0004bbd8       ??$_Find_elem@D$0M@@std@@YA_KAEAY0M@$$CBDD@Z 000000014004cbd8 f i libcpmt:xlocale.obj
 0001:0004bc10       ??$_Getvals@D@?$_Mpunct@D@std@@IEAAXDPEBUlconv@@@Z 000000014004cc10 f i libcpmt:xlocale.obj
 0001:0004bd58       ??$_Getvals@D@?$time_get@DV?$istreambuf_iterator@DU?$char_traits@D@std@@@std@@@std@@IEAAXDAEBV_Locinfo@1@@Z 000000014004cd58 f i libcpmt:xlocale.obj
 0001:0004bedc       ??$_Hash_array_representation@D@std@@YA_KQEBD_K@Z 000000014004cedc f i libcpmt:xlocale.obj
 0001:0004bf10       ??$_LStrcoll@D@std@@YAHPEBD000PEBU_Collvec@@@Z 000000014004cf10 f i libcpmt:xlocale.obj
 0001:0004bf18       ??$_LStrxfrm@D@std@@YA_KPEAD0PEBD1PEBU_Collvec@@@Z 000000014004cf18 f i libcpmt:xlocale.obj
 0001:0004c5dc       ??$copy@PEADV?$ostreambuf_iterator@DU?$char_traits@D@std@@@std@@@std@@YA?AV?$ostreambuf_iterator@DU?$char_traits@D@std@@@0@PEAD0V10@@Z 000000014004d5dc f i libcpmt:xlocale.obj
 0001:0004c61c       ??$use_facet@V?$collate@D@std@@@std@@YAAEBV?$collate@D@0@AEBVlocale@0@@Z 000000014004d61c f i libcpmt:xlocale.obj
 0001:0004c750       ??$use_facet@V?$messages@D@std@@@std@@YAAEBV?$messages@D@0@AEBVlocale@0@@Z 000000014004d750 f i libcpmt:xlocale.obj
 0001:0004c884       ??$use_facet@V?$money_get@DV?$istreambuf_iterator@DU?$char_traits@D@std@@@std@@@std@@@std@@YAAEBV?$money_get@DV?$istreambuf_iterator@DU?$char_traits@D@std@@@std@@@0@AEBVlocale@0@@Z 000000014004d884 f i libcpmt:xlocale.obj
 0001:0004c9b8       ??$use_facet@V?$money_put@DV?$ostreambuf_iterator@DU?$char_traits@D@std@@@std@@@std@@@std@@YAAEBV?$money_put@DV?$ostreambuf_iterator@DU?$char_traits@D@std@@@std@@@0@AEBVlocale@0@@Z 000000014004d9b8 f i libcpmt:xlocale.obj
 0001:0004caec       ??$use_facet@V?$moneypunct@D$00@std@@@std@@YAAEBV?$moneypunct@D$00@0@AEBVlocale@0@@Z 000000014004daec f i libcpmt:xlocale.obj
 0001:0004cc20       ??$use_facet@V?$moneypunct@D$0A@@std@@@std@@YAAEBV?$moneypunct@D$0A@@0@AEBVlocale@0@@Z 000000014004dc20 f i libcpmt:xlocale.obj
 0001:0004cd54       ??$use_facet@V?$time_get@DV?$istreambuf_iterator@DU?$char_traits@D@std@@@std@@@std@@@std@@YAAEBV?$time_get@DV?$istreambuf_iterator@DU?$char_traits@D@std@@@std@@@0@AEBVlocale@0@@Z 000000014004dd54 f i libcpmt:xlocale.obj
 0001:0004ce88       ??$use_facet@V?$time_put@DV?$ostreambuf_iterator@DU?$char_traits@D@std@@@std@@@std@@@std@@YAAEBV?$time_put@DV?$ostreambuf_iterator@DU?$char_traits@D@std@@@std@@@0@AEBVlocale@0@@Z 000000014004de88 f i libcpmt:xlocale.obj
 0001:0004cfbc       ??0?$_Mpunct@D@std@@QEAA@AEBV_Locinfo@1@_K_N2@Z 000000014004dfbc f i libcpmt:xlocale.obj
 0001:0004cff8       ??0?$basic_string@DU?$char_traits@D@std@@V?$allocator@D@2@@std@@QEAA@QEBD_K@Z 000000014004dff8 f i libcpmt:xlocale.obj
 0001:0004d064       ??0?$collate@D@std@@QEAA@AEBV_Locinfo@1@_K@Z 000000014004e064 f i libcpmt:xlocale.obj
 0001:0004d098       ??0?$messages@D@std@@QEAA@AEBV_Locinfo@1@_K@Z 000000014004e098 f i libcpmt:xlocale.obj
 0001:0004d0ac       ??0?$money_get@DV?$istreambuf_iterator@DU?$char_traits@D@std@@@std@@@std@@QEAA@AEBV_Locinfo@1@_K@Z 000000014004e0ac f i libcpmt:xlocale.obj
 0001:0004d0c0       ??0?$money_put@DV?$ostreambuf_iterator@DU?$char_traits@D@std@@@std@@@std@@QEAA@AEBV_Locinfo@1@_K@Z 000000014004e0c0 f i libcpmt:xlocale.obj
 0001:0004d0d4       ??0?$moneypunct@D$00@std@@QEAA@AEBV_Locinfo@1@_K_N@Z 000000014004e0d4 f i libcpmt:xlocale.obj
 0001:0004d118       ??0?$moneypunct@D$0A@@std@@QEAA@AEBV_Locinfo@1@_K_N@Z 000000014004e118 f i libcpmt:xlocale.obj
 0001:0004d15c       ??0?$time_get@DV?$istreambuf_iterator@DU?$char_traits@D@std@@@std@@@std@@QEAA@AEBV_Locinfo@1@_K@Z 000000014004e15c f i libcpmt:xlocale.obj
 0001:0004d190       ??0?$time_put@DV?$ostreambuf_iterator@DU?$char_traits@D@std@@@std@@@std@@QEAA@AEBV_Locinfo@1@_K@Z 000000014004e190 f i libcpmt:xlocale.obj
 0001:0004d1c8       ??1?$_Mpunct@D@std@@MEAA@XZ 000000014004e1c8 f i libcpmt:xlocale.obj
 0001:0004d210       ??1?$collate@D@std@@MEAA@XZ 000000014004e210 f i libcpmt:xlocale.obj
 0001:0004d23c       ??1?$moneypunct@D$00@std@@MEAA@XZ 000000014004e23c f i libcpmt:xlocale.obj
 0001:0004d284       ??1?$moneypunct@D$0A@@std@@MEAA@XZ 000000014004e284 f i libcpmt:xlocale.obj
 0001:0004d2cc       ??1?$time_get@DV?$istreambuf_iterator@DU?$char_traits@D@std@@@std@@@std@@MEAA@XZ 000000014004e2cc f i libcpmt:xlocale.obj
 0001:0004d30c       ??1?$time_put@DV?$ostreambuf_iterator@DU?$char_traits@D@std@@@std@@@std@@MEAA@XZ 000000014004e30c f i libcpmt:xlocale.obj
 0001:0004d338       ??E?$_String_const_iterator@V?$_String_val@U?$_Simple_types@D@std@@@std@@@std@@QEAAAEAV01@XZ 000000014004e338 f i libcpmt:xlocale.obj
 0001:0004d338       ??E?$_String_iterator@V?$_String_val@U?$_Simple_types@D@std@@@std@@@std@@QEAAAEAV01@XZ 000000014004e338 f i libcpmt:xlocale.obj
 0001:0004d340       ??G?$_String_iterator@V?$_String_val@U?$_Simple_types@D@std@@@std@@@std@@QEBA?AV01@_J@Z 000000014004e340 f i libcpmt:xlocale.obj
 0001:0004d350       ??H?$_String_iterator@V?$_String_val@U?$_Simple_types@D@std@@@std@@@std@@QEBA?AV01@_J@Z 000000014004e350 f i libcpmt:xlocale.obj
 0001:0004d4b4       ??Y?$_String_iterator@V?$_String_val@U?$_Simple_types@D@std@@@std@@@std@@QEAAAEAV01@_J@Z 000000014004e4b4 f i libcpmt:xlocale.obj
 0001:0004d4b4       ??Y?$_String_const_iterator@V?$_String_val@U?$_Simple_types@D@std@@@std@@@std@@QEAAAEAV01@_J@Z 000000014004e4b4 f i libcpmt:xlocale.obj
 0001:0004d4bc       ??Z?$_String_iterator@V?$_String_val@U?$_Simple_types@D@std@@@std@@@std@@QEAAAEAV01@_J@Z 000000014004e4bc f i libcpmt:xlocale.obj
 0001:0004d4c4       ??_E?$_Mpunct@D@std@@MEAAPEAXI@Z 000000014004e4c4 f i libcpmt:xlocale.obj
 0001:0004d4c4       ??_G?$_Mpunct@D@std@@MEAAPEAXI@Z 000000014004e4c4 f i libcpmt:xlocale.obj
 0001:0004d52c       ??_G?$collate@D@std@@MEAAPEAXI@Z 000000014004e52c f i libcpmt:xlocale.obj
 0001:0004d52c       ??_E?$collate@D@std@@MEAAPEAXI@Z 000000014004e52c f i libcpmt:xlocale.obj
 0001:0004d578       ??_G?$messages@D@std@@MEAAPEAXI@Z 000000014004e578 f i libcpmt:xlocale.obj
 0001:0004d578       ??_E?$messages@D@std@@MEAAPEAXI@Z 000000014004e578 f i libcpmt:xlocale.obj
 0001:0004d5a4       ??_G?$money_get@DV?$istreambuf_iterator@DU?$char_traits@D@std@@@std@@@std@@MEAAPEAXI@Z 000000014004e5a4 f i libcpmt:xlocale.obj
 0001:0004d5a4       ??_E?$money_get@DV?$istreambuf_iterator@DU?$char_traits@D@std@@@std@@@std@@MEAAPEAXI@Z 000000014004e5a4 f i libcpmt:xlocale.obj
 0001:0004d5d0       ??_E?$money_put@DV?$ostreambuf_iterator@DU?$char_traits@D@std@@@std@@@std@@MEAAPEAXI@Z 000000014004e5d0 f i libcpmt:xlocale.obj
 0001:0004d5d0       ??_G?$money_put@DV?$ostreambuf_iterator@DU?$char_traits@D@std@@@std@@@std@@MEAAPEAXI@Z 000000014004e5d0 f i libcpmt:xlocale.obj
 0001:0004d5fc       ??_E?$moneypunct@D$00@std@@MEAAPEAXI@Z 000000014004e5fc f i libcpmt:xlocale.obj
 0001:0004d5fc       ??_G?$moneypunct@D$00@std@@MEAAPEAXI@Z 000000014004e5fc f i libcpmt:xlocale.obj
 0001:0004d664       ??_E?$moneypunct@D$0A@@std@@MEAAPEAXI@Z 000000014004e664 f i libcpmt:xlocale.obj
 0001:0004d664       ??_G?$moneypunct@D$0A@@std@@MEAAPEAXI@Z 000000014004e664 f i libcpmt:xlocale.obj
 0001:0004d6cc       ??_E?$time_get@DV?$istreambuf_iterator@DU?$char_traits@D@std@@@std@@@std@@MEAAPEAXI@Z 000000014004e6cc f i libcpmt:xlocale.obj
 0001:0004d6cc       ??_G?$time_get@DV?$istreambuf_iterator@DU?$char_traits@D@std@@@std@@@std@@MEAAPEAXI@Z 000000014004e6cc f i libcpmt:xlocale.obj
 0001:0004d72c       ??_E?$time_put@DV?$ostreambuf_iterator@DU?$char_traits@D@std@@@std@@@std@@MEAAPEAXI@Z 000000014004e72c f i libcpmt:xlocale.obj
 0001:0004d72c       ??_G?$time_put@DV?$ostreambuf_iterator@DU?$char_traits@D@std@@@std@@@std@@MEAAPEAXI@Z 000000014004e72c f i libcpmt:xlocale.obj
 0001:0004d778       ?_Getcat@?$collate@D@std@@SA_KPEAPEBVfacet@locale@2@PEBV42@@Z 000000014004e778 f i libcpmt:xlocale.obj
 0001:0004d8b8       ?_Getcat@?$messages@D@std@@SA_KPEAPEBVfacet@locale@2@PEBV42@@Z 000000014004e8b8 f i libcpmt:xlocale.obj
 0001:0004d97c       ?_Getcat@?$money_get@DV?$istreambuf_iterator@DU?$char_traits@D@std@@@std@@@std@@SA_KPEAPEBVfacet@locale@2@PEBV42@@Z 000000014004e97c f i libcpmt:xlocale.obj
 0001:0004da40       ?_Getcat@?$money_put@DV?$ostreambuf_iterator@DU?$char_traits@D@std@@@std@@@std@@SA_KPEAPEBVfacet@locale@2@PEBV42@@Z 000000014004ea40 f i libcpmt:xlocale.obj
 0001:0004db04       ?_Getcat@?$moneypunct@D$00@std@@SA_KPEAPEBVfacet@locale@2@PEBV42@@Z 000000014004eb04 f i libcpmt:xlocale.obj
 0001:0004dbe4       ?_Getcat@?$moneypunct@D$0A@@std@@SA_KPEAPEBVfacet@locale@2@PEBV42@@Z 000000014004ebe4 f i libcpmt:xlocale.obj
 0001:0004dcc4       ?_Getcat@?$time_get@DV?$istreambuf_iterator@DU?$char_traits@D@std@@@std@@@std@@SA_KPEAPEBVfacet@locale@2@PEBV42@@Z 000000014004ecc4 f i libcpmt:xlocale.obj
 0001:0004dd90       ?_Getcat@?$time_put@DV?$ostreambuf_iterator@DU?$char_traits@D@std@@@std@@@std@@SA_KPEAPEBVfacet@locale@2@PEBV42@@Z 000000014004ed90 f i libcpmt:xlocale.obj
 0001:0004de70       ?_Getfmt@?$time_get@DV?$istreambuf_iterator@DU?$char_traits@D@std@@@std@@@std@@IEBA?AV?$istreambuf_iterator@DU?$char_traits@D@std@@@2@V32@0AEAVios_base@2@AEAHPEAUtm@@PEBD@Z 000000014004ee70 f i libcpmt:xlocale.obj
 0001:0004e0d8       ?_Getint@?$time_get@DV?$istreambuf_iterator@DU?$char_traits@D@std@@@std@@@std@@AEBAHAEAV?$istreambuf_iterator@DU?$char_traits@D@std@@@2@0HHAEAHAEBV?$ctype@D@2@@Z 000000014004f0d8 f i libcpmt:xlocale.obj
 0001:0004e384       ?_Getmfld@?$money_get@DV?$istreambuf_iterator@DU?$char_traits@D@std@@@std@@@std@@AEBA?AV?$basic_string@DU?$char_traits@D@std@@V?$allocator@D@2@@2@AEAV?$istreambuf_iterator@DU?$char_traits@D@std@@@2@0_NAEAVios_base@2@AEAY0M@D@Z 000000014004f384 f i libcpmt:xlocale.obj
 0001:0004f5a8       ?_Gettnames@_Locinfo@std@@QEBA?AV_Timevec@2@XZ 00000001400505a8 f i libcpmt:xlocale.obj
 0001:0004f5c4       ?_Init@?$_Mpunct@D@std@@IEAAXAEBV_Locinfo@2@_N@Z 00000001400505c4 f i libcpmt:xlocale.obj
 0001:0004f768       ?_Init@?$collate@D@std@@IEAAXAEBV_Locinfo@2@@Z 0000000140050768 f i libcpmt:xlocale.obj
 0001:0004f78c       ?_Init@?$time_get@DV?$istreambuf_iterator@DU?$char_traits@D@std@@@std@@@std@@IEAAXAEBV_Locinfo@2@@Z 000000014005078c f i libcpmt:xlocale.obj
 0001:0004f7c8       ?_Init@?$time_put@DV?$ostreambuf_iterator@DU?$char_traits@D@std@@@std@@@std@@IEAAXAEBV_Locinfo@2@@Z 00000001400507c8 f i libcpmt:xlocale.obj
 0001:0004f7e8       ?_Makexloc@_Locimp@locale@std@@CAXAEBV_Locinfo@3@HPEAV123@PEBV23@@Z 00000001400507e8 f   libcpmt:xlocale.obj
 0001:0004ffbc       ?_Put@?$money_put@DV?$ostreambuf_iterator@DU?$char_traits@D@std@@@std@@@std@@CA?AV?$ostreambuf_iterator@DU?$char_traits@D@std@@@2@V32@V?$_String_const_iterator@V?$_String_val@U?$_Simple_types@D@std@@@std@@@2@_K@Z 0000000140050fbc f i libcpmt:xlocale.obj
 0001:00050014       ?_Putmfld@?$money_put@DV?$ostreambuf_iterator@DU?$char_traits@D@std@@@std@@@std@@AEBA?AV?$ostreambuf_iterator@DU?$char_traits@D@std@@@2@V32@_NAEAVios_base@2@D1V?$basic_string@DU?$char_traits@D@std@@V?$allocator@D@2@@2@D@Z 0000000140051014 f i libcpmt:xlocale.obj
 0001:00050934       ?_Rep@?$money_put@DV?$ostreambuf_iterator@DU?$char_traits@D@std@@@std@@@std@@CA?AV?$ostreambuf_iterator@DU?$char_traits@D@std@@@2@V32@D_K@Z 0000000140051934 f i libcpmt:xlocale.obj
 0001:0005098c       ?curr_symbol@?$_Mpunct@D@std@@QEBA?AV?$basic_string@DU?$char_traits@D@std@@V?$allocator@D@2@@2@XZ 000000014005198c f i libcpmt:xlocale.obj
 0001:000509ac       ?do_compare@?$collate@D@std@@MEBAHPEBD000@Z 00000001400519ac f i libcpmt:xlocale.obj
 0001:000509f0       ?do_curr_symbol@?$_Mpunct@D@std@@MEBA?AV?$basic_string@DU?$char_traits@D@std@@V?$allocator@D@2@@2@XZ 00000001400519f0 f i libcpmt:xlocale.obj
 0001:00050a20       ?do_get@?$messages@D@std@@MEBA?AV?$basic_string@DU?$char_traits@D@std@@V?$allocator@D@2@@2@HHHAEBV32@@Z 0000000140051a20 f i libcpmt:xlocale.obj
 0001:00050a4c       ?do_get@?$money_get@DV?$istreambuf_iterator@DU?$char_traits@D@std@@@std@@@std@@MEBA?AV?$istreambuf_iterator@DU?$char_traits@D@std@@@2@V32@0_NAEAVios_base@2@AEAHAEAO@Z 0000000140051a4c f i libcpmt:xlocale.obj
 0001:00050b90       ?do_get@?$money_get@DV?$istreambuf_iterator@DU?$char_traits@D@std@@@std@@@std@@MEBA?AV?$istreambuf_iterator@DU?$char_traits@D@std@@@2@V32@0_NAEAVios_base@2@AEAHAEAV?$basic_string@DU?$char_traits@D@std@@V?$allocator@D@2@@2@@Z 0000000140051b90 f i libcpmt:xlocale.obj
 0001:00050d08       ?do_get@?$time_get@DV?$istreambuf_iterator@DU?$char_traits@D@std@@@std@@@std@@MEBA?AV?$istreambuf_iterator@DU?$char_traits@D@std@@@2@V32@0AEAVios_base@2@AEAHPEAUtm@@DD@Z 0000000140051d08 f i libcpmt:xlocale.obj
 0001:00051284       ?do_get_date@?$time_get@DV?$istreambuf_iterator@DU?$char_traits@D@std@@@std@@@std@@MEBA?AV?$istreambuf_iterator@DU?$char_traits@D@std@@@2@V32@0AEAVios_base@2@AEAHPEAUtm@@@Z 0000000140052284 f i libcpmt:xlocale.obj
 0001:00051a5c       ?do_get_monthname@?$time_get@DV?$istreambuf_iterator@DU?$char_traits@D@std@@@std@@@std@@MEBA?AV?$istreambuf_iterator@DU?$char_traits@D@std@@@2@V32@0AEAVios_base@2@AEAHPEAUtm@@@Z 0000000140052a5c f i libcpmt:xlocale.obj
 0001:00051ab0       ?do_get_time@?$time_get@DV?$istreambuf_iterator@DU?$char_traits@D@std@@@std@@@std@@MEBA?AV?$istreambuf_iterator@DU?$char_traits@D@std@@@2@V32@0AEAVios_base@2@AEAHPEAUtm@@@Z 0000000140052ab0 f i libcpmt:xlocale.obj
 0001:00051cf0       ?do_get_weekday@?$time_get@DV?$istreambuf_iterator@DU?$char_traits@D@std@@@std@@@std@@MEBA?AV?$istreambuf_iterator@DU?$char_traits@D@std@@@2@V32@0AEAVios_base@2@AEAHPEAUtm@@@Z 0000000140052cf0 f i libcpmt:xlocale.obj
 0001:00051d44       ?do_get_year@?$time_get@DV?$istreambuf_iterator@DU?$char_traits@D@std@@@std@@@std@@MEBA?AV?$istreambuf_iterator@DU?$char_traits@D@std@@@2@V32@0AEAVios_base@2@AEAHPEAUtm@@@Z 0000000140052d44 f i libcpmt:xlocale.obj
 0001:00051e60       ?do_grouping@?$_Mpunct@D@std@@MEBA?AV?$basic_string@DU?$char_traits@D@std@@V?$allocator@D@2@@2@XZ 0000000140052e60 f i libcpmt:xlocale.obj
 0001:00051e90       ?do_hash@?$collate@D@std@@MEBAJPEBD0@Z 0000000140052e90 f i libcpmt:xlocale.obj
 0001:00051ec8       ?do_negative_sign@?$_Mpunct@D@std@@MEBA?AV?$basic_string@DU?$char_traits@D@std@@V?$allocator@D@2@@2@XZ 0000000140052ec8 f i libcpmt:xlocale.obj
 0001:00051ef8       ?do_positive_sign@?$_Mpunct@D@std@@MEBA?AV?$basic_string@DU?$char_traits@D@std@@V?$allocator@D@2@@2@XZ 0000000140052ef8 f i libcpmt:xlocale.obj
 0001:00051f28       ?do_put@?$money_put@DV?$ostreambuf_iterator@DU?$char_traits@D@std@@@std@@@std@@MEBA?AV?$ostreambuf_iterator@DU?$char_traits@D@std@@@2@V32@_NAEAVios_base@2@DAEBV?$basic_string@DU?$char_traits@D@std@@V?$allocator@D@2@@2@@Z 0000000140052f28 f i libcpmt:xlocale.obj
 0001:0005224c       ?do_put@?$money_put@DV?$ostreambuf_iterator@DU?$char_traits@D@std@@@std@@@std@@MEBA?AV?$ostreambuf_iterator@DU?$char_traits@D@std@@@2@V32@_NAEAVios_base@2@DO@Z 000000014005324c f i libcpmt:xlocale.obj
 0001:00052474       ?do_put@?$time_put@DV?$ostreambuf_iterator@DU?$char_traits@D@std@@@std@@@std@@MEBA?AV?$ostreambuf_iterator@DU?$char_traits@D@std@@@2@V32@AEAVios_base@2@DPEBUtm@@DD@Z 0000000140053474 f i libcpmt:xlocale.obj
 0001:000525d8       ?do_transform@?$collate@D@std@@MEBA?AV?$basic_string@DU?$char_traits@D@std@@V?$allocator@D@2@@2@PEBD0@Z 00000001400535d8 f i libcpmt:xlocale.obj
 0001:000526d8       ?end@?$basic_string@DU?$char_traits@D@std@@V?$allocator@D@2@@std@@QEAA?AV?$_String_iterator@V?$_String_val@U?$_Simple_types@D@std@@@std@@@2@XZ 00000001400536d8 f i libcpmt:xlocale.obj
 0001:000526f4       ?get_monthname@?$time_get@DV?$istreambuf_iterator@DU?$char_traits@D@std@@@std@@@std@@QEBA?AV?$istreambuf_iterator@DU?$char_traits@D@std@@@2@V32@0AEAVios_base@2@AEAHPEAUtm@@@Z 00000001400536f4 f i libcpmt:xlocale.obj
 0001:00052758       ?get_weekday@?$time_get@DV?$istreambuf_iterator@DU?$char_traits@D@std@@@std@@@std@@QEBA?AV?$istreambuf_iterator@DU?$char_traits@D@std@@@2@V32@0AEAVios_base@2@AEAHPEAUtm@@@Z 0000000140053758 f i libcpmt:xlocale.obj
 0001:000527bc       ?get_year@?$time_get@DV?$istreambuf_iterator@DU?$char_traits@D@std@@@std@@@std@@QEBA?AV?$istreambuf_iterator@DU?$char_traits@D@std@@@2@V32@0AEAVios_base@2@AEAHPEAUtm@@@Z 00000001400537bc f i libcpmt:xlocale.obj
 0001:00052820       ?grouping@?$_Mpunct@D@std@@QEBA?AV?$basic_string@DU?$char_traits@D@std@@V?$allocator@D@2@@2@XZ 0000000140053820 f i libcpmt:xlocale.obj
 0001:00052840       ?narrow@?$ctype@D@std@@QEBADDD@Z 0000000140053840 f i libcpmt:xlocale.obj
 0001:00052850       ?neg_format@?$_Mpunct@D@std@@QEBA?AUpattern@money_base@2@XZ 0000000140053850 f i libcpmt:xlocale.obj
 0001:00052870       ?negative_sign@?$_Mpunct@D@std@@QEBA?AV?$basic_string@DU?$char_traits@D@std@@V?$allocator@D@2@@2@XZ 0000000140053870 f i libcpmt:xlocale.obj
 0001:00052890       ?pos_format@?$_Mpunct@D@std@@QEBA?AUpattern@money_base@2@XZ 0000000140053890 f i libcpmt:xlocale.obj
 0001:000528b0       ?positive_sign@?$_Mpunct@D@std@@QEBA?AV?$basic_string@DU?$char_traits@D@std@@V?$allocator@D@2@@2@XZ 00000001400538b0 f i libcpmt:xlocale.obj
 0001:000528d0       ?widen@?$ctype@D@std@@QEBADD@Z 00000001400538d0 f i libcpmt:xlocale.obj
 0001:000528e0       _Stolx                     00000001400538e0 f   libcpmt:xstol.obj
 0001:000529c8       _Stoul                     00000001400539c8 f   libcpmt:xstoul.obj
 0001:000529d0       _Stoulx                    00000001400539d0 f   libcpmt:xstoul.obj
 0001:00052bac       _Stoll                     0000000140053bac f   libcpmt:xstoll.obj
 0001:00052bb4       _Stollx                    0000000140053bb4 f   libcpmt:xstoll.obj
 0001:00052cac       _Stoull                    0000000140053cac f   libcpmt:xstoull.obj
 0001:00052cb4       _Stoullx                   0000000140053cb4 f   libcpmt:xstoull.obj
 0001:00052e84       _Getcoll                   0000000140053e84 f   libcpmt:xstrcoll.obj
 0001:00052eb8       _Strcoll                   0000000140053eb8 f   libcpmt:xstrcoll.obj
 0001:00052f88       _Getdateorder              0000000140053f88 f   libcpmt:xdateord.obj
 0001:00052ffc       _Mbrtowc                   0000000140053ffc f   libcpmt:xmbtowc.obj
 0001:000531e8       _Wcscoll                   00000001400541e8 f   libcpmt:xwcscoll.obj
 0001:000532cc       wmemcmp                    00000001400542cc f i libcpmt:xwcscoll.obj
 0001:000532f8       _Wcsxfrm                   00000001400542f8 f   libcpmt:xwcsxfrm.obj
 0001:00053408       _Getwctype                 0000000140054408 f   libcpmt:xgetwctype.obj
 0001:00053438       _Getwctypes                0000000140054438 f   libcpmt:xgetwctype.obj
 0001:00053468       _Towlower                  0000000140054468 f   libcpmt:xtowlower.obj
 0001:000534dc       _Towupper                  00000001400544dc f   libcpmt:xtowupper.obj
 0001:00053554       _Strxfrm                   0000000140054554 f   libcpmt:xstrxfrm.obj
 0001:00053654       __crtCompareStringA        0000000140054654 f   libcpmt:StlCompareStringA.obj
 0001:0005398c       __crtCompareStringW        000000014005498c f   libcpmt:StlCompareStringW.obj
 0001:00053a34       __crtLCMapStringW          0000000140054a34 f   libcpmt:StlLCMapStringW.obj
 0001:00053a90       DwmFlush                   0000000140054a90 f   Dwmapi:dwmapi.dll
 0001:00053a96       GdipFree                   0000000140054a96 f   gdiplus:gdiplus.dll
 0001:00053a9c       GdipCloneImage             0000000140054a9c f   gdiplus:gdiplus.dll
 0001:00053aa2       GdiplusStartup             0000000140054aa2 f   gdiplus:gdiplus.dll
 0001:00053aa8       GdipAlloc                  0000000140054aa8 f   gdiplus:gdiplus.dll
 0001:00053aae       GdipDisposeImage           0000000140054aae f   gdiplus:gdiplus.dll
 0001:00053ab4       GdipGetImageHeight         0000000140054ab4 f   gdiplus:gdiplus.dll
 0001:00053aba       GdipGetImageWidth          0000000140054aba f   gdiplus:gdiplus.dll
 0001:00053ac0       GdipCreateBitmapFromFile   0000000140054ac0 f   gdiplus:gdiplus.dll
 0001:00053ac6       GdipCreateBitmapFromStream 0000000140054ac6 f   gdiplus:gdiplus.dll
 0001:00053acc       GdipBitmapGetPixel         0000000140054acc f   gdiplus:gdiplus.dll
 0001:00053ad2       SHCreateMemStream          0000000140054ad2 f   Shlwapi:SHLWAPI.dll
 0001:00053ad8       glHint                     0000000140054ad8 f   opengl32:OPENGL32.dll
 0001:00053ade       glEnable                   0000000140054ade f   opengl32:OPENGL32.dll
 0001:00053ae4       wglGetProcAddress          0000000140054ae4 f   opengl32:OPENGL32.dll
 0001:00053aea       wglMakeCurrent             0000000140054aea f   opengl32:OPENGL32.dll
 0001:00053af0       wglCreateContext           0000000140054af0 f   opengl32:OPENGL32.dll
 0001:00053af6       wglDeleteContext           0000000140054af6 f   opengl32:OPENGL32.dll
 0001:00053afc       glBlendFunc                0000000140054afc f   opengl32:OPENGL32.dll
 0001:00053b02       glEnd                      0000000140054b02 f   opengl32:OPENGL32.dll
 0001:00053b08       glVertex3f                 0000000140054b08 f   opengl32:OPENGL32.dll
 0001:00053b0e       glTexCoord2f               0000000140054b0e f   opengl32:OPENGL32.dll
 0001:00053b14       glColor4ub                 0000000140054b14 f   opengl32:OPENGL32.dll
 0001:00053b1a       glBegin                    0000000140054b1a f   opengl32:OPENGL32.dll
 0001:00053b20       glVertex2f                 0000000140054b20 f   opengl32:OPENGL32.dll
 0001:00053b26       glTexCoord4f               0000000140054b26 f   opengl32:OPENGL32.dll
 0001:00053b2c       glBindTexture              0000000140054b2c f   opengl32:OPENGL32.dll
 0001:00053b32       glTexEnvf                  0000000140054b32 f   opengl32:OPENGL32.dll
 0001:00053b38       glTexParameteri            0000000140054b38 f   opengl32:OPENGL32.dll
 0001:00053b3e       glGenTextures              0000000140054b3e f   opengl32:OPENGL32.dll
 0001:00053b44       glTexImage2D               0000000140054b44 f   opengl32:OPENGL32.dll
 0001:00053b4a       glDeleteTextures           0000000140054b4a f   opengl32:OPENGL32.dll
 0001:00053b50       glViewport                 0000000140054b50 f   opengl32:OPENGL32.dll
 0001:00053b56       glClear                    0000000140054b56 f   opengl32:OPENGL32.dll
 0001:00053b5c       glClearColor               0000000140054b5c f   opengl32:OPENGL32.dll
 0001:00053b62       __kmpc_begin               0000000140054b62 f   libiomp5md:libiomp5md.dll
 0001:00053b68       __kmpc_end                 0000000140054b68 f   libiomp5md:libiomp5md.dll
 0001:00053b6e       __kmpc_global_thread_num   0000000140054b6e f   libiomp5md:libiomp5md.dll
 0001:00053b74       __kmpc_ok_to_fork          0000000140054b74 f   libiomp5md:libiomp5md.dll
 0001:00053b7a       __kmpc_fork_call           0000000140054b7a f   libiomp5md:libiomp5md.dll
 0001:00053b80       __kmpc_for_static_init_4   0000000140054b80 f   libiomp5md:libiomp5md.dll
 0001:00053b86       __kmpc_for_static_fini     0000000140054b86 f   libiomp5md:libiomp5md.dll
 0001:00053b8c       __kmpc_end_serialized_parallel 0000000140054b8c f   libiomp5md:libiomp5md.dll
 0001:00053b92       __kmpc_serialized_parallel 0000000140054b92 f   libiomp5md:libiomp5md.dll
 0001:00053bb0       _alloca_probe              0000000140054bb0 f   LIBCMT:chkstk.obj
 0001:00053bb0       __chkstk                   0000000140054bb0 f   LIBCMT:chkstk.obj
 0001:00053c04       ??1type_info@@UEAA@XZ      0000000140054c04 f   LIBCMT:std_type_info_static.obj
 0001:00053c10       ??_Etype_info@@UEAAPEAXI@Z 0000000140054c10 f i LIBCMT:std_type_info_static.obj
 0001:00053c10       ??_Gtype_info@@UEAAPEAXI@Z 0000000140054c10 f i LIBCMT:std_type_info_static.obj
 0001:00053c3c       ??_L@YAXPEAX_K1P6AX0@Z2@Z  0000000140054c3c f   LIBCMT:ehvecctr.obj
 0001:00053cac       ??_L@YAXPEAX_KHP6AX0@Z2@Z  0000000140054cac f   LIBCMT:ehvecctr.obj
 0001:00053cb4       ??_M@YAXPEAX_K1P6AX0@Z@Z   0000000140054cb4 f   LIBCMT:ehvecdtr.obj
 0001:00053d20       ??_M@YAXPEAX_KHP6AX0@Z@Z   0000000140054d20 f   LIBCMT:ehvecdtr.obj
 0001:00053d44       ?__ArrayUnwind@@YAXPEAX_K1P6AX0@Z@Z 0000000140054d44 f   LIBCMT:ehvecdtr.obj
 0001:00053da8       ??2@YAPEAX_K@Z             0000000140054da8 f   LIBCMT:new_scalar.obj
 0001:00053de4       ??3@YAXPEAX_K@Z            0000000140054de4 f   LIBCMT:delete_scalar_size.obj
 0001:00053de4       ??_V@YAXPEAX@Z             0000000140054de4 f   LIBCMT:delete_array.obj
 0001:00053dec       ??_V@YAXPEAX_K@Z           0000000140054dec f   LIBCMT:delete_array_size.obj
 0001:00053df4       ??_U@YAPEAX_K@Z            0000000140054df4 f   LIBCMT:new_array.obj
 0001:00053dfc       ??$__crt_fast_decode_pointer@P6AXH@Z@@YAP6AXH@ZQ6AXH@Z@Z 0000000140054dfc f i libucrt:signal.obj
 0001:00053dfc       ??$__crt_fast_decode_pointer@P6AXPEB_W00I_K@Z@@YAP6AXPEB_W00I_K@ZQ6AX000I1@Z@Z 0000000140054dfc f i libucrt:invalid_parameter.obj
 0001:00053dfc       ??$__crt_fast_decode_pointer@PEAP6AXXZ@@YAPEAP6AXXZQEAP6AXXZ@Z 0000000140054dfc f i LIBCMT:utility.obj
 0001:00053dfc       ??$__crt_fast_decode_pointer@P6AHPEA_WK_J@Z@@YAP6AHPEA_WK_J@ZQ6AH0K1@Z@Z 0000000140054dfc f i libucrt:winapi_thunks.obj
 0001:00053dfc       ??$__crt_fast_decode_pointer@P6AH_K@Z@@YAP6AH_K@ZQ6AH0@Z@Z 0000000140054dfc f i libucrt:new_handler.obj
 0001:00053dfc       ??$__crt_fast_decode_pointer@P6AHPEAU_exception@@@Z@@YAP6AHPEAU_exception@@@ZQ6AH0@Z@Z 0000000140054dfc f i libucrt:matherr.obj
 0001:00053dfc       ??$__crt_fast_decode_pointer@PEAX@@YAPEAXQEAX@Z 0000000140054dfc f i libvcruntime:winapi_downlevel.obj
 0001:00053dfc       ??$__crt_fast_decode_pointer@P6AXXZ@@YAP6AXXZQ6AXXZ@Z 0000000140054dfc f i libvcruntime:purevirt.obj
 0001:00053dfc       ??$__crt_fast_decode_pointer@P6AXPEAXK0@Z@@YAP6AXPEAXK0@ZQ6AX0K0@Z@Z 0000000140054dfc f i libucrt:exit.obj
 0001:00053e14       ??$__crt_fast_encode_pointer@PEAX@@YAPEAXQEAX@Z 0000000140054e14 f i libvcruntime:winapi_downlevel.obj
 0001:00053e14       ??$__crt_fast_encode_pointer@P6AHXZ@@YAP6AHXZQ6AHXZ@Z 0000000140054e14 f i libucrt:onexit.obj
 0001:00053e14       ??$__crt_fast_encode_pointer@PEAP6AXXZ@@YAPEAP6AXXZQEAP6AXXZ@Z 0000000140054e14 f i LIBCMT:utility.obj
 0001:00053e14       ??$__crt_fast_encode_pointer@P6AHPEA_WK_J@Z@@YAP6AHPEA_WK_J@ZQ6AH0K1@Z@Z 0000000140054e14 f i libucrt:winapi_thunks.obj
 0001:00053e14       ??$__crt_fast_encode_pointer@P6AXXZ@@YAP6AXXZQ6AXXZ@Z 0000000140054e14 f i libvcruntime:purevirt.obj
 0001:00053e14       ??$__crt_fast_encode_pointer@P6AXPEAXK0@Z@@YAP6AXPEAXK0@ZQ6AX0K0@Z@Z 0000000140054e14 f i libucrt:exit.obj
 0001:00053e14       ??$__crt_fast_encode_pointer@P6AXPEB_W00I_K@Z@@YAP6AXPEB_W00I_K@ZQ6AX000I1@Z@Z 0000000140054e14 f i libucrt:invalid_parameter.obj
 0001:00053e14       ??$__crt_fast_encode_pointer@P6AHPEAU_exception@@@Z@@YAP6AHPEAU_exception@@@ZQ6AH0@Z@Z 0000000140054e14 f i libucrt:matherr.obj
 0001:00053e14       ??$__crt_fast_encode_pointer@P6AH_K@Z@@YAP6AH_K@ZQ6AH0@Z@Z 0000000140054e14 f i libucrt:new_handler.obj
 0001:00053e14       ??$__crt_fast_encode_pointer@P6AXH@Z@@YAP6AXH@ZQ6AXH@Z@Z 0000000140054e14 f i libucrt:signal.obj
 0001:00053e34       ?__crt_rotate_pointer_value@@YA_K_KH@Z 0000000140054e34 f i LIBCMT:utility.obj
 0001:00053e40       ?configure_argv@__scrt_narrow_argv_policy@@SAHXZ 0000000140054e40 f i LIBCMT:utility.obj
 0001:00053ea0       ?initialize_environment@__scrt_narrow_environment_policy@@SAHXZ 0000000140054ea0 f i LIBCMT:utility.obj
 0001:00053ed8       NtCurrentTeb               0000000140054ed8 f i LIBCMT:utility.obj
 0001:00053ee4       __scrt_acquire_startup_lock 0000000140054ee4 f   LIBCMT:utility.obj
 0001:00053f20       __scrt_dllmain_after_initialize_c 0000000140054f20 f   LIBCMT:utility.obj
 0001:00053f54       __scrt_dllmain_before_initialize_c 0000000140054f54 f   LIBCMT:utility.obj
 0001:00053f6c       __scrt_dllmain_crt_thread_attach 0000000140054f6c f   LIBCMT:utility.obj
 0001:00053f94       __scrt_dllmain_crt_thread_detach 0000000140054f94 f   LIBCMT:utility.obj
 0001:00053fac       __scrt_dllmain_exception_filter 0000000140054fac f   LIBCMT:utility.obj
 0001:0005400c       __scrt_dllmain_uninitialize_c 000000014005500c f   LIBCMT:utility.obj
 0001:0005403c       __scrt_dllmain_uninitialize_critical 000000014005503c f   LIBCMT:utility.obj
 0001:00054050       __scrt_initialize_crt      0000000140055050 f   LIBCMT:utility.obj
 0001:0005409c       __scrt_initialize_onexit_tables 000000014005509c f   LIBCMT:utility.obj
 0001:00054174       __scrt_is_nonwritable_in_current_image 0000000140055174 f   LIBCMT:utility.obj
 0001:00054210       __scrt_release_startup_lock 0000000140055210 f   LIBCMT:utility.obj
 0001:00054234       __scrt_uninitialize_crt    0000000140055234 f   LIBCMT:utility.obj
 0001:00054260       _onexit                    0000000140055260 f   LIBCMT:utility.obj
 0001:000542b0       at_quick_exit              00000001400552b0 f   LIBCMT:utility.obj
 0001:000542e8       atexit                     00000001400552e8 f   LIBCMT:utility.obj
 0001:000545ac       ?set_app_type@__scrt_main_policy@@SAXXZ 00000001400555ac f i LIBCMT:exe_main.obj
 0001:000545b8       ?set_commode@__scrt_file_policy@@SAXXZ 00000001400555b8 f i LIBCMT:exe_main.obj
 0001:000545d4       ?set_fmode@__scrt_file_policy@@SAXXZ 00000001400555d4 f i LIBCMT:exe_main.obj
 0001:000545e8       mainCRTStartup             00000001400555e8 f   LIBCMT:exe_main.obj
 0001:000545fc       __GSHandlerCheck           00000001400555fc f   LIBCMT:gshandler.obj
 0001:0005461c       __GSHandlerCheckCommon     000000014005561c f   LIBCMT:gshandler.obj
 0001:00054690       __security_check_cookie    0000000140055690 f   LIBCMT:amdsecgs.obj
 0001:000546b4       _guard_icall_checks_enforced 00000001400556b4 f i LIBCMT:guard_support.obj
 0001:000546cc       __GSHandlerCheck_EH        00000001400556cc f   LIBCMT:gshandlereh.obj
 0001:0005474c       ??0bad_alloc@std@@AEAA@QEBD@Z 000000014005574c f i LIBCMT:throw_bad_alloc.obj
 0001:00054764       ??0bad_array_new_length@std@@QEAA@AEBV01@@Z 0000000140055764 f i LIBCMT:throw_bad_alloc.obj
 0001:000547a4       ??0bad_array_new_length@std@@QEAA@XZ 00000001400557a4 f i LIBCMT:throw_bad_alloc.obj
 0001:000547c4       ??_Gbad_array_new_length@std@@UEAAPEAXI@Z 00000001400557c4 f i LIBCMT:throw_bad_alloc.obj
 0001:000547c4       ??_Ebad_array_new_length@std@@UEAAPEAXI@Z 00000001400557c4 f i LIBCMT:throw_bad_alloc.obj
 0001:00054808       ?__scrt_throw_std_bad_alloc@@YAXXZ 0000000140055808 f   LIBCMT:throw_bad_alloc.obj
 0001:00054828       ?__scrt_throw_std_bad_array_new_length@@YAXXZ 0000000140055828 f   LIBCMT:throw_bad_alloc.obj
 0001:00054848       ?deallocate@__crt_win32_buffer_public_dynamic_resizing@@SAXQEAXAEBV__crt_win32_buffer_debug_info@@@Z 0000000140055848 f   libucrt:getcwd.obj
 0001:00054848       ??3@YAXPEAX@Z              0000000140055848 f   LIBCMT:delete_scalar.obj
 0001:00054850       __isa_available_init       0000000140055850 f   LIBCMT:cpu_disp.obj
 0001:000549cc       ?get_parameter_type@?$positional_parameter_base@DV?$string_output_adapter@D@__crt_stdio_output@@@__crt_stdio_output@@CA?AW4parameter_type@12@G@Z 00000001400559cc f   libucrt:output.obj
 0001:000549cc       ?_NumberOfSpins@?$_SpinWait@$00@details@Concurrency@@IEAAKXZ 00000001400559cc f   libconcrt:event.obj
 0001:000549cc       ?get_parameter_type@?$positional_parameter_base@_WV?$stream_output_adapter@_W@__crt_stdio_output@@@__crt_stdio_output@@CA?AW4parameter_type@12@I@Z 00000001400559cc f   libucrt:output.obj
 0001:000549cc       ?get_parameter_type@?$positional_parameter_base@_WV?$stream_output_adapter@_W@__crt_stdio_output@@@__crt_stdio_output@@CA?AW4parameter_type@12@H@Z 00000001400559cc f   libucrt:output.obj
 0001:000549cc       ?get_parameter_type@?$positional_parameter_base@_WV?$string_output_adapter@_W@__crt_stdio_output@@@__crt_stdio_output@@CA?AW4parameter_type@12@H@Z 00000001400559cc f   libucrt:output.obj
 0001:000549cc       ?get_parameter_type@?$positional_parameter_base@DV?$string_output_adapter@D@__crt_stdio_output@@@__crt_stdio_output@@CA?AW4parameter_type@12@_W@Z 00000001400559cc f   libucrt:output.obj
 0001:000549cc       ?get_parameter_type@?$positional_parameter_base@DV?$stream_output_adapter@D@__crt_stdio_output@@@__crt_stdio_output@@CA?AW4parameter_type@12@_W@Z 00000001400559cc f   libucrt:output.obj
 0001:000549cc       ?_NumberOfSpins@?$_SpinWait@$0A@@details@Concurrency@@IEAAKXZ 00000001400559cc f   libconcrt:event.obj
 0001:000549cc       ?get_parameter_type@?$positional_parameter_base@_WV?$stream_output_adapter@_W@__crt_stdio_output@@@__crt_stdio_output@@CA?AW4parameter_type@12@G@Z 00000001400559cc f   libucrt:output.obj
 0001:000549cc       ?get_parameter_type@?$positional_parameter_base@DV?$string_output_adapter@D@__crt_stdio_output@@@__crt_stdio_output@@CA?AW4parameter_type@12@I@Z 00000001400559cc f   libucrt:output.obj
 0001:000549cc       ?get_parameter_type@?$positional_parameter_base@_WV?$string_output_adapter@_W@__crt_stdio_output@@@__crt_stdio_output@@CA?AW4parameter_type@12@_W@Z 00000001400559cc f   libucrt:output.obj
 0001:000549cc       ?GetContextKind@ThreadInternalContext@details@Concurrency@@UEBA?AW4ContextKind@ContextBase@23@XZ 00000001400559cc f   libconcrt:ThreadScheduler.obj
 0001:000549cc       ?get_parameter_type@?$positional_parameter_base@_WV?$string_output_adapter@_W@__crt_stdio_output@@@__crt_stdio_output@@CA?AW4parameter_type@12@G@Z 00000001400559cc f   libucrt:output.obj
 0001:000549cc       ?get_parameter_type@?$positional_parameter_base@_WV?$stream_output_adapter@_W@__crt_stdio_output@@@__crt_stdio_output@@CA?AW4parameter_type@12@_W@Z 00000001400559cc f   libucrt:output.obj
 0001:000549cc       ?get_parameter_type@?$positional_parameter_base@DV?$string_output_adapter@D@__crt_stdio_output@@@__crt_stdio_output@@CA?AW4parameter_type@12@F@Z 00000001400559cc f   libucrt:output.obj
 0001:000549cc       ?get_parameter_type@?$positional_parameter_base@DV?$stream_output_adapter@D@__crt_stdio_output@@@__crt_stdio_output@@CA?AW4parameter_type@12@H@Z 00000001400559cc f   libucrt:output.obj
 0001:000549cc       ?get_parameter_type@?$positional_parameter_base@DV?$stream_output_adapter@D@__crt_stdio_output@@@__crt_stdio_output@@CA?AW4parameter_type@12@I@Z 00000001400559cc f   libucrt:output.obj
 0001:000549cc       ?get_parameter_type@?$positional_parameter_base@_WV?$string_output_adapter@_W@__crt_stdio_output@@@__crt_stdio_output@@CA?AW4parameter_type@12@I@Z 00000001400559cc f   libucrt:output.obj
 0001:000549cc       ?length@charNode@@UEBAHXZ  00000001400559cc f   libvcruntime:undname.obj
 0001:000549cc       ?get_parameter_type@?$positional_parameter_base@DV?$string_output_adapter@D@__crt_stdio_output@@@__crt_stdio_output@@CA?AW4parameter_type@12@H@Z 00000001400559cc f   libucrt:output.obj
 0001:000549cc       ?get_parameter_type@?$positional_parameter_base@_WV?$string_output_adapter@_W@__crt_stdio_output@@@__crt_stdio_output@@CA?AW4parameter_type@12@F@Z 00000001400559cc f   libucrt:output.obj
 0001:000549cc       ?get_parameter_type@?$positional_parameter_base@DV?$stream_output_adapter@D@__crt_stdio_output@@@__crt_stdio_output@@CA?AW4parameter_type@12@F@Z 00000001400559cc f   libucrt:output.obj
 0001:000549cc       ?get_parameter_type@?$positional_parameter_base@_WV?$stream_output_adapter@_W@__crt_stdio_output@@@__crt_stdio_output@@CA?AW4parameter_type@12@F@Z 00000001400559cc f   libucrt:output.obj
 0001:000549cc       ?get_parameter_type@?$positional_parameter_base@DV?$stream_output_adapter@D@__crt_stdio_output@@@__crt_stdio_output@@CA?AW4parameter_type@12@G@Z 00000001400559cc f   libucrt:output.obj
 0001:000549cc       _get_startup_argv_mode     00000001400559cc f   LIBCMT:argv_mode.obj
 0001:000549d4       __scrt_is_ucrt_dll_in_use  00000001400559d4 f   LIBCMT:ucrt_detection.obj
 0001:000549e0       __crt_debugger_hook        00000001400559e0 f   LIBCMT:utility_desktop.obj
 0001:000549e8       __scrt_fastfail            00000001400559e8 f   LIBCMT:utility_desktop.obj
 0001:00054b34       __scrt_get_show_window_mode 0000000140055b34 f   LIBCMT:utility_desktop.obj
 0001:00054b70       __scrt_initialize_mta      0000000140055b70 f   LIBCMT:utility_desktop.obj
 0001:00054b78       __scrt_is_managed_app      0000000140055b78 f   LIBCMT:utility_desktop.obj
 0001:00054bcc       __scrt_set_unhandled_exception_filter 0000000140055bcc f   LIBCMT:utility_desktop.obj
 0001:00054bdc       __scrt_unhandled_exception_filter 0000000140055bdc f   LIBCMT:utility_desktop.obj
 0001:00054c80       __security_init_cookie     0000000140055c80 f   LIBCMT:gs_support.obj
 0001:00054d2c       _get_startup_file_mode     0000000140055d2c f   LIBCMT:file_mode.obj
 0001:00054d34       ?__scrt_initialize_type_info@@YAXXZ 0000000140055d34 f   LIBCMT:tncleanup.obj
 0001:00054d44       ?__scrt_uninitialize_type_info@@YAXXZ 0000000140055d44 f   LIBCMT:tncleanup.obj
 0001:00054d50       __local_stdio_scanf_options 0000000140055d50 f i LIBCMT:default_local_stdio_options.obj
 0001:00054d58       __scrt_initialize_default_local_stdio_options 0000000140055d58 f   LIBCMT:default_local_stdio_options.obj
 0001:00054d74       __scrt_is_user_matherr_present 0000000140055d74 f   LIBCMT:matherr_detection.obj
 0001:00054d80       __scrt_get_dyn_tls_init_callback 0000000140055d80 f   LIBCMT:dyn_tls_init.obj
 0001:00054d88       __scrt_get_dyn_tls_dtor_callback 0000000140055d88 f   LIBCMT:dyn_tls_dtor.obj
 0001:00054d90       _RTC_Initialize            0000000140055d90 f   LIBCMT:initsect.obj
 0001:00054dcc       _RTC_Terminate             0000000140055dcc f   LIBCMT:initsect.obj
 0001:00054e08       __raise_securityfailure    0000000140055e08 f   LIBCMT:gs_report.obj
 0001:00054e3c       __report_gsfailure         0000000140055e3c f   LIBCMT:gs_report.obj
 0001:00054f10       __report_rangecheckfailure 0000000140055f10 f   LIBCMT:gs_report.obj
 0001:00054f24       __report_securityfailure   0000000140055f24 f   LIBCMT:gs_report.obj
 0001:00054fc0       __report_securityfailureEx 0000000140055fc0 f   LIBCMT:gs_report.obj
 0001:000551c0       ??0?$_MallocaArrayHolder@PEAVContext@Concurrency@@@details@Concurrency@@QEAA@XZ 00000001400561c0 f i libconcrt:event.obj
 0001:000551d8       ??0?$_SpinWait@$00@details@Concurrency@@QEAA@P6AXXZ@Z 00000001400561d8 f i libconcrt:event.obj
 0001:000551d8       ??0?$_SpinWait@$0A@@details@Concurrency@@QEAA@P6AXXZ@Z 00000001400561d8 f i libconcrt:event.obj
 0001:000551e4       ??0MultiWaitBlock@details@Concurrency@@QEAA@_K_N1@Z 00000001400561e4 f i libconcrt:event.obj
 0001:0005527c       ??0MultiWaitBlockHolder@details@Concurrency@@QEAA@_N_K00@Z 000000014005627c f   libconcrt:event.obj
 0001:0005535c       ??0SingleWaitBlock@details@Concurrency@@QEAA@XZ 000000014005635c f i libconcrt:event.obj
 0001:00055398       ??0TimedSingleWaitBlock@details@Concurrency@@QEAA@_N@Z 0000000140056398 f i libconcrt:event.obj
 0001:000553fc       ??0WaitAllBlock@details@Concurrency@@QEAA@_K_N1@Z 00000001400563fc f i libconcrt:event.obj
 0001:00055430       ??0WaitAnyBlock@details@Concurrency@@QEAA@_K_N1@Z 0000000140056430 f i libconcrt:event.obj
 0001:0005545c       ??0WaitBlock@details@Concurrency@@QEAA@XZ 000000014005645c f i libconcrt:event.obj
 0001:00055490       ??0_Condition_variable@details@Concurrency@@QEAA@XZ 0000000140056490 f   libconcrt:event.obj
 0001:000554b4       ??0event@Concurrency@@QEAA@XZ 00000001400564b4 f   libconcrt:event.obj
 0001:000554dc       ??1?$_MallocaArrayHolder@PEAVContext@Concurrency@@@details@Concurrency@@UEAA@XZ 00000001400564dc f i libconcrt:event.obj
 0001:0005550c       ??1MultiWaitBlockHolder@details@Concurrency@@QEAA@XZ 000000014005650c f   libconcrt:event.obj
 0001:00055544       ??1_Condition_variable@details@Concurrency@@QEAA@XZ 0000000140056544 f   libconcrt:event.obj
 0001:00055584       ??1event@Concurrency@@QEAA@XZ 0000000140056584 f   libconcrt:event.obj
 0001:00055630       ??_G?$_MallocaArrayHolder@PEAVContext@Concurrency@@@details@Concurrency@@UEAAPEAXI@Z 0000000140056630 f i libconcrt:event.obj
 0001:00055630       ??_E?$_MallocaArrayHolder@PEAVContext@Concurrency@@@details@Concurrency@@UEAAPEAXI@Z 0000000140056630 f i libconcrt:event.obj
 0001:00055684       ?Destroy@EventWaitNode@details@Concurrency@@QEAAXXZ 0000000140056684 f i libconcrt:event.obj
 0001:00055698       ?Destroy@SingleWaitBlock@details@Concurrency@@UEAAXXZ 0000000140056698 f   libconcrt:event.obj
 0001:00055698       ?SweepResetNode@WaitAnyBlock@details@Concurrency@@UEAA_NXZ 0000000140056698 f   libconcrt:event.obj
 0001:00055698       ?Reset@WaitAnyBlock@details@Concurrency@@UEAA_NXZ 0000000140056698 f   libconcrt:event.obj
 0001:00055698       ?SweepResetNode@SingleWaitBlock@details@Concurrency@@UEAA_NXZ 0000000140056698 f   libconcrt:event.obj
 0001:00055698       ?Reset@SingleWaitBlock@details@Concurrency@@UEAA_NXZ 0000000140056698 f   libconcrt:event.obj
 0001:00055698       ?SwitchOut@UMSFreeVirtualProcessorRoot@details@Concurrency@@UEAAXW4SwitchingProxyState@3@@Z 0000000140056698 f   libconcrt:UMSFreeVirtualProcessorRoot.obj
 0001:0005569c       ?Destroy@TimedSingleWaitBlock@details@Concurrency@@UEAAXXZ 000000014005669c f   libconcrt:event.obj
 0001:000556c0       ?Destroy@WaitAllBlock@details@Concurrency@@UEAAXXZ 00000001400566c0 f   libconcrt:event.obj
 0001:000556c8       ?DispatchEventTimer@MultiWaitBlock@details@Concurrency@@SAXPEAU_TP_CALLBACK_INSTANCE@@PEAXPEAU_TP_TIMER@@@Z 00000001400566c8 f   libconcrt:event.obj
 0001:00055748       ?DispatchEventTimer@TimedSingleWaitBlock@details@Concurrency@@SAXPEAU_TP_CALLBACK_INSTANCE@@PEAXPEAU_TP_TIMER@@@Z 0000000140056748 f   libconcrt:event.obj
 0001:0005578c       ?DispatchEventTimerXP@MultiWaitBlock@details@Concurrency@@SAXPEAXE@Z 000000014005678c f   libconcrt:event.obj
 0001:000557f4       ?DispatchEventTimerXP@TimedSingleWaitBlock@details@Concurrency@@SAXPEAXE@Z 00000001400567f4 f   libconcrt:event.obj
 0001:00055808       ?GetIndexOfNode@MultiWaitBlockHolder@details@Concurrency@@QEBA_KPEAVEventWaitNode@23@@Z 0000000140056808 f i libconcrt:event.obj
 0001:0005581c       ?GetSharedTimerQueue@details@Concurrency@@YAPEAXXZ 000000014005681c f   libconcrt:event.obj
 0001:000558d0       ?GetWaitNode@MultiWaitBlockHolder@details@Concurrency@@QEBAPEAVEventWaitNode@23@_K@Z 00000001400568d0 f i libconcrt:event.obj
 0001:000558e0       ?NotifyCompletedNode@MultiWaitBlock@details@Concurrency@@QEAAXXZ 00000001400568e0 f   libconcrt:event.obj
 0001:00055908       ?Release@MultiWaitBlockHolder@details@Concurrency@@QEAAXXZ 0000000140056908 f i libconcrt:event.obj
 0001:00055910       ?Reset@EventWaitNode@details@Concurrency@@QEAA_NXZ 0000000140056910 f i libconcrt:event.obj
 0001:00055924       ?Reset@WaitAllBlock@details@Concurrency@@UEAA_NXZ 0000000140056924 f   libconcrt:event.obj
 0001:00055964       ?Satisfy@EventWaitNode@details@Concurrency@@QEAA_NPEAPEAVContext@3@@Z 0000000140056964 f i libconcrt:event.obj
 0001:0005597c       ?Satisfy@SingleWaitBlock@details@Concurrency@@UEAA_NPEAPEAVContext@3@PEAVEventWaitNode@23@@Z 000000014005697c f   libconcrt:event.obj
 0001:000559d0       ?Satisfy@TimedSingleWaitBlock@details@Concurrency@@UEAA_NPEAPEAVContext@3@PEAVEventWaitNode@23@@Z 00000001400569d0 f   libconcrt:event.obj
 0001:00055a84       ?Satisfy@WaitAllBlock@details@Concurrency@@UEAA_NPEAPEAVContext@3@PEAVEventWaitNode@23@@Z 0000000140056a84 f   libconcrt:event.obj
 0001:00055ad0       ?Satisfy@WaitAnyBlock@details@Concurrency@@UEAA_NPEAPEAVContext@3@PEAVEventWaitNode@23@@Z 0000000140056ad0 f   libconcrt:event.obj
 0001:00055b18       ?Set@StructuredEvent@details@Concurrency@@QEAAXXZ 0000000140056b18 f   libconcrt:event.obj
 0001:00055b70       ?SingleSatisfy@MultiWaitBlock@details@Concurrency@@MEAAXPEAPEAVContext@3@PEAVEventWaitNode@23@@Z 0000000140056b70 f   libconcrt:event.obj
 0001:00055c58       ?Sweep@details@Concurrency@@YAPEAVEventWaitNode@12@PEAV312@_N@Z 0000000140056c58 f   libconcrt:event.obj
 0001:00055cc4       ?SweepResetNode@EventWaitNode@details@Concurrency@@QEAA_NXZ 0000000140056cc4 f i libconcrt:event.obj
 0001:00055cd8       ?SweepResetNode@WaitAllBlock@details@Concurrency@@UEAA_NXZ 0000000140056cd8 f   libconcrt:event.obj
 0001:00055d14       ?SweepWaitNode@EventWaitNode@details@Concurrency@@QEAA_NXZ 0000000140056d14 f i libconcrt:event.obj
 0001:00055d28       ?SweepWaitNode@TimedSingleWaitBlock@details@Concurrency@@UEAA_NXZ 0000000140056d28 f   libconcrt:event.obj
 0001:00055d4c       ?SweepWaitNode@WaitAllBlock@details@Concurrency@@UEAA_NXZ 0000000140056d4c f   libconcrt:event.obj
 0001:00055d90       ?SweepWaitNode@WaitAnyBlock@details@Concurrency@@UEAA_NXZ 0000000140056d90 f   libconcrt:event.obj
 0001:00055dc8       ?Wait@StructuredEvent@details@Concurrency@@QEAAXXZ 0000000140056dc8 f   libconcrt:event.obj
 0001:00055e58       ?_DoYield@?$_SpinWait@$00@details@Concurrency@@IEAAXXZ 0000000140056e58 f i libconcrt:event.obj
 0001:00055e64       ?_DoYield@?$_SpinWait@$0A@@details@Concurrency@@IEAAXXZ 0000000140056e64 f i libconcrt:event.obj
 0001:00055e68       ?_InitOnRawMalloca@?$_MallocaArrayHolder@PEAVContext@Concurrency@@@details@Concurrency@@QEAAPEAPEAVContext@3@PEAX@Z 0000000140056e68 f i libconcrt:event.obj
 0001:00055ea0       ?_Initialize@?$_MallocaArrayHolder@PEAVevent@Concurrency@@@details@Concurrency@@QEAAXPEAPEAVevent@3@@Z 0000000140056ea0 f i libconcrt:TaskCollection.obj
 0001:00055ea0       ?_Initialize@?$_MallocaArrayHolder@PEAVContext@Concurrency@@@details@Concurrency@@QEAAXPEAPEAVContext@3@@Z 0000000140056ea0 f i libconcrt:event.obj
 0001:00055eac       ?_Reset@?$_SpinWait@$00@details@Concurrency@@IEAAXXZ 0000000140056eac f i libconcrt:event.obj
 0001:00055edc       ?_Reset@?$_SpinWait@$0A@@details@Concurrency@@IEAAXXZ 0000000140056edc f i libconcrt:event.obj
 0001:00055f10       ?_SetSpinCount@?$_SpinWait@$00@details@Concurrency@@QEAAXI@Z 0000000140056f10 f i libconcrt:event.obj
 0001:00055f28       ?_SetSpinCount@?$_SpinWait@$0A@@details@Concurrency@@QEAAXI@Z 0000000140056f28 f i libconcrt:event.obj
 0001:00055f40       ?_ShouldSpinAgain@?$_SpinWait@$0A@@details@Concurrency@@IEAA_NXZ 0000000140056f40 f i libconcrt:event.obj
 0001:00055f40       ?_ShouldSpinAgain@?$_SpinWait@$00@details@Concurrency@@IEAA_NXZ 0000000140056f40 f i libconcrt:event.obj
 0001:00055f4c       ?_SpinOnce@?$_SpinWait@$00@details@Concurrency@@QEAA_NXZ 0000000140056f4c f i libconcrt:event.obj
 0001:00056004       ?_SpinOnce@?$_SpinWait@$0A@@details@Concurrency@@QEAA_NXZ 0000000140057004 f i libconcrt:event.obj
 0001:000560b4       ?createTimer@TimedSingleWaitBlock@details@Concurrency@@QEAA_NI@Z 00000001400570b4 f i libconcrt:event.obj
 0001:00056140       ?destroyTimer@TimedSingleWaitBlock@details@Concurrency@@QEAAX_N@Z 0000000140057140 f i libconcrt:event.obj
 0001:0005619c       ?GetAffinity@ScheduleGroupSegmentBase@details@Concurrency@@IEBAAEBVlocation@3@XZ 000000014005719c f i libconcrt:ContextBase.obj
 0001:0005619c       ?getEventNode@TimedSingleWaitBlock@details@Concurrency@@QEAAPEAVEventWaitNode@23@XZ 000000014005719c f i libconcrt:event.obj
 0001:000561a4       ?notify_all@_Condition_variable@details@Concurrency@@QEAAXXZ 00000001400571a4 f   libconcrt:event.obj
 0001:00056238       ?notify_one@_Condition_variable@details@Concurrency@@QEAAXXZ 0000000140057238 f   libconcrt:event.obj
 0001:00056308       ?reset@event@Concurrency@@QEAAXXZ 0000000140057308 f   libconcrt:event.obj
 0001:00056398       ?set@event@Concurrency@@QEAAXXZ 0000000140057398 f   libconcrt:event.obj
 0001:00056588       ?wait@_Condition_variable@details@Concurrency@@QEAAXAEAVcritical_section@3@@Z 0000000140057588 f   libconcrt:event.obj
 0001:00056654       ?wait@event@Concurrency@@QEAA_KI@Z 0000000140057654 f   libconcrt:event.obj
 0001:00056780       ?wait_for@_Condition_variable@details@Concurrency@@QEAA_NAEAVcritical_section@3@I@Z 0000000140057780 f   libconcrt:event.obj
 0001:000568c4       ?wait_for_multiple@event@Concurrency@@SA_KPEAPEAV12@_K_NI@Z 00000001400578c4 f   libconcrt:event.obj
 0001:00056c70       _freea                     0000000140057c70 f i libconcrt:event.obj
 0001:00056c90       ??0LockQueueNode@details@Concurrency@@QEAA@I@Z 0000000140057c90 f i libconcrt:rtlocks.obj
 0001:00056d98       ??0LockQueueNode@details@Concurrency@@QEAA@PEAVContext@2@I@Z 0000000140057d98 f i libconcrt:rtlocks.obj
 0001:00056db4       ??0_NonReentrantBlockingLock@details@Concurrency@@QEAA@XZ 0000000140057db4 f   libconcrt:rtlocks.obj
 0001:00056dd4       ??0_NonReentrantPPLLock@details@Concurrency@@QEAA@XZ 0000000140057dd4 f   libconcrt:rtlocks.obj
 0001:00056dd4       ??0critical_section@Concurrency@@QEAA@XZ 0000000140057dd4 f   libconcrt:rtlocks.obj
 0001:00056dfc       ??0_ReaderWriterLock@details@Concurrency@@QEAA@XZ 0000000140057dfc f   libconcrt:rtlocks.obj
 0001:00056e10       ??0_ReentrantBlockingLock@details@Concurrency@@QEAA@XZ 0000000140057e10 f   libconcrt:rtlocks.obj
 0001:00056e30       ??0_ReentrantLock@details@Concurrency@@QEAA@XZ 0000000140057e30 f   libconcrt:rtlocks.obj
 0001:00056e40       ??0_ReentrantPPLLock@details@Concurrency@@QEAA@XZ 0000000140057e40 f   libconcrt:rtlocks.obj
 0001:00056e70       ??0_Scoped_lock@_NonReentrantPPLLock@details@Concurrency@@QEAA@AEAV123@@Z 0000000140057e70 f   libconcrt:rtlocks.obj
 0001:00056eac       ??0_Scoped_lock@_ReentrantPPLLock@details@Concurrency@@QEAA@AEAV123@@Z 0000000140057eac f   libconcrt:rtlocks.obj
 0001:00056ee4       ??0improper_lock@Concurrency@@QEAA@AEBV01@@Z 0000000140057ee4 f i libconcrt:rtlocks.obj
 0001:00056f24       ??0reader_writer_lock@Concurrency@@QEAA@XZ 0000000140057f24 f   libconcrt:rtlocks.obj
 0001:00056f54       ??0scoped_lock@critical_section@Concurrency@@QEAA@AEAV12@@Z 0000000140057f54 f   libconcrt:rtlocks.obj
 0001:00056f90       ??0scoped_lock@reader_writer_lock@Concurrency@@QEAA@AEAV12@@Z 0000000140057f90 f   libconcrt:rtlocks.obj
 0001:00056fcc       ??0scoped_lock_read@reader_writer_lock@Concurrency@@QEAA@AEAV12@@Z 0000000140057fcc f   libconcrt:rtlocks.obj
 0001:00056fec       ??1_Scoped_lock@_NonReentrantPPLLock@details@Concurrency@@QEAA@XZ 0000000140057fec f   libconcrt:rtlocks.obj
 0001:00056fec       ??1scoped_lock@critical_section@Concurrency@@QEAA@XZ 0000000140057fec f   libconcrt:rtlocks.obj
 0001:00057008       ??1_Scoped_lock@_ReentrantPPLLock@details@Concurrency@@QEAA@XZ 0000000140058008 f   libconcrt:rtlocks.obj
 0001:00057030       ??1scoped_lock_read@reader_writer_lock@Concurrency@@QEAA@XZ 0000000140058030 f   libconcrt:rtlocks.obj
 0001:00057030       ??1scoped_lock@reader_writer_lock@Concurrency@@QEAA@XZ 0000000140058030 f   libconcrt:rtlocks.obj
 0001:0005704c       ??_Gimproper_lock@Concurrency@@UEAAPEAXI@Z 000000014005804c f i libconcrt:rtlocks.obj
 0001:0005704c       ??_Eimproper_lock@Concurrency@@UEAAPEAXI@Z 000000014005804c f i libconcrt:rtlocks.obj
 0001:00057090       ?Block@LockQueueNode@details@Concurrency@@QEAAXI@Z 0000000140058090 f i libconcrt:rtlocks.obj
 0001:00057140       ?Copy@LockQueueNode@details@Concurrency@@QEAAXPEAV123@@Z 0000000140058140 f i libconcrt:rtlocks.obj
 0001:00057158       ?CurrentContext@SchedulerBase@details@Concurrency@@SAPEAVContextBase@23@XZ 0000000140058158 f i libconcrt:rtlocks.obj
 0001:00057184       ?DerefTimerNode@LockQueueNode@details@Concurrency@@QEAAXXZ 0000000140058184 f i libconcrt:rtlocks.obj
 0001:000571b0       ?DispatchNodeTimeoutTimer@LockQueueNode@details@Concurrency@@SAXPEAU_TP_CALLBACK_INSTANCE@@PEAXPEAU_TP_TIMER@@@Z 00000001400581b0 f i libconcrt:rtlocks.obj
 0001:0005721c       ?DispatchNodeTimeoutTimerXP@LockQueueNode@details@Concurrency@@SAXPEAXE@Z 000000014005821c f i libconcrt:rtlocks.obj
 0001:00057288       ?IsBlocked@LockQueueNode@details@Concurrency@@AEAA_NXZ 0000000140058288 f i libconcrt:rtlocks.obj
 0001:00057290       ?IsOneShotInitialized@SchedulerBase@details@Concurrency@@SA_NXZ 0000000140058290 f i libconcrt:rtlocks.obj
 0001:000572a0       ?IsPreviousBlocked@LockQueueNode@details@Concurrency@@AEAA_NXZ 00000001400582a0 f i libconcrt:rtlocks.obj
 0001:000572ac       ?IsTicketValid@LockQueueNode@details@Concurrency@@AEAA_NXZ 00000001400582ac f i libconcrt:rtlocks.obj
 0001:000572b4       ?TryCompensateTimer@LockQueueNode@details@Concurrency@@QEAAXXZ 00000001400582b4 f i libconcrt:rtlocks.obj
 0001:00057300       ?Unblock@LockQueueNode@details@Concurrency@@QEAA_NXZ 0000000140058300 f i libconcrt:rtlocks.obj
 0001:0005733c       ?UnblockWithoutContext@LockQueueNode@details@Concurrency@@QEAAXXZ 000000014005833c f i libconcrt:rtlocks.obj
 0001:00057348       ?UpdateBlockingState@LockQueueNode@details@Concurrency@@QEAAXPEAV123@@Z 0000000140058348 f i libconcrt:rtlocks.obj
 0001:00057388       ?UpdateQueuePosition@LockQueueNode@details@Concurrency@@QEAAXPEAV123@@Z 0000000140058388 f i libconcrt:rtlocks.obj
 0001:000573f4       ?WaitForNextNode@LockQueueNode@details@Concurrency@@QEAAPEAV123@XZ 00000001400583f4 f i libconcrt:rtlocks.obj
 0001:00057430       ?_Acquire@_NonReentrantPPLLock@details@Concurrency@@QEAAXPEAX@Z 0000000140058430 f   libconcrt:rtlocks.obj
 0001:00057438       ?_Acquire@_ReentrantLock@details@Concurrency@@QEAAXXZ 0000000140058438 f   libconcrt:rtlocks.obj
 0001:00057490       ?_Acquire@_ReentrantPPLLock@details@Concurrency@@QEAAXPEAX@Z 0000000140058490 f   libconcrt:rtlocks.obj
 0001:000574e4       ?_AcquireRead@_ReaderWriterLock@details@Concurrency@@QEAAXXZ 00000001400584e4 f   libconcrt:rtlocks.obj
 0001:00057524       ?_AcquireWrite@_ReaderWriterLock@details@Concurrency@@QEAAXXZ 0000000140058524 f   libconcrt:rtlocks.obj
 0001:00057560       ?_Acquire_lock@critical_section@Concurrency@@QEAA_NPEAX_N@Z 0000000140058560 f   libconcrt:rtlocks.obj
 0001:00057674       ?_Acquire_lock@reader_writer_lock@Concurrency@@QEAAXPEAX_N@Z 0000000140058674 f   libconcrt:rtlocks.obj
 0001:00057748       ?_FlushWriteOwners@_ReaderWriterLock@details@Concurrency@@QEAAXXZ 0000000140058748 f   libconcrt:rtlocks.obj
 0001:00057768       ?_Flush_current_owner@critical_section@Concurrency@@QEAAXXZ 0000000140058768 f   libconcrt:rtlocks.obj
 0001:00057790       ?_Get_reader_convoy@reader_writer_lock@Concurrency@@AEAAPEAXXZ 0000000140058790 f   libconcrt:rtlocks.obj
 0001:000577ac       ?_Initialize@_SpinCount@details@Concurrency@@SAXXZ 00000001400587ac f   libconcrt:rtlocks.obj
 0001:000577d0       ?_Release@_NonReentrantPPLLock@details@Concurrency@@QEAAXXZ 00000001400587d0 f   libconcrt:rtlocks.obj
 0001:000577d8       ?_Release@_ReentrantLock@details@Concurrency@@QEAAXXZ 00000001400587d8 f   libconcrt:rtlocks.obj
 0001:0005780c       ?_Release@_ReentrantPPLLock@details@Concurrency@@QEAAXXZ 000000014005880c f   libconcrt:rtlocks.obj
 0001:00057828       ?_ReleaseRead@_ReaderWriterLock@details@Concurrency@@QEAAXXZ 0000000140058828 f   libconcrt:rtlocks.obj
 0001:0005782c       ?_ReleaseWrite@_ReaderWriterLock@details@Concurrency@@QEAAXXZ 000000014005882c f   libconcrt:rtlocks.obj
 0001:00057838       ?_Remove_last_writer@reader_writer_lock@Concurrency@@AEAAXPEAX@Z 0000000140058838 f   libconcrt:rtlocks.obj
 0001:000578d4       ?_Set_next_writer@reader_writer_lock@Concurrency@@AEAA_NPEAX@Z 00000001400588d4 f   libconcrt:rtlocks.obj
 0001:00057914       ?_Switch_to_active@critical_section@Concurrency@@AEAAXPEAX@Z 0000000140058914 f   libconcrt:rtlocks.obj
 0001:0005799c       ?_Switch_to_active@reader_writer_lock@Concurrency@@AEAAXPEAX@Z 000000014005899c f   libconcrt:rtlocks.obj
 0001:00057a24       ?_TryAcquire@_NonReentrantBlockingLock@details@Concurrency@@QEAA_NXZ 0000000140058a24 f   libconcrt:rtlocks.obj
 0001:00057a38       ?_TryAcquire@_ReentrantBlockingLock@details@Concurrency@@QEAA_NXZ 0000000140058a38 f   libconcrt:rtlocks.obj
 0001:00057a4c       ?_TryAcquire@_ReentrantLock@details@Concurrency@@QEAA_NXZ 0000000140058a4c f   libconcrt:rtlocks.obj
 0001:00057a7c       ?_TryAcquireWrite@_ReaderWriterLock@details@Concurrency@@QEAA_NXZ 0000000140058a7c f   libconcrt:rtlocks.obj
 0001:00057a94       ?_Unlock_reader@reader_writer_lock@Concurrency@@AEAAXXZ 0000000140058a94 f   libconcrt:rtlocks.obj
 0001:00057ad8       ?_Unlock_writer@reader_writer_lock@Concurrency@@AEAAXXZ 0000000140058ad8 f   libconcrt:rtlocks.obj
 0001:00057b9c       ?_Value@_SpinCount@details@Concurrency@@SAIXZ 0000000140058b9c f   libconcrt:rtlocks.obj
 0001:00057ba4       ?_WaitEquals@_ReaderWriterLock@details@Concurrency@@CAXAEDJJJ@Z 0000000140058ba4 f   libconcrt:rtlocks.obj
 0001:00057c18       ?lock@critical_section@Concurrency@@QEAAXXZ 0000000140058c18 f   libconcrt:rtlocks.obj
 0001:00057c54       ?lock@reader_writer_lock@Concurrency@@QEAAXXZ 0000000140058c54 f   libconcrt:rtlocks.obj
 0001:00057c90       ?lock_read@reader_writer_lock@Concurrency@@QEAAXXZ 0000000140058c90 f   libconcrt:rtlocks.obj
 0001:00057de4       ?try_lock@critical_section@Concurrency@@QEAA_NXZ 0000000140058de4 f   libconcrt:rtlocks.obj
 0001:00057e44       ?try_lock@reader_writer_lock@Concurrency@@QEAA_NXZ 0000000140058e44 f   libconcrt:rtlocks.obj
 0001:00057ec0       ?try_lock_for@critical_section@Concurrency@@QEAA_NI@Z 0000000140058ec0 f   libconcrt:rtlocks.obj
 0001:00057f80       ?try_lock_read@reader_writer_lock@Concurrency@@QEAA_NXZ 0000000140058f80 f   libconcrt:rtlocks.obj
 0001:00057f9c       ?unlock@critical_section@Concurrency@@QEAAXXZ 0000000140058f9c f   libconcrt:rtlocks.obj
 0001:000580c0       ?unlock@reader_writer_lock@Concurrency@@QEAAXXZ 00000001400590c0 f   libconcrt:rtlocks.obj
 0001:000580e8       ??0scheduler_resource_allocation_error@Concurrency@@QEAA@AEBV01@@Z 00000001400590e8 f i libconcrt:Platform.obj
 0001:00058138       ??1DefaultWaiterPool@platform@details@Concurrency@@QEAA@XZ 0000000140059138 f i libconcrt:Platform.obj
 0001:000581a0       ??1WaiterThreadPool@platform@details@Concurrency@@QEAA@XZ 00000001400591a0 f i libconcrt:Platform.obj
 0001:000581e8       ??_GWaiterThreadPool@platform@details@Concurrency@@QEAAPEAXI@Z 00000001400591e8 f i libconcrt:Platform.obj
 0001:00058254       ??_Escheduler_resource_allocation_error@Concurrency@@UEAAPEAXI@Z 0000000140059254 f i libconcrt:Platform.obj
 0001:00058254       ??_Gscheduler_resource_allocation_error@Concurrency@@UEAAPEAXI@Z 0000000140059254 f i libconcrt:Platform.obj
 0001:00058298       ?InitializeSystemFunctionPointers@platform@details@Concurrency@@YAXXZ 0000000140059298 f   libconcrt:Platform.obj
 0001:0005839c       ?__ChangeTimerQueueTimer@platform@details@Concurrency@@YAHPEAX0KK@Z 000000014005939c f   libconcrt:Platform.obj
 0001:000583a4       ?__CloseThreadHandle@platform@details@Concurrency@@YAXPEAX@Z 00000001400593a4 f   libconcrt:Platform.obj
 0001:000583ac       ?__CreateAutoResetEvent@platform@details@Concurrency@@YAPEAX_N@Z 00000001400593ac f   libconcrt:Platform.obj
 0001:00058400       ?__CreateManualResetEvent@platform@details@Concurrency@@YAPEAX_N@Z 0000000140059400 f   libconcrt:Platform.obj
 0001:0005845c       ?__CreateThread@platform@details@Concurrency@@YAPEAXPEAU_SECURITY_ATTRIBUTES@@_KP6AKPEAX@Z2KPEAK@Z 000000014005945c f   libconcrt:Platform.obj
 0001:00058464       ?__CreateTimerQueueTimer@platform@details@Concurrency@@YAHPEAPEAXPEAXP6AX1E@Z1KKK@Z 0000000140059464 f   libconcrt:Platform.obj
 0001:0005846c       ?__DeleteTimerQueueTimer@platform@details@Concurrency@@YAXPEAX00@Z 000000014005946c f   libconcrt:Platform.obj
 0001:000584cc       ?__GetCurrentProcessorNumberEx@platform@details@Concurrency@@YAXPEAU_PROCESSOR_NUMBER@@@Z 00000001400594cc f   libconcrt:Platform.obj
 0001:000584f0       ?__GetLogicalProcessorInformation@platform@details@Concurrency@@YAPEAU_SYSTEM_LOGICAL_PROCESSOR_INFORMATION@@PEAK@Z 00000001400594f0 f   libconcrt:Platform.obj
 0001:000585bc       ?__GetLogicalProcessorInformationEx@platform@details@Concurrency@@YAPEAU_SYSTEM_LOGICAL_PROCESSOR_INFORMATION_EX@@W4_LOGICAL_PROCESSOR_RELATIONSHIP@@PEAK@Z 00000001400595bc f   libconcrt:Platform.obj
 0001:00058704       ?__GetNumaHighestNodeNumber@platform@details@Concurrency@@YAKXZ 0000000140059704 f   libconcrt:Platform.obj
 0001:00058750       ?__GetThreadGroupAffinity@platform@details@Concurrency@@YAHPEAXPEAU_GROUP_AFFINITY@@@Z 0000000140059750 f   libconcrt:Platform.obj
 0001:000587bc       ?__GetThreadPriority@platform@details@Concurrency@@YAHPEAX@Z 00000001400597bc f   libconcrt:Platform.obj
 0001:000587c4       ?__GetTickCount64@platform@details@Concurrency@@YA_KXZ 00000001400597c4 f   libconcrt:Platform.obj
 0001:000587cc       ?__InitializeCriticalSectionEx@platform@details@Concurrency@@YAHPEAU_RTL_CRITICAL_SECTION@@K@Z 00000001400597cc f   libconcrt:Platform.obj
 0001:000587d4       ?__RegisterWaitForSingleObject@platform@details@Concurrency@@YAPEAXPEAXP6AX0E@Z0@Z 00000001400597d4 f   libconcrt:Platform.obj
 0001:00058838       ?__SetThreadGroupAffinity@platform@details@Concurrency@@YAHPEAXPEBU_GROUP_AFFINITY@@@Z 0000000140059838 f   libconcrt:Platform.obj
 0001:0005888c       ?__SetThreadPriority@platform@details@Concurrency@@YAXPEAXH@Z 000000014005988c f   libconcrt:Platform.obj
 0001:000588d0       ?__SignalObjectAndWait@platform@details@Concurrency@@YAKPEAX0KH@Z 00000001400598d0 f   libconcrt:Platform.obj
 0001:000588d8       ?__Sleep@platform@details@Concurrency@@YAXK@Z 00000001400598d8 f   libconcrt:Platform.obj
 0001:000588e0       ?__TlsAlloc@platform@details@Concurrency@@YAKXZ 00000001400598e0 f   libconcrt:Platform.obj
 0001:00058924       ?__TlsFree@platform@details@Concurrency@@YAXK@Z 0000000140059924 f   libconcrt:Platform.obj
 0001:0005892c       ?__TlsGetValue@platform@details@Concurrency@@YAPEAXK@Z 000000014005992c f   libconcrt:Platform.obj
 0001:00058934       ?__TlsSetValue@platform@details@Concurrency@@YAXKPEAX@Z 0000000140059934 f   libconcrt:Platform.obj
 0001:00058978       ?__UnregisterWait@platform@details@Concurrency@@YAXPEAX@Z 0000000140059978 f   libconcrt:Platform.obj
 0001:00058980       ?__WaitForThread@platform@details@Concurrency@@YAKPEAXK@Z 0000000140059980 f   libconcrt:Platform.obj
 0001:0005898c       ?notify@WaiterThread@platform@details@Concurrency@@AEAAX_N@Z 000000014005998c f i libconcrt:Platform.obj
 0001:000589c4       ?stop@WaiterThread@platform@details@Concurrency@@QEAAXXZ 00000001400599c4 f i libconcrt:Platform.obj
 0001:000589f8       HRESULT_FROM_WIN32         00000001400599f8 f i libconcrt:Platform.obj
 0001:00058a08       _concrt_static_cleanup     0000000140059a08 f   libconcrt:utils.obj
 0001:00058a20       ??$ConcRT_FillBuffer@$0EAB@@details@Concurrency@@YAXAEAY0EAB@_WPEB_WPEAD@Z 0000000140059a20 f i libconcrt:utils.obj
 0001:00058b60       ??0_SpinLock@details@Concurrency@@QEAA@AECJ@Z 0000000140059b60 f   libconcrt:utils.obj
 0001:00058bb4       ??1_SpinLock@details@Concurrency@@QEAA@XZ 0000000140059bb4 f   libconcrt:utils.obj
 0001:00058bbc       ?DecodePointer@Security@details@Concurrency@@SAPEAXPEAX@Z 0000000140059bbc f   libconcrt:utils.obj
 0001:00058bbc       ?EncodePointer@Security@details@Concurrency@@SAPEAXPEAX@Z 0000000140059bbc f   libconcrt:utils.obj
 0001:00058bc8       ?DeleteAsyncTimerAndUnloadLibrary@details@Concurrency@@YAXPEAU_TP_TIMER@@@Z 0000000140059bc8 f   libconcrt:utils.obj
 0001:00058c10       ?FreeLibraryAndDestroyThread@details@Concurrency@@YAXK@Z 0000000140059c10 f   libconcrt:utils.obj
 0001:00058c48       ?InitializeCookie@Security@details@Concurrency@@SA_KXZ 0000000140059c48 f   libconcrt:utils.obj
 0001:00058cac       ?LoadLibraryAndCreateThread@details@Concurrency@@YAPEAXPEAU_SECURITY_ATTRIBUTES@@_KP6AKPEAX@Z2KPEAK@Z 0000000140059cac f   libconcrt:utils.obj
 0001:00058cfc       ?Log2@details@Concurrency@@YAK_K@Z 0000000140059cfc f   libconcrt:utils.obj
 0001:00058d04       ?ReferenceLoadLibrary@details@Concurrency@@YAXXZ 0000000140059d04 f   libconcrt:utils.obj
 0001:00058dac       ?ReferenceStaticOneShot@SchedulerBase@details@Concurrency@@SAJXZ 0000000140059dac f i libconcrt:utils.obj
 0001:00058dbc       ?RegisterAsyncTimerAndLoadLibrary@details@Concurrency@@YAPEAU_TP_TIMER@@KP6AXPEAU_TP_CALLBACK_INSTANCE@@PEAXPEAU3@@Z1_N@Z 0000000140059dbc f   libconcrt:utils.obj
 0001:00058e30       ?RegisterAsyncWaitAndLoadLibrary@details@Concurrency@@YAPEAU_TP_WAIT@@PEAXP6AXPEAU_TP_CALLBACK_INSTANCE@@0PEAU3@K@Z0@Z 0000000140059e30 f   libconcrt:utils.obj
 0001:00058e84       ?UnRegisterAsyncTimerAndUnloadLibrary@details@Concurrency@@YAXPEAU_TP_CALLBACK_INSTANCE@@PEAU_TP_TIMER@@@Z 0000000140059e84 f   libconcrt:utils.obj
 0001:00058ed0       ?UnRegisterAsyncWaitAndUnloadLibrary@details@Concurrency@@YAXPEAU_TP_CALLBACK_INSTANCE@@PEAU_TP_WAIT@@@Z 0000000140059ed0 f   libconcrt:utils.obj
 0001:00058f1c       ?_Acquire@_HyperNonReentrantLock@details@Concurrency@@QEAAXXZ 0000000140059f1c f   libconcrt:utils.obj
 0001:00058f1c       ?_Acquire@_CriticalNonReentrantLock@details@Concurrency@@QEAAXXZ 0000000140059f1c f   libconcrt:utils.obj
 0001:00058f64       ?_Acquire@_NonReentrantLock@details@Concurrency@@QEAAXXZ 0000000140059f64 f i libconcrt:utils.obj
 0001:00058fa4       ?_ConcRT_CoreAssert@details@Concurrency@@YAXPEBD0H@Z 0000000140059fa4 f   libconcrt:utils.obj
 0001:00058fa8       ?_ConcRT_Trace@details@Concurrency@@YAXHPEB_WZZ 0000000140059fa8 f   libconcrt:utils.obj
 0001:00059068       ?_GetConcurrency@details@Concurrency@@YAIXZ 000000014005a068 f   libconcrt:utils.obj
 0001:00059068       ?GetProcessorCount@Concurrency@@YAIXZ 000000014005a068 f   libconcrt:ResourceManager.obj
 0001:00059070       ?_Release@_CriticalNonReentrantLock@details@Concurrency@@QEAAXXZ 000000014005a070 f   libconcrt:utils.obj
 0001:00059070       ?_Release@_HyperNonReentrantLock@details@Concurrency@@QEAAXXZ 000000014005a070 f   libconcrt:utils.obj
 0001:0005907c       ?_Release@_NonReentrantLock@details@Concurrency@@QEAAXXZ 000000014005a07c f i libconcrt:utils.obj
 0001:00059084       ?_Sleep0@details@Concurrency@@YAXXZ 000000014005a084 f   libconcrt:utils.obj
 0001:0005908c       ?_TryAcquire@_CriticalNonReentrantLock@details@Concurrency@@QEAA_NXZ 000000014005a08c f   libconcrt:utils.obj
 0001:000590c4       ?_TryAcquire@_HyperNonReentrantLock@details@Concurrency@@QEAA_NXZ 000000014005a0c4 f   libconcrt:utils.obj
 0001:000590fc       ?_TryAcquire@_NonReentrantLock@details@Concurrency@@QEAA_NXZ 000000014005a0fc f i libconcrt:utils.obj
 0001:00059114       ?_UnderlyingYield@details@Concurrency@@YAXXZ 000000014005a114 f   libconcrt:utils.obj
 0001:00059144       _vfwprintf_l               000000014005a144 f i libconcrt:utils.obj
 0001:00059194       _vswprintf_s_l             000000014005a194 f i libconcrt:utils.obj
 0001:000591f8       fwprintf                   000000014005a1f8 f i libconcrt:utils.obj
 0001:0005923c       swprintf_s                 000000014005a23c f i libconcrt:utils.obj
 0001:00059290       vswprintf_s                000000014005a290 f i libconcrt:utils.obj
 0001:000592f0       ?Block@Context@Concurrency@@SAXXZ 000000014005a2f0 f   libconcrt:Context.obj
 0001:00059330       ?CurrentContext@Context@Concurrency@@SAPEAV12@XZ 000000014005a330 f   libconcrt:Context.obj
 0001:0005935c       ?GetExecutingCollection@ContextBase@details@Concurrency@@QEAAPEAV_TaskCollectionBase@23@XZ 000000014005a35c f i libconcrt:Context.obj
 0001:00059364       ?Id@Context@Concurrency@@SAIXZ 000000014005a364 f   libconcrt:Context.obj
 0001:00059394       ?IsCurrentTaskCollectionCanceling@Context@Concurrency@@SA_NXZ 000000014005a394 f   libconcrt:Context.obj
 0001:000593ec       ?Oversubscribe@Context@Concurrency@@SAX_N@Z 000000014005a3ec f   libconcrt:Context.obj
 0001:00059430       ?ScheduleGroupId@Context@Concurrency@@SAIXZ 000000014005a430 f   libconcrt:Context.obj
 0001:00059460       ?VirtualProcessorId@Context@Concurrency@@SAIXZ 000000014005a460 f   libconcrt:Context.obj
 0001:00059490       ?Yield@Context@Concurrency@@SAXXZ 000000014005a490 f   libconcrt:Context.obj
 0001:000594d0       ?_CurrentContext@_Context@details@Concurrency@@SA?AV123@XZ 000000014005a4d0 f   libconcrt:Context.obj
 0001:00059508       ?_IsStructured@_TaskCollectionBase@details@Concurrency@@QEAA_NXZ 000000014005a508 f i libconcrt:Context.obj
 0001:00059514       ?_Reference@_Scheduler@details@Concurrency@@QEAAIXZ 000000014005a514 f   libconcrt:SchedulerBase.obj
 0001:00059514       ?_IsSynchronouslyBlocked@_Context@details@Concurrency@@QEBA_NXZ 000000014005a514 f   libconcrt:Context.obj
 0001:00059528       ?_Oversubscribe@_Context@details@Concurrency@@SAX_N@Z 000000014005a528 f   libconcrt:Context.obj
 0001:0005956c       ?_SpinYield@Context@Concurrency@@SAXXZ 000000014005a56c f   libconcrt:Context.obj
 0001:000595ac       ?_Yield@_Context@details@Concurrency@@SAXXZ 000000014005a5ac f   libconcrt:Context.obj
 0001:000595ec       ??0?$List@VExecutionResource@details@Concurrency@@VCount@CollectionTypes@23@@details@Concurrency@@QEAA@XZ 000000014005a5ec f i libconcrt:ResourceManager.obj
 0001:000595ec       ??0?$List@VSchedulerProxy@details@Concurrency@@VCount@CollectionTypes@23@@details@Concurrency@@QEAA@XZ 000000014005a5ec f i libconcrt:ResourceManager.obj
 0001:000595ec       ??0QuickBitSet@details@Concurrency@@QEAA@XZ 000000014005a5ec f i libconcrt:SchedulerBase.obj
 0001:000595f8       ??0AffinityRestriction@ResourceManager@details@Concurrency@@QEAA@GPEAUHardwareAffinity@23@@Z 000000014005a5f8 f i libconcrt:ResourceManager.obj
 0001:00059604       ??0Count@CollectionTypes@details@Concurrency@@QEAA@XZ 000000014005a604 f i libconcrt:ResourceManager.obj
 0001:00059604       ??0SafePointMarker@details@Concurrency@@QEAA@XZ 000000014005a604 f i libconcrt:VirtualProcessor.obj
 0001:00059604       ??0ClaimTicket@VirtualProcessor@details@Concurrency@@QEAA@XZ 000000014005a604 f i libconcrt:SchedulerBase.obj
 0001:0005960c       ??0HardwareAffinity@details@Concurrency@@QEAA@AEBU012@@Z 000000014005a60c f i libconcrt:ResourceManager.obj
 0001:00059618       ??0HardwareAffinity@details@Concurrency@@QEAA@G_K@Z 000000014005a618 f i libconcrt:ResourceManager.obj
 0001:0005962c       ??0HardwareAffinity@details@Concurrency@@QEAA@PEAX@Z 000000014005a62c f   libconcrt:ResourceManager.obj
 0001:00059658       ??0HardwareAffinity@details@Concurrency@@QEAA@XZ 000000014005a658 f i libconcrt:ResourceManager.obj
 0001:00059668       ??0HardwareAffinity@details@Concurrency@@QEAA@_K@Z 000000014005a668 f i libconcrt:ResourceManager.obj
 0001:00059678       ??0IResourceManager@Concurrency@@QEAA@XZ 000000014005a678 f i libconcrt:ResourceManager.obj
 0001:00059688       ??0ITopologyExecutionResource@Concurrency@@QEAA@XZ 000000014005a688 f i libconcrt:ResourceManager.obj
 0001:00059698       ??0ITopologyNode@Concurrency@@QEAA@XZ 000000014005a698 f i libconcrt:ResourceManager.obj
 0001:000596a8       ??0ResourceManager@details@Concurrency@@AEAA@XZ 000000014005a6a8 f   libconcrt:ResourceManager.obj
 0001:000597c8       ??0SchedulerCore@details@Concurrency@@QEAA@XZ 000000014005a7c8 f i libconcrt:ResourceManager.obj
 0001:000597d8       ??0TopologyObject@GlobalCore@details@Concurrency@@QEAA@PEAU123@@Z 000000014005a7d8 f i libconcrt:ResourceManager.obj
 0001:000597ec       ??0TopologyObject@GlobalNode@details@Concurrency@@QEAA@PEAU123@@Z 000000014005a7ec f i libconcrt:ResourceManager.obj
 0001:00059800       ??0_Scoped_lock@_NonReentrantBlockingLock@details@Concurrency@@QEAA@AEAV123@@Z 000000014005a800 f i libconcrt:ResourceManager.obj
 0001:00059820       ??0_Scoped_lock@_NonReentrantLock@details@Concurrency@@QEAA@AEAV123@@Z 000000014005a820 f i libconcrt:ResourceManager.obj
 0001:00059874       ??0invalid_operation@Concurrency@@QEAA@AEBV01@@Z 000000014005a874 f i libconcrt:ResourceManager.obj
 0001:000598b4       ??0invalid_operation@Concurrency@@QEAA@XZ 000000014005a8b4 f i libconcrt:ResourceManager.obj
 0001:000598cc       ??0unsupported_os@Concurrency@@QEAA@AEBV01@@Z 000000014005a8cc f i libconcrt:ResourceManager.obj
 0001:0005990c       ??1AffinityRestriction@ResourceManager@details@Concurrency@@QEAA@XZ 000000014005a90c f i libconcrt:ResourceManager.obj
 0001:0005991c       ??1GlobalNode@details@Concurrency@@QEAA@XZ 000000014005a91c f i libconcrt:ResourceManager.obj
 0001:0005992c       ??1ResourceManager@details@Concurrency@@AEAA@XZ 000000014005a92c f   libconcrt:ResourceManager.obj
 0001:00059a64       ??1_Scoped_lock@_NonReentrantBlockingLock@details@Concurrency@@QEAA@XZ 000000014005aa64 f i libconcrt:ResourceManager.obj
 0001:00059a64       ??1_Scoped_lock@_ReentrantBlockingLock@details@Concurrency@@QEAA@XZ 000000014005aa64 f i libconcrt:SchedulerProxy.obj
 0001:00059a80       ??1_Scoped_lock@_NonReentrantLock@details@Concurrency@@QEAA@XZ 000000014005aa80 f i libconcrt:ResourceManager.obj
 0001:00059a8c       ??4HardwareAffinity@details@Concurrency@@QEAAAEAU012@AEBU012@@Z 000000014005aa8c f i libconcrt:ResourceManager.obj
 0001:00059aa0       ??_EGlobalNode@details@Concurrency@@QEAAPEAXI@Z 000000014005aaa0 f i libconcrt:ResourceManager.obj
 0001:00059b34       ??_GAffinityRestriction@ResourceManager@details@Concurrency@@QEAAPEAXI@Z 000000014005ab34 f i libconcrt:ResourceManager.obj
 0001:00059b74       ??_GResourceManager@details@Concurrency@@AEAAPEAXI@Z 000000014005ab74 f i libconcrt:ResourceManager.obj
 0001:00059ba8       ??_Ginvalid_operation@Concurrency@@UEAAPEAXI@Z 000000014005aba8 f i libconcrt:ResourceManager.obj
 0001:00059ba8       ??_Einvalid_operation@Concurrency@@UEAAPEAXI@Z 000000014005aba8 f i libconcrt:ResourceManager.obj
 0001:00059bec       ??_Gunsupported_os@Concurrency@@UEAAPEAXI@Z 000000014005abec f i libconcrt:ResourceManager.obj
 0001:00059bec       ??_Eunsupported_os@Concurrency@@UEAAPEAXI@Z 000000014005abec f i libconcrt:ResourceManager.obj
 0001:00059c30       ?AddTail@?$List@VSchedulerProxy@details@Concurrency@@VCount@CollectionTypes@23@@details@Concurrency@@QEAAXPEAVSchedulerProxy@23@@Z 000000014005ac30 f i libconcrt:ResourceManager.obj
 0001:00059c74       ?AdjustDynamicAllocation@ResourceManager@details@Concurrency@@AEAAIIII@Z 000000014005ac74 f   libconcrt:ResourceManager.obj
 0001:00059d48       ?ApplyAffinityLimits@AffinityRestriction@ResourceManager@details@Concurrency@@QEAAXPEAU_GROUP_AFFINITY@@@Z 000000014005ad48 f i libconcrt:ResourceManager.obj
 0001:00059d90       ?ApplyAffinityRestrictions@ResourceManager@details@Concurrency@@CAXPEAU_GROUP_AFFINITY@@@Z 000000014005ad90 f   libconcrt:ResourceManager.obj
 0001:00059e4c       ?ApplyAffinityRestrictions@ResourceManager@details@Concurrency@@CAXPEA_K@Z 000000014005ae4c f   libconcrt:ResourceManager.obj
 0001:00059e7c       ?ApplyTo@HardwareAffinity@details@Concurrency@@QEAAXPEAX@Z 000000014005ae7c f   libconcrt:ResourceManager.obj
 0001:00059e8c       ?CaptureProcessAffinity@ResourceManager@details@Concurrency@@CAXXZ 000000014005ae8c f   libconcrt:ResourceManager.obj
 0001:0005a014       ?CleanupTopologyInformation@ResourceManager@details@Concurrency@@CAXXZ 000000014005b014 f   libconcrt:ResourceManager.obj
 0001:0005a038       ?CommitStolenCores@ResourceManager@details@Concurrency@@AEAAXPEAVSchedulerProxy@23@@Z 000000014005b038 f   libconcrt:ResourceManager.obj
 0001:0005a15c       ?ComputeDesiredHWThreadsWithExternalThread@SchedulerProxy@details@Concurrency@@QEBAIXZ 000000014005b15c f i libconcrt:ResourceManager.obj
 0001:0005a184       ?ComputeMinHWThreadsWithExternalThread@SchedulerProxy@details@Concurrency@@QEBAIXZ 000000014005b184 f i libconcrt:ResourceManager.obj
 0001:0005a1c8       ?CreateAllocatedNodeData@ResourceManager@details@Concurrency@@QEAAPEAUSchedulerNode@23@XZ 000000014005b1c8 f   libconcrt:ResourceManager.obj
 0001:0005a328       ?CreateDynamicRMWorker@ResourceManager@details@Concurrency@@AEAAXXZ 000000014005b328 f   libconcrt:ResourceManager.obj
 0001:0005a3a0       ?CreateResourceManager@Concurrency@@YAPEAUIResourceManager@1@XZ 000000014005b3a0 f   libconcrt:ResourceManager.obj
 0001:0005a3a8       ?CreateSchedulerProxy@ResourceManager@details@Concurrency@@AEAAPEAVSchedulerProxy@23@PEAUIScheduler@3@@Z 000000014005b3a8 f   libconcrt:ResourceManager.obj
 0001:0005a424       ?CreateSingleton@ResourceManager@details@Concurrency@@SAPEAV123@XZ 000000014005b424 f   libconcrt:ResourceManager.obj
 0001:0005a510       ?CurrentSubscriptionLevel@ResourceManager@details@Concurrency@@QEAAIII@Z 000000014005b510 f   libconcrt:ResourceManager.obj
 0001:0005a5bc       ?ReleaseBeacon@CancellationBeaconStack@ContextBase@details@Concurrency@@QEAAXXZ 000000014005b5bc f i libconcrt:ContextBase.obj
 0001:0005a5bc       ?Decrement@Count@CollectionTypes@details@Concurrency@@QEAAXXZ 000000014005b5bc f i libconcrt:ResourceManager.obj
 0001:0005a5c0       ?DesiredHWThreads@SchedulerProxy@details@Concurrency@@QEBAIXZ 000000014005b5c0 f i libconcrt:ResourceManager.obj
 0001:0005a5dc       ?DestroyAllocatedNodeData@ResourceManager@details@Concurrency@@QEAAXPEAUSchedulerNode@23@@Z 000000014005b5dc f   libconcrt:ResourceManager.obj
 0001:0005a628       ?DetermineTopology@ResourceManager@details@Concurrency@@AEAAXXZ 000000014005b628 f   libconcrt:ResourceManager.obj
 0001:0005aa04       ?DiscardExistingSchedulerStatistics@ResourceManager@details@Concurrency@@AEAAXXZ 000000014005ba04 f   libconcrt:ResourceManager.obj
 0001:0005aa7c       ?DistributeCoresToSurvivingScheduler@ResourceManager@details@Concurrency@@AEAA_NXZ 000000014005ba7c f   libconcrt:ResourceManager.obj
 0001:0005ac80       ?DistributeExclusiveCores@ResourceManager@details@Concurrency@@AEAAXIIIII@Z 000000014005bc80 f   libconcrt:ResourceManager.obj
 0001:0005ae1c       ?DistributeIdleCores@ResourceManager@details@Concurrency@@AEAAXII@Z 000000014005be1c f   libconcrt:ResourceManager.obj
 0001:0005aff4       ?DoCoreMigration@ResourceManager@details@Concurrency@@AEAAXXZ 000000014005bff4 f   libconcrt:ResourceManager.obj
 0001:0005b274       ?DoHillClimbing@SchedulerProxy@details@Concurrency@@QEAAIIIII@Z 000000014005c274 f i libconcrt:ResourceManager.obj
 0001:0005b280       ?DynamicAssignCores@ResourceManager@details@Concurrency@@AEAAXPEAVSchedulerProxy@23@II_N@Z 000000014005c280 f   libconcrt:ResourceManager.obj
 0001:0005b32c       ?DynamicMigrateCores@ResourceManager@details@Concurrency@@AEAAXPEAUDynamicAllocationData@23@PEAVSchedulerProxy@23@II@Z 000000014005c32c f   libconcrt:ResourceManager.obj
 0001:0005b500       ?DynamicRMThreadProc@ResourceManager@details@Concurrency@@CAKPEAX@Z 000000014005c500 f   libconcrt:ResourceManager.obj
 0001:0005b518       ?DynamicResourceManager@ResourceManager@details@Concurrency@@AEAAXXZ 000000014005c518 f   libconcrt:ResourceManager.obj
 0001:0005b630       ?Empty@?$List@VSchedulerProxy@details@Concurrency@@VCount@CollectionTypes@23@@details@Concurrency@@QEBA_NXZ 000000014005c630 f i libconcrt:ResourceManager.obj
 0001:0005b63c       ?FindBestFitExclusiveAllocation@ResourceManager@details@Concurrency@@AEAAIAEAI0PEAUDynamicAllocationData@23@II@Z 000000014005c63c f   libconcrt:ResourceManager.obj
 0001:0005ba04       ?FindBestFitIdleAllocation@ResourceManager@details@Concurrency@@AEAAIIPEAUDynamicAllocationData@23@I@Z 000000014005ca04 f   libconcrt:ResourceManager.obj
 0001:0005bb28       ?FindCoreForPartiallyFilledNode@ResourceManager@details@Concurrency@@AEAA_NAEAI0PEAUDynamicAllocationData@23@I@Z 000000014005cb28 f   libconcrt:ResourceManager.obj
 0001:0005bc80       ?FindGroupAffinity@AffinityRestriction@ResourceManager@details@Concurrency@@QEAAPEAUHardwareAffinity@34@G@Z 000000014005cc80 f i libconcrt:ResourceManager.obj
 0001:0005bcb0       ?First@?$List@VSchedulerProxy@details@Concurrency@@VCount@CollectionTypes@23@@details@Concurrency@@QEBAPEAVSchedulerProxy@23@XZ 000000014005ccb0 f i libconcrt:ResourceManager.obj
 0001:0005bcc0       ?FlushStoreBuffers@ResourceManager@details@Concurrency@@QEAAXXZ 000000014005ccc0 f   libconcrt:ResourceManager.obj
 0001:0005bcfc       ?GetNumberOfVirtualProcessors@SchedulerBase@details@Concurrency@@UEBAIXZ 000000014005ccfc f i libconcrt:SchedulerBase.obj
 0001:0005bcfc       ?GetAvailableNodeCount@ResourceManager@details@Concurrency@@UEBAIXZ 000000014005ccfc f i libconcrt:ResourceManager.obj
 0001:0005bd00       ?GetCoreCount@ResourceManager@details@Concurrency@@SAIXZ 000000014005cd00 f   libconcrt:ResourceManager.obj
 0001:0005bd84       ?GetCurrentNodeAndCore@ResourceManager@details@Concurrency@@QEAAIPEAI@Z 000000014005cd84 f   libconcrt:ResourceManager.obj
 0001:0005bec4       ?GetDynamicAllocationData@SchedulerProxy@details@Concurrency@@QEAAPEAUDynamicAllocationData@23@XZ 000000014005cec4 f i libconcrt:ResourceManager.obj
 0001:0005bec4       ?GetStaticAllocationData@SchedulerProxy@details@Concurrency@@QEAAPEAUStaticAllocationData@23@XZ 000000014005cec4 f i libconcrt:ResourceManager.obj
 0001:0005becc       ?GetExecutionContextId@ResourceManager@details@Concurrency@@SAIXZ 000000014005cecc f   libconcrt:ResourceManager.obj
 0001:0005becc       ?GetExecutionContextId@Concurrency@@YAIXZ 000000014005cecc f   libconcrt:ResourceManager.obj
 0001:0005bedc       ?GetExecutionResourceCount@TopologyObject@GlobalNode@details@Concurrency@@UEBAIXZ 000000014005cedc f i libconcrt:ResourceManager.obj
 0001:0005bee4       ?GetFirstExecutionResource@TopologyObject@GlobalNode@details@Concurrency@@UEBAPEAUITopologyExecutionResource@4@XZ 000000014005cee4 f i libconcrt:ResourceManager.obj
 0001:0005bef4       ?GetFirstNode@ResourceManager@details@Concurrency@@UEBAPEAUITopologyNode@3@XZ 000000014005cef4 f i libconcrt:ResourceManager.obj
 0001:0005bf00       ?GetGroup@HardwareAffinity@details@Concurrency@@QEAAGXZ 000000014005cf00 f i libconcrt:ResourceManager.obj
 0001:0005bf08       ?GetId@TopologyObject@GlobalCore@details@Concurrency@@UEBAIXZ 000000014005cf08 f i libconcrt:ResourceManager.obj
 0001:0005bf10       ?GetId@TopologyObject@GlobalNode@details@Concurrency@@UEBAIXZ 000000014005cf10 f i libconcrt:ResourceManager.obj
 0001:0005bf18       ?GetNext@TopologyObject@GlobalCore@details@Concurrency@@UEBAPEAUITopologyExecutionResource@4@XZ 000000014005cf18 f   libconcrt:ResourceManager.obj
 0001:0005bf6c       ?GetNext@TopologyObject@GlobalNode@details@Concurrency@@UEBAPEAUITopologyNode@4@XZ 000000014005cf6c f   libconcrt:ResourceManager.obj
 0001:0005bfa4       ?GetNextGlobalCore@GlobalNode@details@Concurrency@@QEAAPEAUGlobalCore@23@PEBU423@@Z 000000014005cfa4 f i libconcrt:ResourceManager.obj
 0001:0005bfdc       ?GetNextGlobalNode@ResourceManager@details@Concurrency@@QEAAPEAUGlobalNode@23@PEBU423@@Z 000000014005cfdc f i libconcrt:ResourceManager.obj
 0001:0005bffc       ?GetNodeCount@ResourceManager@details@Concurrency@@SAIXZ 000000014005cffc f   libconcrt:ResourceManager.obj
 0001:0005c080       ?GetExecutionResourceId@VirtualProcessor@details@Concurrency@@QEBAIXZ 000000014005d080 f i libconcrt:SchedulingNode.obj
 0001:0005c080       ?GetNumAllocatedCores@SchedulerProxy@details@Concurrency@@QEBAIXZ 000000014005d080 f i libconcrt:ResourceManager.obj
 0001:0005c088       ?GetNumBorrowedCores@SchedulerProxy@details@Concurrency@@QEBAIXZ 000000014005d088 f i libconcrt:ResourceManager.obj
 0001:0005c090       ?GetNumBorrowedIdleCores@SchedulerNode@details@Concurrency@@QEAAIXZ 000000014005d090 f i libconcrt:ResourceManager.obj
 0001:0005c094       ?GetNumBorrowedInUseCores@SchedulerNode@details@Concurrency@@QEAAIXZ 000000014005d094 f i libconcrt:ResourceManager.obj
 0001:0005c09c       ?GetNumExternalThreads@SchedulerProxy@details@Concurrency@@QEAAIXZ 000000014005d09c f i libconcrt:ResourceManager.obj
 0001:0005c0a4       ?GetNumMigratableCores@SchedulerNode@details@Concurrency@@QEAAIXZ 000000014005d0a4 f i libconcrt:ResourceManager.obj
 0001:0005c0ac       ?GetNumNestedThreadSubscriptions@SchedulerProxy@details@Concurrency@@QEAAIXZ 000000014005d0ac f i libconcrt:ResourceManager.obj
 0001:0005c0b4       ?GetNumOwnedCores@SchedulerProxy@details@Concurrency@@QEBAIXZ 000000014005d0b4 f i libconcrt:ResourceManager.obj
 0001:0005c0c4       ?GetNumOwnedMigratableCores@SchedulerNode@details@Concurrency@@QEAAIXZ 000000014005d0c4 f i libconcrt:ResourceManager.obj
 0001:0005c0d0       ?GetNumaNode@TopologyObject@GlobalNode@details@Concurrency@@UEBAKXZ 000000014005d0d0 f i libconcrt:ResourceManager.obj
 0001:0005c0d8       ?GetOSVersion@Concurrency@@YA?AW4OSVersion@IResourceManager@1@XZ 000000014005d0d8 f   libconcrt:ResourceManager.obj
 0001:0005c0e0       ?GetProcessorNodeCount@Concurrency@@YAIXZ 000000014005d0e0 f   libconcrt:ResourceManager.obj
 0001:0005c0e8       ?GetQueueLength@SchedulerProxy@details@Concurrency@@QEAAIXZ 000000014005d0e8 f i libconcrt:ResourceManager.obj
 0001:0005c0f0       ?GetSchedulerId@Concurrency@@YAIXZ 000000014005d0f0 f   libconcrt:ResourceManager.obj
 0001:0005c0f0       ?GetSchedulerId@ResourceManager@details@Concurrency@@SAIXZ 000000014005d0f0 f   libconcrt:ResourceManager.obj
 0001:0005c100       ?GetTopologyInformation@ResourceManager@details@Concurrency@@CAXW4_LOGICAL_PROCESSOR_RELATIONSHIP@@@Z 000000014005d100 f   libconcrt:ResourceManager.obj
 0001:0005c134       ?HandleBorrowedCores@ResourceManager@details@Concurrency@@AEAAXPEAVSchedulerProxy@23@PEAUAllocationData@23@@Z 000000014005d134 f   libconcrt:ResourceManager.obj
 0001:0005c280       ?HandleSharedCores@ResourceManager@details@Concurrency@@AEAAXPEAVSchedulerProxy@23@PEAUDynamicAllocationData@23@@Z 000000014005d280 f   libconcrt:ResourceManager.obj
 0001:0005c3d4       ?IncreaseFullyLoadedSchedulerAllocations@ResourceManager@details@Concurrency@@AEAAXXZ 000000014005d3d4 f   libconcrt:ResourceManager.obj
 0001:0005c438       ?Increment@Count@CollectionTypes@details@Concurrency@@QEAAXXZ 000000014005d438 f i libconcrt:ResourceManager.obj
 0001:0005c43c       ?Initialize@GlobalCore@details@Concurrency@@QEAAXPEAUGlobalNode@23@IE@Z 000000014005d43c f i libconcrt:ResourceManager.obj
 0001:0005c4a4       ?Initialize@GlobalNode@details@Concurrency@@QEAAXPEAVResourceManager@23@GG_KII@Z 000000014005d4a4 f i libconcrt:ResourceManager.obj
 0001:0005c68c       ?Initialize@GlobalNumaNode@details@Concurrency@@QEAAXKG_K@Z 000000014005d68c f i libconcrt:ResourceManager.obj
 0001:0005c69c       ?InitializeRMBuffers@ResourceManager@details@Concurrency@@AEAAXXZ 000000014005d69c f   libconcrt:ResourceManager.obj
 0001:0005c79c       ?InitializeSystemInformation@ResourceManager@details@Concurrency@@CAX_N@Z 000000014005d79c f   libconcrt:ResourceManager.obj
 0001:0005ca5c       ?IntersectWith@HardwareAffinity@details@Concurrency@@QEAAX_K@Z 000000014005da5c f i libconcrt:ResourceManager.obj
 0001:0005ca60       ?IsBorrowed@SchedulerCore@details@Concurrency@@QEAA_NXZ 000000014005da60 f i libconcrt:ResourceManager.obj
 0001:0005ca64       ?IsFixed@SchedulerCore@details@Concurrency@@QEAA_NXZ 000000014005da64 f i libconcrt:ResourceManager.obj
 0001:0005ca6c       ?IsHillClimbingEnabled@SchedulerProxy@details@Concurrency@@QEAA_NXZ 000000014005da6c f i libconcrt:ResourceManager.obj
 0001:0005ca74       ?IsIdle@SchedulerCore@details@Concurrency@@QEAA_NXZ 000000014005da74 f i libconcrt:ResourceManager.obj
 0001:0005ca78       ?MinHWThreads@SchedulerProxy@details@Concurrency@@QEBAIXZ 000000014005da78 f i libconcrt:ResourceManager.obj
 0001:0005ca94       ?MinVprocHWThreads@SchedulerProxy@details@Concurrency@@QEBAIXZ 000000014005da94 f i libconcrt:ResourceManager.obj
 0001:0005caac       ?Next@?$List@VSchedulerProxy@details@Concurrency@@VCount@CollectionTypes@23@@details@Concurrency@@QEBAPEAVSchedulerProxy@23@PEAV423@@Z 000000014005daac f i libconcrt:ResourceManager.obj
 0001:0005cabc       ?NumberOfBitsSet@details@Concurrency@@YAG_K@Z 000000014005dabc f i libconcrt:ResourceManager.obj
 0001:0005cad0       ?PerformAllocation@ResourceManager@details@Concurrency@@QEAAPEAVExecutionResource@23@PEAVSchedulerProxy@23@_N1@Z 000000014005dad0 f   libconcrt:ResourceManager.obj
 0001:0005cccc       ?PopulateCommonAllocationData@ResourceManager@details@Concurrency@@AEAAXIPEAVSchedulerProxy@23@PEAUAllocationData@23@@Z 000000014005dccc f   libconcrt:ResourceManager.obj
 0001:0005cda0       ?PopulateDynamicAllocationData@ResourceManager@details@Concurrency@@AEAAXXZ 000000014005dda0 f   libconcrt:ResourceManager.obj
 0001:0005cef4       ?PreProcessDynamicAllocationData@ResourceManager@details@Concurrency@@AEAAXXZ 000000014005def4 f   libconcrt:ResourceManager.obj
 0001:0005d000       ?PreProcessStaticAllocationData@ResourceManager@details@Concurrency@@AEAAXXZ 000000014005e000 f   libconcrt:ResourceManager.obj
 0001:0005d044       ?PrepareReceiversForCoreTransfer@ResourceManager@details@Concurrency@@AEAAII@Z 000000014005e044 f   libconcrt:ResourceManager.obj
 0001:0005d2d0       ?RedistributeCoresAmongAll@ResourceManager@details@Concurrency@@AEAAIPEAVSchedulerProxy@23@III@Z 000000014005e2d0 f   libconcrt:ResourceManager.obj
 0001:0005d6a8       ?Reference@ResourceManager@details@Concurrency@@UEAAIXZ 000000014005e6a8 f   libconcrt:ResourceManager.obj
 0001:0005d6a8       ?_Reference@_RefCounter@details@Concurrency@@QEAAJXZ 000000014005e6a8 f   libconcrt:TaskCollection.obj
 0001:0005d6b8       ?RegisterScheduler@ResourceManager@details@Concurrency@@UEAAPEAUISchedulerProxy@3@PEAUIScheduler@3@I@Z 000000014005e6b8 f   libconcrt:ResourceManager.obj
 0001:0005d71c       ?Release@ResourceManager@details@Concurrency@@UEAAIXZ 000000014005e71c f   libconcrt:ResourceManager.obj
 0001:0005d810       ?ReleaseCoresOnExistingSchedulers@ResourceManager@details@Concurrency@@AEAAIPEAVSchedulerProxy@23@II@Z 000000014005e810 f   libconcrt:ResourceManager.obj
 0001:0005d8b4       ?ReleaseSchedulerResources@ResourceManager@details@Concurrency@@AEAA_NPEAVSchedulerProxy@23@0I@Z 000000014005e8b4 f   libconcrt:ResourceManager.obj
 0001:0005d9e0       ?Remove@?$List@VSchedulerProxy@details@Concurrency@@VCount@CollectionTypes@23@@details@Concurrency@@QEAAXPEAVSchedulerProxy@23@@Z 000000014005e9e0 f i libconcrt:ResourceManager.obj
 0001:0005da18       ?RemoveExecutionResource@ResourceManager@details@Concurrency@@QEAAXPEAVExecutionResource@23@@Z 000000014005ea18 f   libconcrt:ResourceManager.obj
 0001:0005dac0       ?RequestInitialVirtualProcessors@ResourceManager@details@Concurrency@@QEAAPEAUIExecutionResource@3@PEAVSchedulerProxy@23@_N@Z 000000014005eac0 f   libconcrt:ResourceManager.obj
 0001:0005dc60       ?ReserveAtHigherUseCounts@ResourceManager@details@Concurrency@@AEAAIPEAVSchedulerProxy@23@I@Z 000000014005ec60 f   libconcrt:ResourceManager.obj
 0001:0005dcc4       ?ReserveCores@ResourceManager@details@Concurrency@@AEAAIPEAVSchedulerProxy@23@II@Z 000000014005ecc4 f   libconcrt:ResourceManager.obj
 0001:0005dec0       ?ResetGlobalAllocationData@ResourceManager@details@Concurrency@@AEAAXXZ 000000014005eec0 f   libconcrt:ResourceManager.obj
 0001:0005df14       ?RetrieveSystemVersionInformation@ResourceManager@details@Concurrency@@CAXXZ 000000014005ef14 f   libconcrt:ResourceManager.obj
 0001:0005e02c       ?RoundUpScaledAllocations@ResourceManager@details@Concurrency@@CAXPEAPEAUAllocationData@23@II@Z 000000014005f02c f   libconcrt:ResourceManager.obj
 0001:0005e1e8       ?SafeInterlockedIncrement@details@Concurrency@@YA_NPECJ@Z 000000014005f1e8 f i libconcrt:ResourceManager.obj
 0001:0005e200       ?SafeReference@ResourceManager@details@Concurrency@@AEAA_NXZ 000000014005f200 f   libconcrt:ResourceManager.obj
 0001:0005e21c       ?SchedulersNeedNotifications@ResourceManager@details@Concurrency@@QEAA_NXZ 000000014005f21c f i libconcrt:ResourceManager.obj
 0001:0005e224       ?SendResourceNotifications@ResourceManager@details@Concurrency@@QEAAXPEAVSchedulerProxy@23@@Z 000000014005f224 f   libconcrt:ResourceManager.obj
 0001:0005e3e4       ?size@?$__crt_win32_buffer@DU__crt_win32_buffer_public_dynamic_resizing@@@@QEAAX_K@Z 000000014005f3e4 f i libucrt:getcwd.obj
 0001:0005e3e4       ?size@?$__crt_win32_buffer@DU__crt_win32_buffer_internal_dynamic_resizing@@@@QEAAX_K@Z 000000014005f3e4 f i libucrt:chdir.obj
 0001:0005e3e4       ?size@?$__crt_win32_buffer@DU__crt_win32_buffer_no_resizing@@@@QEAAX_K@Z 000000014005f3e4 f i libucrt:getcwd.obj
 0001:0005e3e4       ?SetVirtualProcessorRoot@ThreadProxy@details@Concurrency@@QEAAXPEAVVirtualProcessorRoot@23@@Z 000000014005f3e4 f i libconcrt:FreeVirtualProcessorRoot.obj
 0001:0005e3e4       ?size@?$__crt_win32_buffer@_WU__crt_win32_buffer_internal_dynamic_resizing@@@@QEAAX_K@Z 000000014005f3e4 f i libucrt:getcwd.obj
 0001:0005e3e4       ?SetAllocatedNodes@SchedulerProxy@details@Concurrency@@QEAAXPEAUSchedulerNode@23@@Z 000000014005f3e4 f i libconcrt:ResourceManager.obj
 0001:0005e3ec       ?SetQueueLength@SchedulerProxy@details@Concurrency@@QEAAXI@Z 000000014005f3ec f i libconcrt:ResourceManager.obj
 0001:0005e3f4       ?SetTaskExecutionResources@ResourceManager@details@Concurrency@@SAXGPEAU_GROUP_AFFINITY@@@Z 000000014005f3f4 f   libconcrt:ResourceManager.obj
 0001:0005e7d4       ?SetTaskExecutionResources@ResourceManager@details@Concurrency@@SAX_K@Z 000000014005f7d4 f   libconcrt:ResourceManager.obj
 0001:0005e9d4       ?SetupStaticAllocationData@ResourceManager@details@Concurrency@@AEAAXPEAVSchedulerProxy@23@_N@Z 000000014005f9d4 f   libconcrt:ResourceManager.obj
 0001:0005eaec       ?ShouldReceiveNotifications@SchedulerProxy@details@Concurrency@@QEAA_NXZ 000000014005faec f i libconcrt:ResourceManager.obj
 0001:0005eafc       ?Shutdown@ResourceManager@details@Concurrency@@QEAAXPEAVSchedulerProxy@23@@Z 000000014005fafc f   libconcrt:ResourceManager.obj
 0001:0005ec1c       ?SubscribeCurrentThread@ResourceManager@details@Concurrency@@QEAAPEAVExecutionResource@23@PEAVSchedulerProxy@23@@Z 000000014005fc1c f   libconcrt:ResourceManager.obj
 0001:0005ec94       ?ToggleRMIdleState@ResourceManager@details@Concurrency@@AEAAXPEAUSchedulerNode@23@PEAUSchedulerCore@23@PEAUGlobalNode@23@PEAUGlobalCore@23@PEAUAllocationData@23@@Z 000000014005fc94 f   libconcrt:ResourceManager.obj
 0001:0005ecfc       ?Version@ResourceManager@details@Concurrency@@SA?AW4OSVersion@IResourceManager@3@XZ 000000014005fcfc f   libconcrt:ResourceManager.obj
 0001:0005ed7c       ?WakeupDynamicRMWorker@ResourceManager@details@Concurrency@@QEAAXXZ 000000014005fd7c f i libconcrt:ResourceManager.obj
 0001:0005ed88       ?set_task_execution_resources@Concurrency@@YAXGPEAU_GROUP_AFFINITY@@@Z 000000014005fd88 f   libconcrt:ResourceManager.obj
 0001:0005ed90       ?set_task_execution_resources@Concurrency@@YAX_K@Z 000000014005fd90 f   libconcrt:ResourceManager.obj
 0001:0005ed98       ??$_InternalDeleteHelper@VExternalContextBase@details@Concurrency@@@details@Concurrency@@YAXPEAVExternalContextBase@01@@Z 000000014005fd98 f i libconcrt:SchedulerBase.obj
 0001:0005edb8       ??$_InternalDeleteHelper@VExternalStatistics@details@Concurrency@@@details@Concurrency@@YAXPEAVExternalStatistics@01@@Z 000000014005fdb8 f i libconcrt:SchedulerBase.obj
 0001:0005edc4       ??$_InternalDeleteHelper@VInternalContextBase@details@Concurrency@@@details@Concurrency@@YAXPEAVInternalContextBase@01@@Z 000000014005fdc4 f i libconcrt:SchedulerBase.obj
 0001:0005ede8       ??$_InternalDeleteHelper@VScheduleGroupBase@details@Concurrency@@@details@Concurrency@@YAXPEAVScheduleGroupBase@01@@Z 000000014005fde8 f i libconcrt:SchedulerBase.obj
 0001:0005ee08       ??0?$Hash@II@details@Concurrency@@QEAA@H@Z 000000014005fe08 f i libconcrt:SchedulerBase.obj
 0001:0005ee54       ??0?$ListArray@VExternalStatistics@details@Concurrency@@@details@Concurrency@@QEAA@PEAVSchedulerBase@12@HH@Z 000000014005fe54 f i libconcrt:SchedulerBase.obj
 0001:0005ef84       ??0?$ListArray@VScheduleGroupBase@details@Concurrency@@@details@Concurrency@@QEAA@PEAVSchedulerBase@12@HH@Z 000000014005ff84 f i libconcrt:SchedulerBase.obj
 0001:0005f0b4       ??0StructuredEvent@details@Concurrency@@QEAA@XZ 00000001400600b4 f i libconcrt:TaskCollection.obj
 0001:0005f0b4       ??0?$LockFreePushStack@VContextNode@SchedulerBase@details@Concurrency@@@details@Concurrency@@QEAA@XZ 00000001400600b4 f i libconcrt:SchedulerBase.obj
 0001:0005f0c0       ??0?$LockFreeStack@VExternalContextBase@details@Concurrency@@@details@Concurrency@@QEAA@XZ 00000001400600c0 f i libconcrt:SchedulerBase.obj
 0001:0005f0d8       ??0?$LockFreeStack@VInternalContextBase@details@Concurrency@@@details@Concurrency@@QEAA@XZ 00000001400600d8 f i libconcrt:SchedulerBase.obj
 0001:0005f0f0       ??0?$LockFreeStack@VRealizedChore@details@Concurrency@@@details@Concurrency@@QEAA@XZ 00000001400600f0 f i libconcrt:SchedulerBase.obj
 0001:0005f108       ??0?$SQueue@VRealizedChore@details@Concurrency@@@details@Concurrency@@QEAA@XZ 0000000140060108 f i libconcrt:ScheduleGroupBase.obj
 0001:0005f108       ??0?$SQueue@VUMSThreadProxy@details@Concurrency@@@details@Concurrency@@QEAA@XZ 0000000140060108 f i libconcrt:TransmogrifiedPrimary.obj
 0001:0005f108       ??0?$SQueue@VSafePointInvocation@details@Concurrency@@@details@Concurrency@@QEAA@XZ 0000000140060108 f i libconcrt:SchedulerBase.obj
 0001:0005f108       ??0?$SQueue@VInternalContextBase@details@Concurrency@@@details@Concurrency@@QEAA@XZ 0000000140060108 f i libconcrt:SchedulerBase.obj
 0001:0005f114       ??0?$SafeRWList@UBoostedObject@details@Concurrency@@VNoCount@CollectionTypes@23@V_ReaderWriterLock@23@@details@Concurrency@@QEAA@XZ 0000000140060114 f i libconcrt:SchedulerBase.obj
 0001:0005f134       ??0?$SafeRWList@VWaitNode@SchedulerBase@details@Concurrency@@VNoCount@CollectionTypes@34@V_ReaderWriterLock@34@@details@Concurrency@@QEAA@XZ 0000000140060134 f i libconcrt:SchedulerBase.obj
 0001:0005f154       ??0?$SafeSQueue@VRealizedChore@details@Concurrency@@V_HyperNonReentrantLock@23@@details@Concurrency@@QEAA@XZ 0000000140060154 f i libconcrt:ScheduleGroupBase.obj
 0001:0005f154       ??0?$SafeSQueue@VSafePointInvocation@details@Concurrency@@V_HyperNonReentrantLock@23@@details@Concurrency@@QEAA@XZ 0000000140060154 f i libconcrt:SchedulerBase.obj
 0001:0005f154       ??0?$SafeSQueue@VUMSThreadProxy@details@Concurrency@@V_NonReentrantLock@23@@details@Concurrency@@QEAA@XZ 0000000140060154 f i libconcrt:TransmogrifiedPrimary.obj
 0001:0005f154       ??0?$SafeSQueue@VInternalContextBase@details@Concurrency@@V_HyperNonReentrantLock@23@@details@Concurrency@@QEAA@XZ 0000000140060154 f i libconcrt:SchedulerBase.obj
 0001:0005f168       ??0ArrayNode@?$ListArray@VScheduleGroupBase@details@Concurrency@@@details@Concurrency@@QEAA@PEAPEAVScheduleGroupBase@23@@Z 0000000140060168 f i libconcrt:SchedulerBase.obj
 0001:0005f168       ??0ArrayNode@?$ListArray@VExternalStatistics@details@Concurrency@@@details@Concurrency@@QEAA@PEAPEAVExternalStatistics@23@@Z 0000000140060168 f i libconcrt:SchedulerBase.obj
 0001:0005f168       ??0ArrayNode@?$ListArray@VWorkQueue@details@Concurrency@@@details@Concurrency@@QEAA@PEAPEAVWorkQueue@23@@Z 0000000140060168 f i libconcrt:ContextBase.obj
 0001:0005f168       ??0ArrayNode@?$ListArray@VVirtualProcessor@details@Concurrency@@@details@Concurrency@@QEAA@PEAPEAVVirtualProcessor@23@@Z 0000000140060168 f i libconcrt:SchedulingNode.obj
 0001:0005f168       ??0ArrayNode@?$ListArray@U?$ListArrayInlineLink@VWorkQueue@details@Concurrency@@@details@Concurrency@@@details@Concurrency@@QEAA@PEAPEAU?$ListArrayInlineLink@VWorkQueue@details@Concurrency@@@23@@Z 0000000140060168 f i libconcrt:ScheduleGroupBase.obj
 0001:0005f168       ??0ArrayNode@?$ListArray@VScheduleGroupSegmentBase@details@Concurrency@@@details@Concurrency@@QEAA@PEAPEAVScheduleGroupSegmentBase@23@@Z 0000000140060168 f i libconcrt:SchedulingRing.obj
 0001:0005f178       ??0CacheLocalScheduleGroup@details@Concurrency@@QEAA@PEAVSchedulerBase@12@PEAVlocation@2@@Z 0000000140060178 f i libconcrt:SchedulerBase.obj
 0001:0005f1a0       ??0CacheLocalScheduleGroupSegment@details@Concurrency@@QEAA@PEAVScheduleGroupBase@12@PEAVSchedulingRing@12@PEAVlocation@2@@Z 00000001400601a0 f i libconcrt:SchedulerBase.obj
 0001:0005f1d8       ??0ContextNode@SchedulerBase@details@Concurrency@@QEAA@PEAVInternalContextBase@23@@Z 00000001400601d8 f i libconcrt:SchedulerBase.obj
 0001:0005f1e0       ??0FairScheduleGroup@details@Concurrency@@QEAA@PEAVSchedulerBase@12@PEAVlocation@2@@Z 00000001400601e0 f i libconcrt:SchedulerBase.obj
 0001:0005f20c       ??0FairScheduleGroupSegment@details@Concurrency@@QEAA@PEAVScheduleGroupBase@12@PEAVSchedulingRing@12@PEAVlocation@2@@Z 000000014006020c f i libconcrt:SchedulerBase.obj
 0001:0005f244       ??0ListNode@?$Hash@II@details@Concurrency@@QEAA@AEBI0@Z 0000000140060244 f i libconcrt:SchedulerBase.obj
 0001:0005f258       ??0NumaInformation@SchedulerBase@details@Concurrency@@QEAA@XZ 0000000140060258 f i libconcrt:SchedulerBase.obj
 0001:0005f26c       ??0QuickBitSet@details@Concurrency@@QEAA@$$QEAV012@@Z 000000014006026c f i libconcrt:SchedulerBase.obj
 0001:0005f284       ??0QuickBitSet@details@Concurrency@@QEAA@I@Z 0000000140060284 f i libconcrt:SchedulerBase.obj
 0001:0005f2d8       ??0RealizedChore@details@Concurrency@@QEAA@P6AXPEAX@Z0@Z 00000001400602d8 f i libconcrt:SchedulerBase.obj
 0001:0005f2f4       ??0ReferenceCountedQuickBitSet@details@Concurrency@@QEAA@XZ 00000001400602f4 f i libconcrt:SchedulerBase.obj
 0001:0005f304       ??0Scheduler@Concurrency@@IEAA@XZ 0000000140060304 f i libconcrt:SchedulerBase.obj
 0001:0005f314       ??0SchedulerBase@details@Concurrency@@QEAA@AEBVSchedulerPolicy@2@@Z 0000000140060314 f   libconcrt:SchedulerBase.obj
 0001:0005f704       ??0Slot@?$Mailbox@VInternalContextBase@details@Concurrency@@@details@Concurrency@@QEAA@XZ 0000000140060704 f i libconcrt:VirtualProcessor.obj
 0001:0005f704       ??0DName@@QEAA@XZ          0000000140060704 f i libvcruntime:undname.obj
 0001:0005f704       ??0Slot@?$Mailbox@V_UnrealizedChore@details@Concurrency@@@details@Concurrency@@QEAA@XZ 0000000140060704 f i libconcrt:SchedulerBase.obj
 0001:0005f710       ??0SubAllocator@details@Concurrency@@QEAA@XZ 0000000140060710 f i libconcrt:SchedulerBase.obj
 0001:0005f750       ??0_Chore@details@Concurrency@@IEAA@XZ 0000000140060750 f i libconcrt:SchedulerBase.obj
 0001:0005f760       ??0_NonReentrantLock@details@Concurrency@@QEAA@XZ 0000000140060760 f i libconcrt:SchedulerBase.obj
 0001:0005f760       ??0big_integer@__crt_strtox@@QEAA@XZ 0000000140060760 f i libucrt:strtod.obj
 0001:0005f760       ??0_CriticalNonReentrantLock@details@Concurrency@@QEAA@XZ 0000000140060760 f i libconcrt:WorkQueue.obj
 0001:0005f760       ??0_HyperNonReentrantLock@details@Concurrency@@QEAA@XZ 0000000140060760 f i libconcrt:SchedulerBase.obj
 0001:0005f76c       ??0_Scoped_lock@_HyperNonReentrantLock@details@Concurrency@@QEAA@AEAV123@@Z 000000014006076c f i libconcrt:SchedulerBase.obj
 0001:0005f78c       ??0_Scoped_lock@_ReaderWriterLock@details@Concurrency@@QEAA@AEAV123@@Z 000000014006078c f i libconcrt:SchedulerBase.obj
 0001:0005f7ac       ??0default_scheduler_exists@Concurrency@@QEAA@AEBV01@@Z 00000001400607ac f i libconcrt:SchedulerBase.obj
 0001:0005f7ec       ??0improper_scheduler_attach@Concurrency@@QEAA@AEBV01@@Z 00000001400607ec f i libconcrt:SchedulerBase.obj
 0001:0005f82c       ??0improper_scheduler_detach@Concurrency@@QEAA@AEBV01@@Z 000000014006082c f i libconcrt:SchedulerBase.obj
 0001:0005f86c       ??0improper_scheduler_reference@Concurrency@@QEAA@AEBV01@@Z 000000014006086c f i libconcrt:SchedulerBase.obj
 0001:0005f8ac       ??0location@Concurrency@@QEAA@AEBV01@@Z 00000001400608ac f i libconcrt:SchedulerBase.obj
 0001:0005f8ac       ??4location@Concurrency@@QEAAAEAV01@AEBV01@@Z 00000001400608ac f i libconcrt:VirtualProcessor.obj
 0001:0005f8e0       ??0location@Concurrency@@QEAA@XZ 00000001400608e0 f i libconcrt:SchedulerBase.obj
 0001:0005f8f4       ??1?$Hash@II@details@Concurrency@@QEAA@XZ 00000001400608f4 f i libconcrt:SchedulerBase.obj
 0001:0005f910       ??1?$ListArray@VExternalStatistics@details@Concurrency@@@details@Concurrency@@QEAA@XZ 0000000140060910 f i libconcrt:SchedulerBase.obj
 0001:0005fa04       ??1?$ListArray@VScheduleGroupBase@details@Concurrency@@@details@Concurrency@@QEAA@XZ 0000000140060a04 f i libconcrt:SchedulerBase.obj
 0001:0005fb28       ??1ScheduleGroup@Concurrency@@MEAA@XZ 0000000140060b28 f i libconcrt:SchedulerBase.obj
 0001:0005fb28       ??1ScheduleGroupBase@details@Concurrency@@UEAA@XZ 0000000140060b28 f i libconcrt:SchedulerBase.obj
 0001:0005fb28       ??1FairScheduleGroup@details@Concurrency@@UEAA@XZ 0000000140060b28 f i libconcrt:SchedulerBase.obj
 0001:0005fb28       ??1CacheLocalScheduleGroup@details@Concurrency@@UEAA@XZ 0000000140060b28 f i libconcrt:SchedulerBase.obj
 0001:0005fb34       ??1FairScheduleGroupSegment@details@Concurrency@@UEAA@XZ 0000000140060b34 f i libconcrt:SchedulerBase.obj
 0001:0005fb34       ??1CacheLocalScheduleGroupSegment@details@Concurrency@@UEAA@XZ 0000000140060b34 f i libconcrt:SchedulerBase.obj
 0001:0005fb3c       ??1NumaInformation@SchedulerBase@details@Concurrency@@QEAA@XZ 0000000140060b3c f i libconcrt:SchedulerBase.obj
 0001:0005fb5c       ??1QuickBitSet@details@Concurrency@@QEAA@XZ 0000000140060b5c f i libconcrt:SchedulerBase.obj
 0001:0005fb68       ??1RealizedChore@details@Concurrency@@UEAA@XZ 0000000140060b68 f i libconcrt:SchedulerBase.obj
 0001:0005fb68       ??1_Chore@details@Concurrency@@MEAA@XZ 0000000140060b68 f i libconcrt:SchedulerBase.obj
 0001:0005fb74       ??1ReferenceCountedQuickBitSet@details@Concurrency@@QEAA@XZ 0000000140060b74 f i libconcrt:SchedulerBase.obj
 0001:0005fb94       ??1Scheduler@Concurrency@@MEAA@XZ 0000000140060b94 f i libconcrt:SchedulerBase.obj
 0001:0005fba0       ??1SchedulerBase@details@Concurrency@@UEAA@XZ 0000000140060ba0 f   libconcrt:SchedulerBase.obj
 0001:0005fc90       ??1SubAllocator@details@Concurrency@@QEAA@XZ 0000000140060c90 f i libconcrt:SchedulerBase.obj
 0001:0005fcbc       ??1_Scoped_lock@_CriticalNonReentrantLock@details@Concurrency@@QEAA@XZ 0000000140060cbc f i libconcrt:ContextBase.obj
 0001:0005fcbc       ??1_Scoped_lock@_HyperNonReentrantLock@details@Concurrency@@QEAA@XZ 0000000140060cbc f i libconcrt:SchedulerBase.obj
 0001:0005fcd8       ??1_Scoped_lock@_ReaderWriterLock@details@Concurrency@@QEAA@XZ 0000000140060cd8 f i libconcrt:SchedulerBase.obj
 0001:0005fcf4       ??4QuickBitSet@details@Concurrency@@QEAAAEAV012@AEBV012@@Z 0000000140060cf4 f i libconcrt:SchedulerBase.obj
 0001:0005fd0c       ??A?$ListArray@VScheduleGroupSegmentBase@details@Concurrency@@@details@Concurrency@@QEBAPEAVScheduleGroupSegmentBase@12@H@Z 0000000140060d0c f i libconcrt:SchedulerBase.obj
 0001:0005fd0c       ??A?$ListArray@VWorkQueue@details@Concurrency@@@details@Concurrency@@QEBAPEAVWorkQueue@12@H@Z 0000000140060d0c f i libconcrt:ScheduleGroupBase.obj
 0001:0005fd0c       ??A?$ListArray@VExternalStatistics@details@Concurrency@@@details@Concurrency@@QEBAPEAVExternalStatistics@12@H@Z 0000000140060d0c f i libconcrt:SchedulerBase.obj
 0001:0005fd0c       ??A?$ListArray@VVirtualProcessor@details@Concurrency@@@details@Concurrency@@QEBAPEAVVirtualProcessor@12@H@Z 0000000140060d0c f i libconcrt:SchedulerBase.obj
 0001:0005fd0c       ??A?$ListArray@U?$ListArrayInlineLink@VWorkQueue@details@Concurrency@@@details@Concurrency@@@details@Concurrency@@QEBAPEAU?$ListArrayInlineLink@VWorkQueue@details@Concurrency@@@12@H@Z 0000000140060d0c f i libconcrt:ScheduleGroupBase.obj
 0001:0005fd68       ??_ENumaInformation@SchedulerBase@details@Concurrency@@QEAAPEAXI@Z 0000000140060d68 f i libconcrt:SchedulerBase.obj
 0001:0005fe00       ??_ECacheLocalScheduleGroup@details@Concurrency@@UEAAPEAXI@Z 0000000140060e00 f i libconcrt:SchedulerBase.obj
 0001:0005fe00       ??_GCacheLocalScheduleGroup@details@Concurrency@@UEAAPEAXI@Z 0000000140060e00 f i libconcrt:SchedulerBase.obj
 0001:0005fe2c       ??_ECacheLocalScheduleGroupSegment@details@Concurrency@@UEAAPEAXI@Z 0000000140060e2c f i libconcrt:SchedulerBase.obj
 0001:0005fe2c       ??_GCacheLocalScheduleGroupSegment@details@Concurrency@@UEAAPEAXI@Z 0000000140060e2c f i libconcrt:SchedulerBase.obj
 0001:0005fe60       ??_GFairScheduleGroup@details@Concurrency@@UEAAPEAXI@Z 0000000140060e60 f i libconcrt:SchedulerBase.obj
 0001:0005fe60       ??_EFairScheduleGroup@details@Concurrency@@UEAAPEAXI@Z 0000000140060e60 f i libconcrt:SchedulerBase.obj
 0001:0005fe8c       ??_GFairScheduleGroupSegment@details@Concurrency@@UEAAPEAXI@Z 0000000140060e8c f i libconcrt:SchedulerBase.obj
 0001:0005fe8c       ??_EFairScheduleGroupSegment@details@Concurrency@@UEAAPEAXI@Z 0000000140060e8c f i libconcrt:SchedulerBase.obj
 0001:0005fec0       ??_ERealizedChore@details@Concurrency@@UEAAPEAXI@Z 0000000140060ec0 f i libconcrt:SchedulerBase.obj
 0001:0005fec0       ??_GRealizedChore@details@Concurrency@@UEAAPEAXI@Z 0000000140060ec0 f i libconcrt:SchedulerBase.obj
 0001:0005feec       ??_GScheduleGroup@Concurrency@@MEAAPEAXI@Z 0000000140060eec f i libconcrt:SchedulerBase.obj
 0001:0005feec       ??_EScheduleGroup@Concurrency@@MEAAPEAXI@Z 0000000140060eec f i libconcrt:SchedulerBase.obj
 0001:0005ff18       ??_GScheduler@Concurrency@@MEAAPEAXI@Z 0000000140060f18 f i libconcrt:SchedulerBase.obj
 0001:0005ff18       ??_EScheduler@Concurrency@@MEAAPEAXI@Z 0000000140060f18 f i libconcrt:SchedulerBase.obj
 0001:0005ff44       ??_ESchedulerBase@details@Concurrency@@UEAAPEAXI@Z 0000000140060f44 f i libconcrt:SchedulerBase.obj
 0001:0005ff44       ??_GSchedulerBase@details@Concurrency@@UEAAPEAXI@Z 0000000140060f44 f i libconcrt:SchedulerBase.obj
 0001:0005ff78       ??_GSchedulerPolicy@Concurrency@@QEAAPEAXI@Z 0000000140060f78 f i libconcrt:SchedulerBase.obj
 0001:0005ffac       ??_GSchedulingNode@details@Concurrency@@QEAAPEAXI@Z 0000000140060fac f i libconcrt:SchedulerBase.obj
 0001:0005ffe0       ??_GSchedulingRing@details@Concurrency@@QEAAPEAXI@Z 0000000140060fe0 f i libconcrt:SchedulerBase.obj
 0001:00060014       ??_GSubAllocator@details@Concurrency@@QEAAPEAXI@Z 0000000140061014 f i libconcrt:SchedulerBase.obj
 0001:00060068       ??_G_Chore@details@Concurrency@@MEAAPEAXI@Z 0000000140061068 f i libconcrt:SchedulerBase.obj
 0001:00060068       ??_E_Chore@details@Concurrency@@MEAAPEAXI@Z 0000000140061068 f i libconcrt:SchedulerBase.obj
 0001:00060094       ??_Gdefault_scheduler_exists@Concurrency@@UEAAPEAXI@Z 0000000140061094 f i libconcrt:SchedulerBase.obj
 0001:00060094       ??_Edefault_scheduler_exists@Concurrency@@UEAAPEAXI@Z 0000000140061094 f i libconcrt:SchedulerBase.obj
 0001:000600d8       ??_Gimproper_scheduler_attach@Concurrency@@UEAAPEAXI@Z 00000001400610d8 f i libconcrt:SchedulerBase.obj
 0001:000600d8       ??_Eimproper_scheduler_attach@Concurrency@@UEAAPEAXI@Z 00000001400610d8 f i libconcrt:SchedulerBase.obj
 0001:0006011c       ??_Eimproper_scheduler_detach@Concurrency@@UEAAPEAXI@Z 000000014006111c f i libconcrt:SchedulerBase.obj
 0001:0006011c       ??_Gimproper_scheduler_detach@Concurrency@@UEAAPEAXI@Z 000000014006111c f i libconcrt:SchedulerBase.obj
 0001:00060160       ??_Eimproper_scheduler_reference@Concurrency@@UEAAPEAXI@Z 0000000140061160 f i libconcrt:SchedulerBase.obj
 0001:00060160       ??_Gimproper_scheduler_reference@Concurrency@@UEAAPEAXI@Z 0000000140061160 f i libconcrt:SchedulerBase.obj
 0001:000601a4       ?ASIZE@QuickBitSet@details@Concurrency@@IEBAIXZ 00000001400611a4 f i libconcrt:SchedulerBase.obj
 0001:000601b0       ?Acquire@?$SafeSQueue@VSafePointInvocation@details@Concurrency@@V_HyperNonReentrantLock@23@@details@Concurrency@@QEBAXXZ 00000001400611b0 f i libconcrt:SchedulerBase.obj
 0001:000601bc       ?AcquireWrite@?$SafeRWList@UBoostedObject@details@Concurrency@@VNoCount@CollectionTypes@23@V_ReaderWriterLock@23@@details@Concurrency@@QEBAXXZ 00000001400611bc f i libconcrt:SchedulerBase.obj
 0001:000601bc       ?AcquireWrite@?$SafeRWList@UListEntry@details@Concurrency@@VNoCount@CollectionTypes@23@V_ReaderWriterLock@23@@details@Concurrency@@QEBAXXZ 00000001400611bc f i libconcrt:ContextBase.obj
 0001:000601c8       ?Add@?$ListArray@VScheduleGroupBase@details@Concurrency@@@details@Concurrency@@QEAAHPEAVScheduleGroupBase@23@@Z 00000001400611c8 f i libconcrt:SchedulerBase.obj
 0001:00060344       ?AddContext@SchedulerBase@details@Concurrency@@QEAAXPEAVInternalContextBase@23@@Z 0000000140061344 f   libconcrt:SchedulerBase.obj
 0001:0006039c       ?AddHead@?$List@UBoostedObject@details@Concurrency@@VNoCount@CollectionTypes@23@@details@Concurrency@@QEAAXPEAUBoostedObject@23@@Z 000000014006139c f i libconcrt:SchedulerBase.obj
 0001:0006039c       ?UnlockedAddHead@?$SafeRWList@UBoostedObject@details@Concurrency@@VNoCount@CollectionTypes@23@V_ReaderWriterLock@23@@details@Concurrency@@QEAAXPEAUBoostedObject@23@@Z 000000014006139c f i libconcrt:SchedulerBase.obj
 0001:000603d8       ?AddTail@?$List@VWaitNode@SchedulerBase@details@Concurrency@@VNoCount@CollectionTypes@34@@details@Concurrency@@QEAAXPEAVWaitNode@SchedulerBase@23@@Z 00000001400613d8 f i libconcrt:SchedulerBase.obj
 0001:00060410       ?AddTail@?$SafeRWList@VWaitNode@SchedulerBase@details@Concurrency@@VNoCount@CollectionTypes@34@V_ReaderWriterLock@34@@details@Concurrency@@QEAAXPEAVWaitNode@SchedulerBase@23@@Z 0000000140061410 f i libconcrt:SchedulerBase.obj
 0001:00060484       ?AddVirtualProcessors@SchedulerBase@details@Concurrency@@IEAAXPEAPEAUIVirtualProcessorRoot@3@I@Z 0000000140061484 f   libconcrt:SchedulerBase.obj
 0001:00060574       ?AllocateSegment@CacheLocalScheduleGroup@details@Concurrency@@MEAAPEAVScheduleGroupSegmentBase@23@PEAVSchedulingRing@23@PEAVlocation@3@@Z 0000000140061574 f i libconcrt:SchedulerBase.obj
 0001:00060600       ?AllocateSegment@FairScheduleGroup@details@Concurrency@@MEAAPEAVScheduleGroupSegmentBase@23@PEAVSchedulingRing@23@PEAVlocation@3@@Z 0000000140061600 f i libconcrt:SchedulerBase.obj
 0001:00060690       ?Attach@SchedulerBase@details@Concurrency@@UEAAXXZ 0000000140061690 f   libconcrt:SchedulerBase.obj
 0001:000606f8       ?AttachExternalContext@SchedulerBase@details@Concurrency@@AEAAPEAVExternalContextBase@23@_N@Z 00000001400616f8 f   libconcrt:SchedulerBase.obj
 0001:000607a0       ?AttemptSchedulerSweep@SchedulerBase@details@Concurrency@@IEAAXXZ 00000001400617a0 f   libconcrt:SchedulerBase.obj
 0001:000607c4       ?CancelAllContexts@SchedulerBase@details@Concurrency@@MEAAXXZ 00000001400617c4 f   libconcrt:SchedulerBase.obj
 0001:00060808       ?ChangeThrottlingTimer@SchedulerBase@details@Concurrency@@AEAAXK@Z 0000000140061808 f   libconcrt:SchedulerBase.obj
 0001:00060868       ?CheckForDeletion@?$ListArray@VExternalStatistics@details@Concurrency@@@details@Concurrency@@AEAAXXZ 0000000140061868 f i libconcrt:SchedulerBase.obj
 0001:000608c4       ?CheckForDeletion@?$ListArray@VScheduleGroupBase@details@Concurrency@@@details@Concurrency@@AEAAXXZ 00000001400618c4 f i libconcrt:SchedulerBase.obj
 0001:00060930       ?CheckForDeletionBridge@?$ListArray@VExternalStatistics@details@Concurrency@@@details@Concurrency@@CAXPEAV123@@Z 0000000140061930 f i libconcrt:SchedulerBase.obj
 0001:0006098c       ?CheckForDeletionBridge@?$ListArray@VScheduleGroupBase@details@Concurrency@@@details@Concurrency@@CAXPEAV123@@Z 000000014006198c f i libconcrt:SchedulerBase.obj
 0001:00060994       ?CheckOneShotStaticDestruction@SchedulerBase@details@Concurrency@@SAXXZ 0000000140061994 f   libconcrt:SchedulerBase.obj
 0001:000609d4       ?CheckStaticConstruction@SchedulerBase@details@Concurrency@@CAXXZ 00000001400619d4 f   libconcrt:SchedulerBase.obj
 0001:00060a84       ?Cleanup@SchedulerBase@details@Concurrency@@AEAAXXZ 0000000140061a84 f   libconcrt:SchedulerBase.obj
 0001:00060ba0       ?ClearCriticalRegion@ContextBase@details@Concurrency@@QEAAXXZ 0000000140061ba0 f i libconcrt:SchedulerBase.obj
 0001:00060bac       ?CommitSafePoints@SchedulerBase@details@Concurrency@@QEAAXXZ 0000000140061bac f   libconcrt:SchedulerBase.obj
 0001:00060c14       ?CommitToVersion@SchedulerBase@details@Concurrency@@AEAAXK@Z 0000000140061c14 f   libconcrt:SchedulerBase.obj
 0001:00060ce8       ?ComputeSafePointCommitVersion@SchedulerBase@details@Concurrency@@AEAAKXZ 0000000140061ce8 f   libconcrt:SchedulerBase.obj
 0001:00060dfc       ?CopyFrom@QuickBitSet@details@Concurrency@@IEAAXAEBV123@@Z 0000000140061dfc f i libconcrt:SchedulerBase.obj
 0001:00060e84       ?Count@?$LockFreeStack@VExternalContextBase@details@Concurrency@@@details@Concurrency@@QEBAHXZ 0000000140061e84 f i libconcrt:SchedulerBase.obj
 0001:00060e98       ?Count@?$LockFreeStack@VRealizedChore@details@Concurrency@@@details@Concurrency@@QEBAHXZ 0000000140061e98 f i libconcrt:SchedulerBase.obj
 0001:00060eac       ?Count@?$LockFreeStack@VSubAllocator@details@Concurrency@@@details@Concurrency@@QEBAHXZ 0000000140061eac f i libconcrt:SchedulerBase.obj
 0001:00060ec0       ?Create@Scheduler@Concurrency@@SAPEAV12@AEBVSchedulerPolicy@2@@Z 0000000140061ec0 f   libconcrt:SchedulerBase.obj
 0001:00060ef0       ?Create@SchedulerBase@details@Concurrency@@SAPEAV123@AEBVSchedulerPolicy@3@@Z 0000000140061ef0 f   libconcrt:SchedulerBase.obj
 0001:00060f10       ?CreateContextFromDefaultScheduler@SchedulerBase@details@Concurrency@@SAPEAVContextBase@23@XZ 0000000140061f10 f   libconcrt:SchedulerBase.obj
 0001:00060f50       ?CreateScheduleGroup@SchedulerBase@details@Concurrency@@UEAAPEAVScheduleGroup@3@AEAVlocation@3@@Z 0000000140061f50 f i libconcrt:SchedulerBase.obj
 0001:00060f58       ?CreateScheduleGroup@SchedulerBase@details@Concurrency@@UEAAPEAVScheduleGroup@3@XZ 0000000140061f58 f i libconcrt:SchedulerBase.obj
 0001:00060f80       ?CreateWithoutInitializing@SchedulerBase@details@Concurrency@@SAPEAV123@AEBVSchedulerPolicy@3@@Z 0000000140061f80 f   libconcrt:SchedulerBase.obj
 0001:00060fb0       ?CurrentScheduler@SchedulerBase@details@Concurrency@@SAPEAV123@XZ 0000000140061fb0 f   libconcrt:SchedulerBase.obj
 0001:00060fe4       ?DecrementInternalContextCount@SchedulerBase@details@Concurrency@@QEAAXXZ 0000000140061fe4 f   libconcrt:SchedulerBase.obj
 0001:00061004       ?DeferredGetInternalContext@SchedulerBase@details@Concurrency@@QEAAXXZ 0000000140062004 f   libconcrt:SchedulerBase.obj
 0001:00061030       ?DeleteElements@?$ListArray@VExternalStatistics@details@Concurrency@@@details@Concurrency@@AEAAXPEAU_SLIST_ENTRY@@@Z 0000000140062030 f i libconcrt:SchedulerBase.obj
 0001:0006105c       ?DeleteElements@?$ListArray@VScheduleGroupBase@details@Concurrency@@@details@Concurrency@@AEAAXPEAU_SLIST_ENTRY@@@Z 000000014006205c f i libconcrt:SchedulerBase.obj
 0001:00061094       ?Delta@?$LockFreeStack@VExternalContextBase@details@Concurrency@@@details@Concurrency@@CAPEAVExternalContextBase@23@PEAX@Z 0000000140062094 f i libconcrt:SchedulerBase.obj
 0001:000610a4       ?Delta@?$LockFreeStack@VRealizedChore@details@Concurrency@@@details@Concurrency@@CAPEAVRealizedChore@23@PEAX@Z 00000001400620a4 f i libconcrt:SchedulerBase.obj
 0001:000610a4       ?Delta@?$LockFreeStack@VInternalContextBase@details@Concurrency@@@details@Concurrency@@CAPEAVInternalContextBase@23@PEAX@Z 00000001400620a4 f i libconcrt:SchedulerBase.obj
 0001:000610b4       ?Dequeue@?$SQueue@VInternalContextBase@details@Concurrency@@@details@Concurrency@@QEAAPEAVInternalContextBase@23@XZ 00000001400620b4 f i libconcrt:SchedulerBase.obj
 0001:000610dc       ?Dequeue@?$SQueue@VSafePointInvocation@details@Concurrency@@@details@Concurrency@@QEAAPEAVSafePointInvocation@23@XZ 00000001400620dc f i libconcrt:SchedulerBase.obj
 0001:00061100       ?Dequeue@?$SafeSQueue@VInternalContextBase@details@Concurrency@@V_HyperNonReentrantLock@23@@details@Concurrency@@QEAAPEAVInternalContextBase@23@XZ 0000000140062100 f i libconcrt:SchedulerBase.obj
 0001:00061164       ?DereferenceStaticOneShot@SchedulerBase@details@Concurrency@@SAJXZ 0000000140062164 f i libconcrt:SchedulerBase.obj
 0001:00061174       ?DestroySchedulerEventHandlers@SchedulerBase@details@Concurrency@@MEAAXXZ 0000000140062174 f   libconcrt:SchedulerBase.obj
 0001:000611e0       ?Detach@SchedulerBase@details@Concurrency@@QEAAXXZ 00000001400621e0 f   libconcrt:SchedulerBase.obj
 0001:00061298       ?DetachExternalContext@SchedulerBase@details@Concurrency@@AEAAXPEAVExternalContextBase@23@_N@Z 0000000140062298 f   libconcrt:SchedulerBase.obj
 0001:00061308       ?Enqueue@?$SQueue@VSafePointInvocation@details@Concurrency@@@details@Concurrency@@QEAAXPEAVSafePointInvocation@23@@Z 0000000140062308 f i libconcrt:SchedulerBase.obj
 0001:0006131c       ?Exercise@ClaimTicket@VirtualProcessor@details@Concurrency@@QEAA_NPEAVScheduleGroupSegmentBase@34@@Z 000000014006231c f i libconcrt:SchedulerBase.obj
 0001:00061340       ?ExerciseWakesExisting@ClaimTicket@VirtualProcessor@details@Concurrency@@QEBA_NXZ 0000000140062340 f i libconcrt:SchedulerBase.obj
 0001:00061350       ?FastCurrentContext@SchedulerBase@details@Concurrency@@SAPEAVContextBase@23@XZ 0000000140062350 f   libconcrt:SchedulerBase.obj
 0001:0006135c       ?FastCurrentScheduler@SchedulerBase@details@Concurrency@@SAPEAV123@XZ 000000014006235c f   libconcrt:SchedulerBase.obj
 0001:00061380       ?Fill@QuickBitSet@details@Concurrency@@QEAAXXZ 0000000140062380 f i libconcrt:SchedulerBase.obj
 0001:00061408       ?Finalize@SchedulerBase@details@Concurrency@@AEAAXXZ 0000000140062408 f   libconcrt:SchedulerBase.obj
 0001:0006159c       ?Find@?$Hash@II@details@Concurrency@@QEAAPEAUListNode@123@AEBIPEAI@Z 000000014006259c f i libconcrt:SchedulerBase.obj
 0001:00061618       ?FindCurrentNode@SchedulerBase@details@Concurrency@@QEAAPEAVSchedulingNode@23@XZ 0000000140062618 f   libconcrt:SchedulerBase.obj
 0001:0006167c       ?FindNodeByLocation@SchedulerBase@details@Concurrency@@QEAAPEAVSchedulingNode@23@PEAVlocation@3@@Z 000000014006267c f   libconcrt:SchedulerBase.obj
 0001:000616e4       ?FindScheduleGroupSegment@SchedulingRing@details@Concurrency@@AEAAPEAVScheduleGroupSegmentBase@23@HHPEAHPEAV?$ListArray@VScheduleGroupSegmentBase@details@Concurrency@@@23@@Z 00000001400626e4 f i libconcrt:SchedulerBase.obj
 0001:00061768       ?FindVirtualProcessor@SchedulingNode@details@Concurrency@@QEAAPEAVVirtualProcessor@23@HHPEAH@Z 0000000140062768 f i libconcrt:SchedulerBase.obj
 0001:000617f4       ?Flush@?$LockFreePushStack@VContextNode@SchedulerBase@details@Concurrency@@@details@Concurrency@@QEAAPEAVContextNode@SchedulerBase@23@XZ 00000001400627f4 f i libconcrt:SchedulerBase.obj
 0001:000617fc       ?Flush@?$LockFreeStack@VExternalContextBase@details@Concurrency@@@details@Concurrency@@QEAAPEAVExternalContextBase@23@XZ 00000001400627fc f i libconcrt:SchedulerBase.obj
 0001:00061818       ?Flush@?$LockFreeStack@VRealizedChore@details@Concurrency@@@details@Concurrency@@QEAAPEAVRealizedChore@23@XZ 0000000140062818 f i libconcrt:SchedulerBase.obj
 0001:00061834       ?FoundAvailableVirtualProcessor@SchedulerBase@details@Concurrency@@QEAA_NAEAVClaimTicket@VirtualProcessor@23@Vlocation@3@K@Z 0000000140062834 f   libconcrt:SchedulerBase.obj
 0001:000619a0       ?FoundBlockedContexts@SchedulerBase@details@Concurrency@@AEAA_NXZ 00000001400629a0 f   libconcrt:SchedulerBase.obj
 0001:000619d4       ?FoundUnstartedChores@SchedulerBase@details@Concurrency@@AEAA_NXZ 00000001400629d4 f   libconcrt:SchedulerBase.obj
 0001:00061b84       ?FreeNode@?$Hash@II@details@Concurrency@@CAXPEAUListNode@123@@Z 0000000140062b84 f i libconcrt:SchedulerBase.obj
 0001:00061b90       ?GetAnonymousScheduleGroup@SchedulerBase@details@Concurrency@@QEAAPEAVScheduleGroupBase@23@XZ 0000000140062b90 f i libconcrt:SchedulerBase.obj
 0001:00061b98       ?GetAnonymousScheduleGroupSegment@SchedulerBase@details@Concurrency@@QEAAPEAVScheduleGroupSegmentBase@23@XZ 0000000140062b98 f   libconcrt:SchedulerBase.obj
 0001:00061bac       ?GetBitSet@SchedulerBase@details@Concurrency@@QEAA?AVQuickBitSet@23@PEBVlocation@3@@Z 0000000140062bac f   libconcrt:SchedulerBase.obj
 0001:00061cb4       ?GetDefaultScheduler@SchedulerBase@details@Concurrency@@CAPEAV123@XZ 0000000140062cb4 f   libconcrt:SchedulerBase.obj
 0001:00061d8c       ?GetDequeuedTaskCount@ExternalStatistics@details@Concurrency@@QEAAIXZ 0000000140062d8c f i libconcrt:SchedulerBase.obj
 0001:00061d98       ?GetDequeuedTaskCount@SchedulerBase@details@Concurrency@@QEAAIXZ 0000000140062d98 f i libconcrt:SchedulerBase.obj
 0001:00061db0       ?GetDequeuedTaskCount@VirtualProcessor@details@Concurrency@@AEAAIXZ 0000000140062db0 f i libconcrt:SchedulerBase.obj
 0001:00061dc8       ?GetEnqueuedTaskCount@ExternalStatistics@details@Concurrency@@QEAAIXZ 0000000140062dc8 f i libconcrt:SchedulerBase.obj
 0001:00061dd4       ?GetEnqueuedTaskCount@SchedulerBase@details@Concurrency@@QEAAIXZ 0000000140062dd4 f i libconcrt:SchedulerBase.obj
 0001:00061dec       ?GetEnqueuedTaskCount@VirtualProcessor@details@Concurrency@@AEAAIXZ 0000000140062dec f i libconcrt:SchedulerBase.obj
 0001:00061e04       ?GetExternalContext@SchedulerBase@details@Concurrency@@AEAAPEAVExternalContextBase@23@_N@Z 0000000140062e04 f   libconcrt:SchedulerBase.obj
 0001:00061e84       ?GetFirstAffineScheduleGroupSegment@SchedulingRing@details@Concurrency@@QEAAPEAVScheduleGroupSegmentBase@23@PEAH@Z 0000000140062e84 f i libconcrt:SchedulerBase.obj
 0001:00061ea4       ?GetFirstNonAffineScheduleGroupSegment@SchedulingRing@details@Concurrency@@QEAAPEAVScheduleGroupSegmentBase@23@PEAH@Z 0000000140062ea4 f i libconcrt:SchedulerBase.obj
 0001:00061ec8       ?GetFirstScheduleGroupSegment@SchedulingRing@details@Concurrency@@AEAAPEAVScheduleGroupSegmentBase@23@PEAHPEAV?$ListArray@VScheduleGroupSegmentBase@details@Concurrency@@@23@@Z 0000000140062ec8 f i libconcrt:SchedulerBase.obj
 0001:00061ee8       ?GetFirstVirtualProcessor@SchedulingNode@details@Concurrency@@QEAAPEAVVirtualProcessor@23@PEAH@Z 0000000140062ee8 f i libconcrt:SchedulerBase.obj
 0001:00061efc       ?GetInternalContext@SchedulerBase@details@Concurrency@@QEAAPEAVInternalContextBase@23@_N@Z 0000000140062efc f   libconcrt:SchedulerBase.obj
 0001:00062038       ?GetMaskIdCount@SchedulerBase@details@Concurrency@@QEBAIXZ 0000000140063038 f i libconcrt:SchedulerBase.obj
 0001:00062040       ?GetNewContextId@SchedulerBase@details@Concurrency@@QEAAIXZ 0000000140063040 f   libconcrt:SchedulerBase.obj
 0001:00062050       ?GetNewScheduleGroupId@SchedulerBase@details@Concurrency@@QEAAIXZ 0000000140063050 f   libconcrt:SchedulerBase.obj
 0001:00062060       ?GetNewWorkQueueId@SchedulerBase@details@Concurrency@@SAIXZ 0000000140063060 f   libconcrt:SchedulerBase.obj
 0001:00062070       ?GetNextAffineScheduleGroupSegment@SchedulingRing@details@Concurrency@@QEAAPEAVScheduleGroupSegmentBase@23@PEAHH@Z 0000000140063070 f i libconcrt:SchedulerBase.obj
 0001:0006207c       ?GetNextNonAffineScheduleGroupSegment@SchedulingRing@details@Concurrency@@QEAAPEAVScheduleGroupSegmentBase@23@PEAHH@Z 000000014006307c f i libconcrt:SchedulerBase.obj
 0001:00062088       ?GetNextPriorityObject@SchedulerBase@details@Concurrency@@QEAAPEAUBoostedObject@23@XZ 0000000140063088 f   libconcrt:SchedulerBase.obj
 0001:0006210c       ?GetNextScheduleGroupSegment@SchedulingRing@details@Concurrency@@AEAAPEAVScheduleGroupSegmentBase@23@PEAHHPEAV?$ListArray@VScheduleGroupSegmentBase@details@Concurrency@@@23@@Z 000000014006310c f i libconcrt:SchedulerBase.obj
 0001:00062184       ?GetNextSchedulingRing@SchedulerBase@details@Concurrency@@QEAAPEAVSchedulingRing@23@PEBV423@PEAV423@@Z 0000000140063184 f   libconcrt:SchedulerBase.obj
 0001:000621c4       ?GetNextSchedulingRing@SchedulerBase@details@Concurrency@@QEAAPEAVSchedulingRing@23@XZ 00000001400631c4 f   libconcrt:SchedulerBase.obj
 0001:00062200       ?GetNextValidSchedulingRingIndex@SchedulerBase@details@Concurrency@@AEAAHH@Z 0000000140063200 f   libconcrt:SchedulerBase.obj
 0001:00062224       ?GetNextVirtualProcessor@SchedulingNode@details@Concurrency@@QEAAPEAVVirtualProcessor@23@PEAHH@Z 0000000140063224 f i libconcrt:SchedulerBase.obj
 0001:00062288       ?GetNumberOfBoundContexts@SchedulerBase@details@Concurrency@@IEBAKXZ 0000000140063288 f i libconcrt:SchedulerBase.obj
 0001:00062290       ?GetOwningNode@VirtualProcessor@details@Concurrency@@QEAAPEAVSchedulingNode@23@XZ 0000000140063290 f i libconcrt:SchedulerBase.obj
 0001:00062298       ?GetOwningRoot@VirtualProcessor@details@Concurrency@@QEAAPEAUIVirtualProcessorRoot@3@XZ 0000000140063298 f i libconcrt:SchedulerBase.obj
 0001:000622a0       ?GetPolicy@SchedulerBase@details@Concurrency@@UEBA?AVSchedulerPolicy@3@XZ 00000001400632a0 f   libconcrt:SchedulerBase.obj
 0001:000622c0       ?GetRealizedChore@SchedulerBase@details@Concurrency@@QEAAPEAVRealizedChore@23@P6AXPEAX@Z0@Z 00000001400632c0 f   libconcrt:SchedulerBase.obj
 0001:00062324       ?GetReservedContext@SchedulerBase@details@Concurrency@@QEAAPEAVInternalContextBase@23@XZ 0000000140063324 f i libconcrt:SchedulerBase.obj
 0001:00062348       ?GetResourceSet@SchedulingNode@details@Concurrency@@QEAAAEBVQuickBitSet@23@XZ 0000000140063348 f i libconcrt:SchedulerBase.obj
 0001:00062348       ?GetExecutionResource@VirtualProcessorRoot@details@Concurrency@@QEAAPEAVExecutionResource@23@XZ 0000000140063348 f i libconcrt:SchedulerProxy.obj
 0001:00062348       ?raw_name@type_info@@QEBAPEBDXZ 0000000140063348 f i libvcruntime:ehhelpers.obj
 0001:00062348       ?_Getptr@?$_Ref_count_obj@V__ExceptionPtr@@@std@@QEAAPEAV__ExceptionPtr@@XZ 0000000140063348 f i libcpmt:excptptr.obj
 0001:00062348       ?_Getptr@?$_Ref_count_obj_alloc@V__ExceptionPtr@@U?$_StaticAllocator@H@@@std@@QEAAPEAV__ExceptionPtr@@XZ 0000000140063348 f i libcpmt:excptptr.obj
 0001:00062350       ?GetRunnableContext@FairScheduleGroupSegment@details@Concurrency@@EEAAPEAVInternalContextBase@23@XZ 0000000140063350 f i libconcrt:SchedulerBase.obj
 0001:00062350       ?GetRunnableContext@CacheLocalScheduleGroupSegment@details@Concurrency@@EEAAPEAVInternalContextBase@23@XZ 0000000140063350 f i libconcrt:SchedulerBase.obj
 0001:00062368       ?GetSchedulerProxy@SchedulerBase@details@Concurrency@@QEBAPEAUISchedulerProxy@3@XZ 0000000140063368 f i libconcrt:SchedulerBase.obj
 0001:00062370       ?GetSubAllocator@SchedulerBase@details@Concurrency@@SAPEAVSubAllocator@23@_N@Z 0000000140063370 f   libconcrt:SchedulerBase.obj
 0001:00062414       ?GetValidSchedulingRingIndex@SchedulerBase@details@Concurrency@@AEAAHH@Z 0000000140063414 f   libconcrt:SchedulerBase.obj
 0001:0006244c       ?Grow@QuickBitSet@details@Concurrency@@QEAAXI@Z 000000014006344c f i libconcrt:SchedulerBase.obj
 0001:000624f4       ?Grow@ReferenceCountedQuickBitSet@details@Concurrency@@QEAAXI@Z 00000001400634f4 f i libconcrt:SchedulerBase.obj
 0001:00062598       ?HasCompletedShutdown@SchedulerBase@details@Concurrency@@QEAA_NXZ 0000000140063598 f   libconcrt:SchedulerBase.obj
 0001:000625ac       ?HasVirtualProcessorAvailable@SchedulingNode@details@Concurrency@@QEBA_NXZ 00000001400635ac f i libconcrt:SchedulerBase.obj
 0001:000625b8       ?HasVirtualProcessorPendingThreadCreate@SchedulerBase@details@Concurrency@@QEBA_NXZ 00000001400635b8 f i libconcrt:SchedulerBase.obj
 0001:000625c4       ?HashValue@?$Hash@II@details@Concurrency@@CAIAEBIH@Z 00000001400635c4 f i libconcrt:SchedulerBase.obj
 0001:00062600       ?GetId@InternalContextBase@details@Concurrency@@UEBAIXZ 0000000140063600 f i libconcrt:InternalContextBase.obj
 0001:00062600       ?Id@ScheduleGroupBase@details@Concurrency@@UEBAIXZ 0000000140063600 f i libconcrt:SchedulerBase.obj
 0001:00062604       ?Id@SchedulerBase@details@Concurrency@@UEBAIXZ 0000000140063604 f i libconcrt:SchedulerBase.obj
 0001:0006260c       ?Id@SchedulingRing@details@Concurrency@@QEBAHXZ 000000014006360c f i libconcrt:SchedulerBase.obj
 0001:00062614       ?InFinalizationSweep@SchedulerBase@details@Concurrency@@QEAA_NXZ 0000000140063614 f   libconcrt:SchedulerBase.obj
 0001:00062628       ?InitializeSchedulerEventHandlers@SchedulerBase@details@Concurrency@@MEAAXXZ 0000000140063628 f   libconcrt:SchedulerBase.obj
 0001:00062628       ?IncrementInternalContextCount@SchedulerBase@details@Concurrency@@QEAAXXZ 0000000140063628 f   libconcrt:SchedulerBase.obj
 0001:00062630       ?Initialize@RealizedChore@details@Concurrency@@QEAAXP6AXPEAX@Z0@Z 0000000140063630 f i libconcrt:SchedulerBase.obj
 0001:00062640       ?Initialize@SchedulerBase@details@Concurrency@@AEAAXXZ 0000000140063640 f   libconcrt:SchedulerBase.obj
 0001:00062bbc       ?Insert@?$Hash@II@details@Concurrency@@QEAAPEAUListNode@123@AEBI0@Z 0000000140063bbc f i libconcrt:SchedulerBase.obj
 0001:00062c98       ?InternalCreateScheduleGroup@SchedulerBase@details@Concurrency@@AEAAPEAVScheduleGroup@3@PEAVlocation@3@@Z 0000000140063c98 f   libconcrt:SchedulerBase.obj
 0001:00062da8       ?InternalReference@ScheduleGroupBase@details@Concurrency@@IEAAJXZ 0000000140063da8 f i libconcrt:SchedulerBase.obj
 0001:00062da8       ?Reference@ScheduleGroupBase@details@Concurrency@@UEAAIXZ 0000000140063da8 f i libconcrt:SchedulerBase.obj
 0001:00062dc0       ?InternalRelease@ScheduleGroupBase@details@Concurrency@@IEAAJXZ 0000000140063dc0 f i libconcrt:SchedulerBase.obj
 0001:00062e18       ?Intersects@QuickBitSet@details@Concurrency@@QEBA_NAEBV123@@Z 0000000140063e18 f i libconcrt:SchedulerBase.obj
 0001:00062e54       ?Invoke@SafePointInvocation@details@Concurrency@@AEAAXXZ 0000000140063e54 f i libconcrt:SchedulerBase.obj
 0001:00062e64       ?InvokeAtNextSafePoint@SafePointInvocation@details@Concurrency@@QEAAXP6AXPEAX@Z0PEAVSchedulerBase@23@@Z 0000000140063e64 f   libconcrt:SchedulerBase.obj
 0001:00062e90       ?InvokeOnSafePoint@SchedulerBase@details@Concurrency@@AEAAXPEAVSafePointInvocation@23@@Z 0000000140063e90 f   libconcrt:SchedulerBase.obj
 0001:00062f08       ?IsActive@ExternalStatistics@details@Concurrency@@QEAA_NXZ 0000000140063f08 f i libconcrt:SchedulerBase.obj
 0001:00062f28       ?IsActive@SchedulingRing@details@Concurrency@@QEBA_NXZ 0000000140063f28 f i libconcrt:SchedulerBase.obj
 0001:00062f34       ?IsAvailableLocation@SchedulerBase@details@Concurrency@@UEBA_NAEBVlocation@3@@Z 0000000140063f34 f   libconcrt:SchedulerBase.obj
 0001:00062f98       ?IsBlocked@ContextBase@details@Concurrency@@QEBA_NXZ 0000000140063f98 f i libconcrt:SchedulerBase.obj
 0001:00062fa4       ?IsExternal@ContextBase@details@Concurrency@@QEBA_NXZ 0000000140063fa4 f i libconcrt:SchedulerBase.obj
 0001:00062fac       ?IsExternalAllocator@SubAllocator@details@Concurrency@@QEAA_NXZ 0000000140063fac f i libconcrt:SchedulerBase.obj
 0001:00062fb4       ?IsIdle@InternalContextBase@details@Concurrency@@QEBA_NXZ 0000000140063fb4 f i libconcrt:SchedulerBase.obj
 0001:00062fbc       ?IsSet@QuickBitSet@details@Concurrency@@QEBA_NI@Z 0000000140063fbc f i libconcrt:SchedulerBase.obj
 0001:00062fd8       ?IsVisibleVersion@SchedulerBase@details@Concurrency@@AEAA_NK@Z 0000000140063fd8 f i libconcrt:SchedulerBase.obj
 0001:00062fe4       ?Lookup@?$Hash@II@details@Concurrency@@AEAAPEAUListNode@123@AEBIH@Z 0000000140063fe4 f i libconcrt:SchedulerBase.obj
 0001:00063008       ?MailChore@FairScheduleGroup@details@Concurrency@@UEAA?AVSlot@?$Mailbox@V_UnrealizedChore@details@Concurrency@@@23@PEAV_UnrealizedChore@23@PEAVlocation@3@PEAPEAVScheduleGroupSegmentBase@23@@Z 0000000140064008 f i libconcrt:SchedulerBase.obj
 0001:00063014       ?MarkSafePoint@SchedulerBase@details@Concurrency@@QEAA_NPEAVSafePointMarker@23@@Z 0000000140064014 f   libconcrt:SchedulerBase.obj
 0001:0006302c       ?MaxIndex@?$ListArray@VWorkQueue@details@Concurrency@@@details@Concurrency@@QEAAHXZ 000000014006402c f i libconcrt:ScheduleGroupBase.obj
 0001:0006302c       ?MaxIndex@?$ListArray@VScheduleGroupSegmentBase@details@Concurrency@@@details@Concurrency@@QEAAHXZ 000000014006402c f i libconcrt:SchedulerBase.obj
 0001:0006302c       ?MaxIndex@?$ListArray@U?$ListArrayInlineLink@VWorkQueue@details@Concurrency@@@details@Concurrency@@@details@Concurrency@@QEAAHXZ 000000014006402c f i libconcrt:ScheduleGroupBase.obj
 0001:0006302c       ?MaxIndex@?$ListArray@VExternalStatistics@details@Concurrency@@@details@Concurrency@@QEAAHXZ 000000014006402c f i libconcrt:SchedulerBase.obj
 0001:0006302c       ?MaxIndex@?$ListArray@VVirtualProcessor@details@Concurrency@@@details@Concurrency@@QEAAHXZ 000000014006402c f i libconcrt:SchedulerBase.obj
 0001:00063030       ?Next@?$LockFreeStack@VExternalContextBase@details@Concurrency@@@details@Concurrency@@SAPEAVExternalContextBase@23@PEAV423@@Z 0000000140064030 f i libconcrt:SchedulerBase.obj
 0001:00063044       ?Next@?$LockFreeStack@VRealizedChore@details@Concurrency@@@details@Concurrency@@SAPEAVRealizedChore@23@PEAV423@@Z 0000000140064044 f i libconcrt:SchedulerBase.obj
 0001:00063058       ?NotifyResource@SchedulingNode@details@Concurrency@@QEAAXII@Z 0000000140064058 f i libconcrt:SchedulerBase.obj
 0001:0006307c       ?NotifyThrottledContext@SchedulerBase@details@Concurrency@@AEAA_NPEAVInternalContextBase@23@@Z 000000014006407c f   libconcrt:SchedulerBase.obj
 0001:00063128       ?ObservedVersion@SchedulerBase@details@Concurrency@@AEAAKK@Z 0000000140064128 f i libconcrt:SchedulerBase.obj
 0001:0006313c       ?OneShotStaticConstruction@SchedulerBase@details@Concurrency@@CAXXZ 000000014006413c f   libconcrt:SchedulerBase.obj
 0001:0006315c       ?OneShotStaticDestruction@SchedulerBase@details@Concurrency@@CAXXZ 000000014006415c f   libconcrt:SchedulerBase.obj
 0001:0006317c       ?PerformServiceScan@SchedulerBase@details@Concurrency@@AEAAX_K@Z 000000014006417c f   libconcrt:SchedulerBase.obj
 0001:00063454       ?PhaseOneShutdown@SchedulerBase@details@Concurrency@@AEAAXXZ 0000000140064454 f   libconcrt:SchedulerBase.obj
 0001:00063530       ?PhaseTwoShutdown@SchedulerBase@details@Concurrency@@AEAAXXZ 0000000140064530 f   libconcrt:SchedulerBase.obj
 0001:00063608       ?Pop@?$LockFreeStack@VExternalContextBase@details@Concurrency@@@details@Concurrency@@QEAAPEAVExternalContextBase@23@XZ 0000000140064608 f i libconcrt:SchedulerBase.obj
 0001:00063624       ?Pop@?$LockFreeStack@VInternalContextBase@details@Concurrency@@@details@Concurrency@@QEAAPEAVInternalContextBase@23@XZ 0000000140064624 f i libconcrt:SchedulerBase.obj
 0001:00063640       ?Pop@?$LockFreeStack@VRealizedChore@details@Concurrency@@@details@Concurrency@@QEAAPEAVRealizedChore@23@XZ 0000000140064640 f i libconcrt:SchedulerBase.obj
 0001:0006365c       ?Pop@?$LockFreeStack@VSubAllocator@details@Concurrency@@@details@Concurrency@@QEAAPEAVSubAllocator@23@XZ 000000014006465c f i libconcrt:SchedulerBase.obj
 0001:00063664       ?PublishNewDataVersion@SchedulerBase@details@Concurrency@@AEAAKXZ 0000000140064664 f i libconcrt:SchedulerBase.obj
 0001:00063688       ?PullFromFreePool@?$ListArray@VScheduleGroupBase@details@Concurrency@@@details@Concurrency@@QEAAPEAVScheduleGroupBase@23@XZ 0000000140064688 f i libconcrt:SchedulerBase.obj
 0001:000636a0       ?Push@?$LockFreePushStack@VContextNode@SchedulerBase@details@Concurrency@@@details@Concurrency@@QEAAXPEAVContextNode@SchedulerBase@23@@Z 00000001400646a0 f i libconcrt:SchedulerBase.obj
 0001:000636b4       ?Push@?$LockFreeStack@VExternalContextBase@details@Concurrency@@@details@Concurrency@@QEAAXPEAVExternalContextBase@23@@Z 00000001400646b4 f i libconcrt:SchedulerBase.obj
 0001:000636c0       ?Push@?$LockFreeStack@VInternalContextBase@details@Concurrency@@@details@Concurrency@@QEAAXPEAVInternalContextBase@23@@Z 00000001400646c0 f i libconcrt:SchedulerBase.obj
 0001:000636c0       ?Push@?$LockFreeStack@VRealizedChore@details@Concurrency@@@details@Concurrency@@QEAAXPEAVRealizedChore@23@@Z 00000001400646c0 f i libconcrt:SchedulerBase.obj
 0001:000636cc       ?Push@?$LockFreeStack@VSubAllocator@details@Concurrency@@@details@Concurrency@@QEAAXPEAVSubAllocator@23@@Z 00000001400646cc f i libconcrt:SchedulerBase.obj
 0001:000636d4       ?PushRunnableToInactive@SchedulerBase@details@Concurrency@@UEAA_NPEAVInternalContextBase@23@Vlocation@3@@Z 00000001400646d4 f   libconcrt:SchedulerBase.obj
 0001:00063784       ?Reallocate@QuickBitSet@details@Concurrency@@IEAAXI@Z 0000000140064784 f i libconcrt:SchedulerBase.obj
 0001:000637d0       ?Reference@SchedulerBase@details@Concurrency@@UEAAIXZ 00000001400647d0 f   libconcrt:SchedulerBase.obj
 0001:0006385c       ?ReferenceForAttach@SchedulerBase@details@Concurrency@@IEAAXXZ 000000014006485c f   libconcrt:SchedulerBase.obj
 0001:00063874       ?RegisterShutdownEvent@SchedulerBase@details@Concurrency@@UEAAXPEAX@Z 0000000140064874 f   libconcrt:SchedulerBase.obj
 0001:0006395c       ?Release@?$SafeSQueue@VSafePointInvocation@details@Concurrency@@V_HyperNonReentrantLock@23@@details@Concurrency@@QEBAXXZ 000000014006495c f i libconcrt:SchedulerBase.obj
 0001:00063968       ?Release@ScheduleGroupBase@details@Concurrency@@UEAAIXZ 0000000140064968 f i libconcrt:SchedulerBase.obj
 0001:000639c0       ?Release@SchedulerBase@details@Concurrency@@UEAAIXZ 00000001400649c0 f   libconcrt:SchedulerBase.obj
 0001:000639e4       ?ReleaseExternalContext@SchedulerBase@details@Concurrency@@AEAAXPEAVExternalContextBase@23@@Z 00000001400649e4 f   libconcrt:SchedulerBase.obj
 0001:00063a58       ?ReleaseForDetach@SchedulerBase@details@Concurrency@@IEAAXXZ 0000000140064a58 f   libconcrt:SchedulerBase.obj
 0001:00063a70       ?ReleaseInternalContext@SchedulerBase@details@Concurrency@@QEAAXPEAVInternalContextBase@23@_N@Z 0000000140064a70 f   libconcrt:SchedulerBase.obj
 0001:00063abc       ?ReleaseRealizedChore@SchedulerBase@details@Concurrency@@QEAAXPEAVRealizedChore@23@@Z 0000000140064abc f   libconcrt:SchedulerBase.obj
 0001:00063b28       ?ReleaseReservedContexts@SchedulerBase@details@Concurrency@@QEAAXXZ 0000000140064b28 f   libconcrt:SchedulerBase.obj
 0001:00063bbc       ?ReleaseSuspendedVirtualProcessors@SchedulerBase@details@Concurrency@@AEAAXJ@Z 0000000140064bbc f   libconcrt:SchedulerBase.obj
 0001:00063bdc       ?ReleaseWrite@?$SafeRWList@UListEntry@details@Concurrency@@VNoCount@CollectionTypes@23@V_ReaderWriterLock@23@@details@Concurrency@@QEBAXXZ 0000000140064bdc f i libconcrt:ContextBase.obj
 0001:00063bdc       ?ReleaseWrite@?$SafeRWList@UBoostedObject@details@Concurrency@@VNoCount@CollectionTypes@23@V_ReaderWriterLock@23@@details@Concurrency@@QEBAXXZ 0000000140064bdc f i libconcrt:SchedulerBase.obj
 0001:00063be8       ?UnlockedRemove@?$SafeRWList@UBoostedObject@details@Concurrency@@VNoCount@CollectionTypes@23@V_ReaderWriterLock@23@@details@Concurrency@@QEAAXPEAUBoostedObject@23@@Z 0000000140064be8 f i libconcrt:SchedulerBase.obj
 0001:00063be8       ?Remove@?$List@UBoostedObject@details@Concurrency@@VNoCount@CollectionTypes@23@@details@Concurrency@@QEAAXPEAUBoostedObject@23@@Z 0000000140064be8 f i libconcrt:SchedulerBase.obj
 0001:00063c1c       ?Remove@?$ListArray@VExternalStatistics@details@Concurrency@@@details@Concurrency@@QEAA_NPEAVExternalStatistics@23@H_N@Z 0000000140064c1c f i libconcrt:SchedulerBase.obj
 0001:00063db0       ?Remove@?$ListArray@VExternalStatistics@details@Concurrency@@@details@Concurrency@@QEAA_NPEAVExternalStatistics@23@_N@Z 0000000140064db0 f i libconcrt:SchedulerBase.obj
 0001:00063dbc       ?Remove@?$ListArray@VScheduleGroupBase@details@Concurrency@@@details@Concurrency@@QEAA_NPEAVScheduleGroupBase@23@H_N@Z 0000000140064dbc f i libconcrt:SchedulerBase.obj
 0001:00063f18       ?Remove@?$ListArray@VScheduleGroupBase@details@Concurrency@@@details@Concurrency@@QEAA_NPEAVScheduleGroupBase@23@_N@Z 0000000140064f18 f i libconcrt:SchedulerBase.obj
 0001:00063f24       ?RemoveHead@?$List@UBoostedObject@details@Concurrency@@VNoCount@CollectionTypes@23@@details@Concurrency@@QEAAPEAUBoostedObject@23@XZ 0000000140064f24 f i libconcrt:SchedulerBase.obj
 0001:00063f58       ?RemoveHead@?$List@VWaitNode@SchedulerBase@details@Concurrency@@VNoCount@CollectionTypes@34@@details@Concurrency@@QEAAPEAVWaitNode@SchedulerBase@23@XZ 0000000140064f58 f i libconcrt:SchedulerBase.obj
 0001:00063f84       ?RemoveHead@?$SafeRWList@VWaitNode@SchedulerBase@details@Concurrency@@VNoCount@CollectionTypes@34@V_ReaderWriterLock@34@@details@Concurrency@@QEAAPEAVWaitNode@SchedulerBase@23@XZ 0000000140064f84 f i libconcrt:SchedulerBase.obj
 0001:00063ff0       ?RemovePrioritizedObject@SchedulerBase@details@Concurrency@@QEAAXPEAUBoostedObject@23@@Z 0000000140064ff0 f   libconcrt:SchedulerBase.obj
 0001:00064070       ?RemoveScheduleGroup@SchedulerBase@details@Concurrency@@QEAAXPEAVScheduleGroupBase@23@@Z 0000000140065070 f   libconcrt:SchedulerBase.obj
 0001:00064084       ?RemoveSegments@FairScheduleGroup@details@Concurrency@@MEAAXXZ 0000000140065084 f i libconcrt:SchedulerBase.obj
 0001:000640a0       ?RemoveVirtualProcessors@SchedulerBase@details@Concurrency@@IEAAXPEAPEAUIVirtualProcessorRoot@3@I@Z 00000001400650a0 f   libconcrt:SchedulerBase.obj
 0001:000641b4       ?ResetDefaultSchedulerPolicy@Scheduler@Concurrency@@SAXXZ 00000001400651b4 f   libconcrt:SchedulerBase.obj
 0001:000641bc       ?ResetDefaultSchedulerPolicy@SchedulerBase@details@Concurrency@@SAXXZ 00000001400651bc f   libconcrt:SchedulerBase.obj
 0001:00064234       ?Resurrect@SchedulerBase@details@Concurrency@@AEAAXXZ 0000000140065234 f   libconcrt:SchedulerBase.obj
 0001:000642a4       ?ReturnSubAllocator@SchedulerBase@details@Concurrency@@SAXPEAVSubAllocator@23@@Z 00000001400652a4 f   libconcrt:SchedulerBase.obj
 0001:0006431c       ?SafeFastCurrentContext@SchedulerBase@details@Concurrency@@SAPEAVContextBase@23@XZ 000000014006531c f   libconcrt:SchedulerBase.obj
 0001:00064338       ?SafeFastCurrentScheduler@SchedulerBase@details@Concurrency@@SAPEAV123@XZ 0000000140065338 f   libconcrt:SchedulerBase.obj
 0001:00064378       ?SafeReference@SchedulerBase@details@Concurrency@@AEAA_NXZ 0000000140065378 f   libconcrt:SchedulerBase.obj
 0001:0006439c       ?ScheduleTask@SchedulerBase@details@Concurrency@@UEAAXP6AXPEAX@Z0@Z 000000014006539c f   libconcrt:SchedulerBase.obj
 0001:00064414       ?ScheduleTask@SchedulerBase@details@Concurrency@@UEAAXP6AXPEAX@Z0AEAVlocation@3@@Z 0000000140065414 f   libconcrt:SchedulerBase.obj
 0001:00064498       ?Set@QuickBitSet@details@Concurrency@@QEAAXI@Z 0000000140065498 f i libconcrt:SchedulerBase.obj
 0001:000644b4       ?SetDefaultSchedulerPolicy@Scheduler@Concurrency@@SAXAEBVSchedulerPolicy@2@@Z 00000001400654b4 f   libconcrt:SchedulerBase.obj
 0001:000644bc       ?SetDefaultSchedulerPolicy@SchedulerBase@details@Concurrency@@SAXAEBVSchedulerPolicy@3@@Z 00000001400654bc f   libconcrt:SchedulerBase.obj
 0001:000645bc       ?SetExternalAllocatorFlag@SubAllocator@details@Concurrency@@QEAAX_N@Z 00000001400655bc f i libconcrt:SchedulerBase.obj
 0001:000645c4       ?SetNextSchedulingRing@SchedulerBase@details@Concurrency@@QEAAXPEAVSchedulingRing@23@@Z 00000001400655c4 f   libconcrt:SchedulerBase.obj
 0001:000645f8       ?SetOwningNode@SchedulingRing@details@Concurrency@@AEAAXPEAVSchedulingNode@23@@Z 00000001400655f8 f i libconcrt:SchedulerBase.obj
 0001:00064600       ?SetScheduler@?$ListArray@VScheduleGroupBase@details@Concurrency@@@details@Concurrency@@QEAAXPEAVSchedulerBase@23@@Z 0000000140065600 f i libconcrt:SchedulerBase.obj
 0001:00064608       ?SpinUntilBitsReset@details@Concurrency@@YAJPECJJ@Z 0000000140065608 f i libconcrt:SchedulerBase.obj
 0001:0006464c       ?SpinUntilBitsSet@details@Concurrency@@YAJPECJJ@Z 000000014006564c f i libconcrt:SchedulerBase.obj
 0001:0006469c       ?StampThrottledCreate@SchedulerBase@details@Concurrency@@QEAAXXZ 000000014006569c f i libconcrt:SchedulerBase.obj
 0001:000646b8       ?StartupIdleVirtualProcessor@SchedulerBase@details@Concurrency@@QEAA_NPEAVScheduleGroupSegmentBase@23@Vlocation@3@@Z 00000001400656b8 f i libconcrt:SchedulerBase.obj
 0001:000646f4       ?StartupNewVirtualProcessor@SchedulerBase@details@Concurrency@@UEAAXPEAVScheduleGroupSegmentBase@23@Vlocation@3@@Z 00000001400656f4 f i libconcrt:SchedulerBase.obj
 0001:00064730       ?StartupVirtualProcessor@SchedulerBase@details@Concurrency@@QEAA_NPEAVScheduleGroupSegmentBase@23@Vlocation@3@K@Z 0000000140065730 f   libconcrt:SchedulerBase.obj
 0001:000647c8       ?StaticConstruction@SchedulerBase@details@Concurrency@@CAXXZ 00000001400657c8 f   libconcrt:SchedulerBase.obj
 0001:000647e0       ?StaticDestruction@SchedulerBase@details@Concurrency@@CAXXZ 00000001400657e0 f   libconcrt:SchedulerBase.obj
 0001:00064894       ?Statistics@SchedulerBase@details@Concurrency@@IEAAXPEAI00@Z 0000000140065894 f   libconcrt:SchedulerBase.obj
 0001:00064ae4       ?StealForeignLocalRunnableContext@SchedulerBase@details@Concurrency@@QEAAPEAVInternalContextBase@23@PEAVSchedulingNode@23@@Z 0000000140065ae4 f   libconcrt:SchedulerBase.obj
 0001:00064b48       ?SweepSchedulerForFinalize@SchedulerBase@details@Concurrency@@AEAAXXZ 0000000140065b48 f   libconcrt:SchedulerBase.obj
 0001:00064c1c       ?ThrottlerDispatch@SchedulerBase@details@Concurrency@@AEAAXXZ 0000000140065c1c f   libconcrt:SchedulerBase.obj
 0001:00064d54       ?ThrottlerDispatchBridge@SchedulerBase@details@Concurrency@@CAXPEAU_TP_CALLBACK_INSTANCE@@PEAXPEAU_TP_TIMER@@@Z 0000000140065d54 f i libconcrt:SchedulerBase.obj
 0001:00064d5c       ?ThrottlerDispatchBridgeXP@SchedulerBase@details@Concurrency@@CAXPEAXE@Z 0000000140065d5c f i libconcrt:SchedulerBase.obj
 0001:00064d64       ?ThrottlerTrampoline@SchedulerBase@details@Concurrency@@CAXPEAXE@Z 0000000140065d64 f   libconcrt:SchedulerBase.obj
 0001:00064dac       ?ThrottlingDelta@SchedulerBase@details@Concurrency@@QEAAKXZ 0000000140065dac f i libconcrt:SchedulerBase.obj
 0001:00064dc8       ?ThrottlingTime@SchedulerBase@details@Concurrency@@QEAAKK@Z 0000000140065dc8 f   libconcrt:SchedulerBase.obj
 0001:00064e98       ?ThrowSchedulerEvent@SchedulerBase@details@Concurrency@@CAXW4ConcRT_EventType@3@EI@Z 0000000140065e98 f   libconcrt:SchedulerBase.obj
 0001:00064f20       ?TimeSinceServicing@ScheduleGroupSegmentBase@details@Concurrency@@QEAAK_K@Z 0000000140065f20 f i libconcrt:SchedulerBase.obj
 0001:00064f2c       ?TimeSinceServicing@VirtualProcessor@details@Concurrency@@QEAAK_K@Z 0000000140065f2c f i libconcrt:SchedulerBase.obj
 0001:00064f38       ?TraceSchedulerEvent@SchedulerBase@details@Concurrency@@AEAAXW4ConcRT_EventType@3@EI@Z 0000000140065f38 f i libconcrt:SchedulerBase.obj
 0001:00064f6c       ?TriggerCommitSafePoints@SchedulerBase@details@Concurrency@@QEAAXPEAVSafePointMarker@23@@Z 0000000140065f6c f   libconcrt:SchedulerBase.obj
 0001:00064fcc       ?TypeOfWorkPending@SchedulerBase@details@Concurrency@@MEAA?AW4PendingWorkType@123@XZ 0000000140065fcc f   libconcrt:SchedulerBase.obj
 0001:00065014       ?UnlockedRemoveHead@?$SafeRWList@UBoostedObject@details@Concurrency@@VNoCount@CollectionTypes@23@V_ReaderWriterLock@23@@details@Concurrency@@QEAAPEAUBoostedObject@23@XZ 0000000140066014 f i libconcrt:SchedulerBase.obj
 0001:00065044       ?UpdateCommitVersion@SchedulerBase@details@Concurrency@@AEAAKK@Z 0000000140066044 f   libconcrt:SchedulerBase.obj
 0001:00065090       ?UpdatePendingVersion@SchedulerBase@details@Concurrency@@AEAAKXZ 0000000140066090 f   libconcrt:SchedulerBase.obj
 0001:000650d4       ?VirtualProcessorActive@SchedulerBase@details@Concurrency@@QEAA_N_N@Z 00000001400660d4 f   libconcrt:SchedulerBase.obj
 0001:000651c0       ?VirtualProcessorIdle@SchedulerBase@details@Concurrency@@QEAAX_N@Z 00000001400661c0 f   libconcrt:SchedulerBase.obj
 0001:00065234       ?WasExplicitlyAttached@ExternalContextBase@details@Concurrency@@QEBA_NXZ 0000000140066234 f i libconcrt:SchedulerBase.obj
 0001:0006523c       ?Wipe@?$Hash@II@details@Concurrency@@QEAAXXZ 000000014006623c f i libconcrt:SchedulerBase.obj
 0001:000652bc       ?_Assign@location@Concurrency@@QEAAXAEBV12@@Z 00000001400662bc f i libconcrt:SchedulerBase.obj
 0001:000652f0       ?_GetId@location@Concurrency@@QEBAIXZ 00000001400662f0 f i libconcrt:SchedulerBase.obj
 0001:000652f0       ?GetExecutionResourceTls@?$ThreadProxyFactory@VFreeThreadProxy@details@Concurrency@@@details@Concurrency@@UEAAKXZ 00000001400662f0 f i libconcrt:ThreadProxyFactoryManager.obj
 0001:000652f0       ?GetId@UMSSchedulingContext@details@Concurrency@@UEBAIXZ 00000001400662f0 f i libconcrt:UMSSchedulingContext.obj
 0001:000652f0       ?GetExecutionResourceTls@?$ThreadProxyFactory@VUMSFreeThreadProxy@details@Concurrency@@@details@Concurrency@@UEAAKXZ 00000001400662f0 f i libconcrt:ThreadProxyFactoryManager.obj
 0001:000652f4       ?_GetType@location@Concurrency@@QEBA?AW4_Type@12@XZ 00000001400662f4 f i libconcrt:SchedulerBase.obj
 0001:000652fc       ?_HasWriteLock@_ReaderWriterLock@details@Concurrency@@QEBA_NXZ 00000001400662fc f i libconcrt:SchedulerBase.obj
 0001:00065308       ?_IsEnabled@_CONCRT_TRACE_INFO@details@Concurrency@@QEBA_NEK@Z 0000000140066308 f i libconcrt:SchedulerBase.obj
 0001:00065320       ?_Is_system@location@Concurrency@@QEBA_NXZ 0000000140066320 f i libconcrt:SchedulerBase.obj
 0001:0006532c       ?_Release@_Scheduler@details@Concurrency@@QEAAIXZ 000000014006632c f   libconcrt:SchedulerBase.obj
 0001:00065340       ??0bad_target@Concurrency@@QEAA@PEBD@Z 0000000140066340 f   libconcrt:Exceptions.obj
 0001:0006538c       ??0bad_target@Concurrency@@QEAA@XZ 000000014006638c f   libconcrt:Exceptions.obj
 0001:000653a4       ??0context_self_unblock@Concurrency@@QEAA@PEBD@Z 00000001400663a4 f   libconcrt:Exceptions.obj
 0001:000653f0       ??0context_self_unblock@Concurrency@@QEAA@XZ 00000001400663f0 f   libconcrt:Exceptions.obj
 0001:00065408       ??0context_unblock_unbalanced@Concurrency@@QEAA@PEBD@Z 0000000140066408 f   libconcrt:Exceptions.obj
 0001:00065454       ??0context_unblock_unbalanced@Concurrency@@QEAA@XZ 0000000140066454 f   libconcrt:Exceptions.obj
 0001:0006546c       ??0default_scheduler_exists@Concurrency@@QEAA@PEBD@Z 000000014006646c f   libconcrt:Exceptions.obj
 0001:000654b8       ??0default_scheduler_exists@Concurrency@@QEAA@XZ 00000001400664b8 f   libconcrt:Exceptions.obj
 0001:000654d0       ??0improper_lock@Concurrency@@QEAA@PEBD@Z 00000001400664d0 f   libconcrt:Exceptions.obj
 0001:0006551c       ??0improper_lock@Concurrency@@QEAA@XZ 000000014006651c f   libconcrt:Exceptions.obj
 0001:00065534       ??0improper_scheduler_attach@Concurrency@@QEAA@PEBD@Z 0000000140066534 f   libconcrt:Exceptions.obj
 0001:00065580       ??0improper_scheduler_attach@Concurrency@@QEAA@XZ 0000000140066580 f   libconcrt:Exceptions.obj
 0001:00065598       ??0improper_scheduler_detach@Concurrency@@QEAA@PEBD@Z 0000000140066598 f   libconcrt:Exceptions.obj
 0001:000655e4       ??0improper_scheduler_detach@Concurrency@@QEAA@XZ 00000001400665e4 f   libconcrt:Exceptions.obj
 0001:000655fc       ??0improper_scheduler_reference@Concurrency@@QEAA@PEBD@Z 00000001400665fc f   libconcrt:Exceptions.obj
 0001:00065648       ??0improper_scheduler_reference@Concurrency@@QEAA@XZ 0000000140066648 f   libconcrt:Exceptions.obj
 0001:00065660       ??0invalid_link_target@Concurrency@@QEAA@PEBD@Z 0000000140066660 f   libconcrt:Exceptions.obj
 0001:000656ac       ??0invalid_link_target@Concurrency@@QEAA@XZ 00000001400666ac f   libconcrt:Exceptions.obj
 0001:000656c4       ??0invalid_multiple_scheduling@Concurrency@@QEAA@PEBD@Z 00000001400666c4 f   libconcrt:Exceptions.obj
 0001:00065710       ??0invalid_multiple_scheduling@Concurrency@@QEAA@XZ 0000000140066710 f   libconcrt:Exceptions.obj
 0001:00065728       ??0invalid_oversubscribe_operation@Concurrency@@QEAA@PEBD@Z 0000000140066728 f   libconcrt:Exceptions.obj
 0001:00065774       ??0invalid_oversubscribe_operation@Concurrency@@QEAA@XZ 0000000140066774 f   libconcrt:Exceptions.obj
 0001:0006578c       ??0invalid_scheduler_policy_key@Concurrency@@QEAA@PEBD@Z 000000014006678c f   libconcrt:Exceptions.obj
 0001:000657d8       ??0invalid_scheduler_policy_key@Concurrency@@QEAA@XZ 00000001400667d8 f   libconcrt:Exceptions.obj
 0001:000657f0       ??0invalid_scheduler_policy_thread_specification@Concurrency@@QEAA@PEBD@Z 00000001400667f0 f   libconcrt:Exceptions.obj
 0001:0006583c       ??0invalid_scheduler_policy_thread_specification@Concurrency@@QEAA@XZ 000000014006683c f   libconcrt:Exceptions.obj
 0001:00065854       ??0invalid_scheduler_policy_value@Concurrency@@QEAA@PEBD@Z 0000000140066854 f   libconcrt:Exceptions.obj
 0001:000658a0       ??0invalid_scheduler_policy_value@Concurrency@@QEAA@XZ 00000001400668a0 f   libconcrt:Exceptions.obj
 0001:000658b8       ??0message_not_found@Concurrency@@QEAA@PEBD@Z 00000001400668b8 f   libconcrt:Exceptions.obj
 0001:00065904       ??0message_not_found@Concurrency@@QEAA@XZ 0000000140066904 f   libconcrt:Exceptions.obj
 0001:0006591c       ??0missing_wait@Concurrency@@QEAA@PEBD@Z 000000014006691c f   libconcrt:Exceptions.obj
 0001:00065968       ??0missing_wait@Concurrency@@QEAA@XZ 0000000140066968 f   libconcrt:Exceptions.obj
 0001:00065980       ??0nested_scheduler_missing_detach@Concurrency@@QEAA@PEBD@Z 0000000140066980 f   libconcrt:Exceptions.obj
 0001:000659cc       ??0nested_scheduler_missing_detach@Concurrency@@QEAA@XZ 00000001400669cc f   libconcrt:Exceptions.obj
 0001:000659e4       ??0operation_timed_out@Concurrency@@QEAA@PEBD@Z 00000001400669e4 f   libconcrt:Exceptions.obj
 0001:00065a30       ??0operation_timed_out@Concurrency@@QEAA@XZ 0000000140066a30 f   libconcrt:Exceptions.obj
 0001:00065a48       ??0scheduler_not_attached@Concurrency@@QEAA@PEBD@Z 0000000140066a48 f   libconcrt:Exceptions.obj
 0001:00065a94       ??0scheduler_not_attached@Concurrency@@QEAA@XZ 0000000140066a94 f   libconcrt:Exceptions.obj
 0001:00065aac       ??0scheduler_resource_allocation_error@Concurrency@@QEAA@J@Z 0000000140066aac f   libconcrt:Exceptions.obj
 0001:00065ac8       ??0scheduler_resource_allocation_error@Concurrency@@QEAA@PEBDJ@Z 0000000140066ac8 f   libconcrt:Exceptions.obj
 0001:00065b24       ??0scheduler_worker_creation_error@Concurrency@@QEAA@J@Z 0000000140066b24 f   libconcrt:Exceptions.obj
 0001:00065b40       ??0scheduler_worker_creation_error@Concurrency@@QEAA@PEBDJ@Z 0000000140066b40 f   libconcrt:Exceptions.obj
 0001:00065b64       ??0unsupported_os@Concurrency@@QEAA@PEBD@Z 0000000140066b64 f   libconcrt:Exceptions.obj
 0001:00065bb0       ??0unsupported_os@Concurrency@@QEAA@XZ 0000000140066bb0 f   libconcrt:Exceptions.obj
 0001:00065bc8       ??_Gbad_target@Concurrency@@UEAAPEAXI@Z 0000000140066bc8 f i libconcrt:Exceptions.obj
 0001:00065bc8       ??_Ebad_target@Concurrency@@UEAAPEAXI@Z 0000000140066bc8 f i libconcrt:Exceptions.obj
 0001:00065c0c       ??_Gcontext_self_unblock@Concurrency@@UEAAPEAXI@Z 0000000140066c0c f i libconcrt:Exceptions.obj
 0001:00065c0c       ??_Econtext_self_unblock@Concurrency@@UEAAPEAXI@Z 0000000140066c0c f i libconcrt:Exceptions.obj
 0001:00065c50       ??_Gcontext_unblock_unbalanced@Concurrency@@UEAAPEAXI@Z 0000000140066c50 f i libconcrt:Exceptions.obj
 0001:00065c50       ??_Econtext_unblock_unbalanced@Concurrency@@UEAAPEAXI@Z 0000000140066c50 f i libconcrt:Exceptions.obj
 0001:00065c94       ??_Einvalid_link_target@Concurrency@@UEAAPEAXI@Z 0000000140066c94 f i libconcrt:Exceptions.obj
 0001:00065c94       ??_Ginvalid_link_target@Concurrency@@UEAAPEAXI@Z 0000000140066c94 f i libconcrt:Exceptions.obj
 0001:00065cd8       ??_Ginvalid_multiple_scheduling@Concurrency@@UEAAPEAXI@Z 0000000140066cd8 f i libconcrt:Exceptions.obj
 0001:00065cd8       ??_Einvalid_multiple_scheduling@Concurrency@@UEAAPEAXI@Z 0000000140066cd8 f i libconcrt:Exceptions.obj
 0001:00065d1c       ??_Einvalid_oversubscribe_operation@Concurrency@@UEAAPEAXI@Z 0000000140066d1c f i libconcrt:Exceptions.obj
 0001:00065d1c       ??_Ginvalid_oversubscribe_operation@Concurrency@@UEAAPEAXI@Z 0000000140066d1c f i libconcrt:Exceptions.obj
 0001:00065d60       ??_Einvalid_scheduler_policy_key@Concurrency@@UEAAPEAXI@Z 0000000140066d60 f i libconcrt:Exceptions.obj
 0001:00065d60       ??_Ginvalid_scheduler_policy_key@Concurrency@@UEAAPEAXI@Z 0000000140066d60 f i libconcrt:Exceptions.obj
 0001:00065da4       ??_Ginvalid_scheduler_policy_thread_specification@Concurrency@@UEAAPEAXI@Z 0000000140066da4 f i libconcrt:Exceptions.obj
 0001:00065da4       ??_Einvalid_scheduler_policy_thread_specification@Concurrency@@UEAAPEAXI@Z 0000000140066da4 f i libconcrt:Exceptions.obj
 0001:00065de8       ??_Ginvalid_scheduler_policy_value@Concurrency@@UEAAPEAXI@Z 0000000140066de8 f i libconcrt:Exceptions.obj
 0001:00065de8       ??_Einvalid_scheduler_policy_value@Concurrency@@UEAAPEAXI@Z 0000000140066de8 f i libconcrt:Exceptions.obj
 0001:00065e2c       ??_Gmessage_not_found@Concurrency@@UEAAPEAXI@Z 0000000140066e2c f i libconcrt:Exceptions.obj
 0001:00065e2c       ??_Emessage_not_found@Concurrency@@UEAAPEAXI@Z 0000000140066e2c f i libconcrt:Exceptions.obj
 0001:00065e70       ??_Emissing_wait@Concurrency@@UEAAPEAXI@Z 0000000140066e70 f i libconcrt:Exceptions.obj
 0001:00065e70       ??_Gmissing_wait@Concurrency@@UEAAPEAXI@Z 0000000140066e70 f i libconcrt:Exceptions.obj
 0001:00065eb4       ??_Gnested_scheduler_missing_detach@Concurrency@@UEAAPEAXI@Z 0000000140066eb4 f i libconcrt:Exceptions.obj
 0001:00065eb4       ??_Enested_scheduler_missing_detach@Concurrency@@UEAAPEAXI@Z 0000000140066eb4 f i libconcrt:Exceptions.obj
 0001:00065ef8       ??_Eoperation_timed_out@Concurrency@@UEAAPEAXI@Z 0000000140066ef8 f i libconcrt:Exceptions.obj
 0001:00065ef8       ??_Goperation_timed_out@Concurrency@@UEAAPEAXI@Z 0000000140066ef8 f i libconcrt:Exceptions.obj
 0001:00065f3c       ??_Escheduler_not_attached@Concurrency@@UEAAPEAXI@Z 0000000140066f3c f i libconcrt:Exceptions.obj
 0001:00065f3c       ??_Gscheduler_not_attached@Concurrency@@UEAAPEAXI@Z 0000000140066f3c f i libconcrt:Exceptions.obj
 0001:00065f80       ??_Gscheduler_worker_creation_error@Concurrency@@UEAAPEAXI@Z 0000000140066f80 f i libconcrt:Exceptions.obj
 0001:00065f80       ??_Escheduler_worker_creation_error@Concurrency@@UEAAPEAXI@Z 0000000140066f80 f i libconcrt:Exceptions.obj
 0001:00065fc4       ??$_InternalDeleteHelper@VWorkQueue@details@Concurrency@@@details@Concurrency@@YAXPEAVWorkQueue@01@@Z 0000000140066fc4 f i libconcrt:ContextBase.obj
 0001:00066010       ??0?$Hash@PEAV_TaskCollection@details@Concurrency@@PEAV123@@details@Concurrency@@QEAA@H@Z 0000000140067010 f i libconcrt:ContextBase.obj
 0001:0006605c       ??0?$SafeRWList@UListEntry@details@Concurrency@@VNoCount@CollectionTypes@23@V_ReaderWriterLock@23@@details@Concurrency@@QEAA@XZ 000000014006705c f i libconcrt:ContextBase.obj
 0001:0006607c       ??0CancellationBeaconNode@CancellationBeaconStack@ContextBase@details@Concurrency@@QEAA@XZ 000000014006707c f i libconcrt:ContextBase.obj
 0001:000660a0       ??0CancellationBeaconStack@ContextBase@details@Concurrency@@QEAA@XZ 00000001400670a0 f i libconcrt:ContextBase.obj
 0001:000660c8       ??0Context@Concurrency@@QEAA@XZ 00000001400670c8 f i libconcrt:ContextBase.obj
 0001:000660d8       ??0ContextBase@details@Concurrency@@QEAA@PEAVSchedulerBase@12@_N@Z 00000001400670d8 f   libconcrt:ContextBase.obj
 0001:00066224       ??4DName@@QEAAAEAV0@AEBV0@@Z 0000000140067224 f i libvcruntime:undname.obj
 0001:00066224       ??0Slot@?$Mailbox@V_UnrealizedChore@details@Concurrency@@@details@Concurrency@@QEAA@AEBV0123@@Z 0000000140067224 f i libconcrt:ContextBase.obj
 0001:00066224       ??0DName@@QEAA@AEBV0@@Z    0000000140067224 f i libvcruntime:undname.obj
 0001:00066224       ??4Slot@?$Mailbox@V_UnrealizedChore@details@Concurrency@@@details@Concurrency@@QEAAAEAV0123@AEBV0123@@Z 0000000140067224 f i libconcrt:ContextBase.obj
 0001:00066224       ??4Slot@?$Mailbox@VInternalContextBase@details@Concurrency@@@details@Concurrency@@QEAAAEAV0123@AEBV0123@@Z 0000000140067224 f i libconcrt:InternalContextBase.obj
 0001:00066234       ??0_Cancellation_beacon@details@Concurrency@@QEAA@XZ 0000000140067234 f   libconcrt:ContextBase.obj
 0001:00066274       ??0_Scoped_lock@_CriticalNonReentrantLock@details@Concurrency@@QEAA@AEAV123@@Z 0000000140067274 f i libconcrt:ContextBase.obj
 0001:00066294       ??0_Scoped_lock_read@?$SafeRWList@UListEntry@details@Concurrency@@VNoCount@CollectionTypes@23@V_ReaderWriterLock@23@@details@Concurrency@@QEAA@AEAV123@@Z 0000000140067294 f i libconcrt:ContextBase.obj
 0001:000662b4       ??1?$Hash@PEAV_TaskCollection@details@Concurrency@@PEAV123@@details@Concurrency@@QEAA@XZ 00000001400672b4 f i libconcrt:ContextBase.obj
 0001:000662d0       ??1?$StructuredWorkStealingQueue@V_UnrealizedChore@details@Concurrency@@V_CriticalNonReentrantLock@23@@details@Concurrency@@QEAA@XZ 00000001400672d0 f i libconcrt:ContextBase.obj
 0001:000662f0       ??1?$WorkStealingQueue@V_UnrealizedChore@details@Concurrency@@V_CriticalNonReentrantLock@23@@details@Concurrency@@QEAA@XZ 00000001400672f0 f i libconcrt:ContextBase.obj
 0001:00066310       ??1CancellationBeaconNode@CancellationBeaconStack@ContextBase@details@Concurrency@@QEAA@XZ 0000000140067310 f i libconcrt:ContextBase.obj
 0001:00066318       ??1CancellationBeaconStack@ContextBase@details@Concurrency@@QEAA@XZ 0000000140067318 f i libconcrt:ContextBase.obj
 0001:00066378       ??1Context@Concurrency@@MEAA@XZ 0000000140067378 f i libconcrt:ContextBase.obj
 0001:00066384       ??1ContextBase@details@Concurrency@@UEAA@XZ 0000000140067384 f i libconcrt:ContextBase.obj
 0001:00066410       ??1Segment@?$Mailbox@V_UnrealizedChore@details@Concurrency@@@details@Concurrency@@QEAA@XZ 0000000140067410 f i libconcrt:ContextBase.obj
 0001:00066430       ??1WorkQueue@details@Concurrency@@QEAA@XZ 0000000140067430 f i libconcrt:ContextBase.obj
 0001:00066468       ??1_Cancellation_beacon@details@Concurrency@@QEAA@XZ 0000000140067468 f   libconcrt:ContextBase.obj
 0001:000664a4       ??1_Scoped_lock_read@?$SafeRWList@UListEntry@details@Concurrency@@VNoCount@CollectionTypes@23@V_ReaderWriterLock@23@@details@Concurrency@@QEAA@XZ 00000001400674a4 f i libconcrt:ContextBase.obj
 0001:000664c4       ??8location@Concurrency@@QEBA_NAEBV01@@Z 00000001400674c4 f i libconcrt:ContextBase.obj
 0001:000664e0       ??9location@Concurrency@@QEBA_NAEBV01@@Z 00000001400674e0 f i libconcrt:ContextBase.obj
 0001:000664fc       ??ACancellationBeaconStack@ContextBase@details@Concurrency@@QEAAPEAUCancellationBeacon@123@J@Z 00000001400674fc f i libconcrt:ContextBase.obj
 0001:00066534       ??_GCancellationBeaconNode@CancellationBeaconStack@ContextBase@details@Concurrency@@QEAAPEAXI@Z 0000000140067534 f i libconcrt:ContextBase.obj
 0001:0006656c       ??_GContext@Concurrency@@MEAAPEAXI@Z 000000014006756c f i libconcrt:ContextBase.obj
 0001:0006656c       ??_EContext@Concurrency@@MEAAPEAXI@Z 000000014006756c f i libconcrt:ContextBase.obj
 0001:00066598       ??_GContextBase@details@Concurrency@@UEAAPEAXI@Z 0000000140067598 f i libconcrt:ContextBase.obj
 0001:00066598       ??_EContextBase@details@Concurrency@@UEAAPEAXI@Z 0000000140067598 f i libconcrt:ContextBase.obj
 0001:000665cc       ??_GSegment@?$Mailbox@V_UnrealizedChore@details@Concurrency@@@details@Concurrency@@QEAAPEAXI@Z 00000001400675cc f i libconcrt:ContextBase.obj
 0001:00066610       ??_GWorkQueue@details@Concurrency@@QEAAPEAXI@Z 0000000140067610 f i libconcrt:ContextBase.obj
 0001:0006666c       ??_G_TaskCollection@details@Concurrency@@QEAAPEAXI@Z 000000014006766c f i libconcrt:ContextBase.obj
 0001:000666a0       ?AcquirePushBeacon@CancellationBeaconStack@ContextBase@details@Concurrency@@QEAAPEAUCancellationBeacon@234@H@Z 00000001400676a0 f i libconcrt:ContextBase.obj
 0001:00066710       ?AcquireRead@?$SafeRWList@UListEntry@details@Concurrency@@VNoCount@CollectionTypes@23@V_ReaderWriterLock@23@@details@Concurrency@@QEBAXXZ 0000000140067710 f i libconcrt:ContextBase.obj
 0001:0006671c       ?Add@?$ListArray@VWorkQueue@details@Concurrency@@@details@Concurrency@@QEAAHPEAVWorkQueue@23@@Z 000000014006771c f i libconcrt:ContextBase.obj
 0001:0006689c       ?AddStealer@ContextBase@details@Concurrency@@QEAAXPEAV123@_N@Z 000000014006789c f   libconcrt:ContextBase.obj
 0001:000668ec       ?AddTail@?$List@UListEntry@details@Concurrency@@VNoCount@CollectionTypes@23@@details@Concurrency@@QEAAXPEAUListEntry@23@@Z 00000001400678ec f i libconcrt:ContextBase.obj
 0001:000668ec       ?UnlockedAddTail@?$SafeRWList@UListEntry@details@Concurrency@@VNoCount@CollectionTypes@23@V_ReaderWriterLock@23@@details@Concurrency@@QEAAXPEAUListEntry@23@@Z 00000001400678ec f i libconcrt:ContextBase.obj
 0001:00066924       ?AddTail@?$SafeRWList@UListEntry@details@Concurrency@@VNoCount@CollectionTypes@23@V_ReaderWriterLock@23@@details@Concurrency@@QEAAXPEAUListEntry@23@@Z 0000000140067924 f i libconcrt:ContextBase.obj
 0001:0006699c       ?CancelCollection@ContextBase@details@Concurrency@@QEAAXH@Z 000000014006799c f   libconcrt:ContextBase.obj
 0001:00066a0c       ?CancelCollectionComplete@ContextBase@details@Concurrency@@QEAA_NH@Z 0000000140067a0c f   libconcrt:ContextBase.obj
 0001:00066a48       ?CancelEntireContext@ContextBase@details@Concurrency@@QEAAXXZ 0000000140067a48 f i libconcrt:ContextBase.obj
 0001:00066a60       ?CancelStealers@ContextBase@details@Concurrency@@QEAAXPEAV_TaskCollectionBase@23@@Z 0000000140067a60 f   libconcrt:ContextBase.obj
 0001:00066b68       ?CheckForDeletion@?$ListArray@VWorkQueue@details@Concurrency@@@details@Concurrency@@AEAAXXZ 0000000140067b68 f i libconcrt:ContextBase.obj
 0001:00066bf8       ?CheckForDeletionBridge@?$ListArray@VWorkQueue@details@Concurrency@@@details@Concurrency@@CAXPEAV123@@Z 0000000140067bf8 f i libconcrt:ContextBase.obj
 0001:00066c00       ?Claim@Slot@?$Mailbox@V_UnrealizedChore@details@Concurrency@@@details@Concurrency@@QEAA_NPEAPEAV_UnrealizedChore@34@@Z 0000000140067c00 f i libconcrt:ContextBase.obj
 0001:00066c70       ?Cleanup@ContextBase@details@Concurrency@@QEAAXXZ 0000000140067c70 f   libconcrt:ContextBase.obj
 0001:00066ccc       ?ClearAliasTable@ContextBase@details@Concurrency@@QEAAXXZ 0000000140067ccc f   libconcrt:ContextBase.obj
 0001:00066d94       ?ClearContextTls@ContextBase@details@Concurrency@@AEAAXXZ 0000000140067d94 f   libconcrt:ContextBase.obj
 0001:00066da4       ?ConfirmCancel@ContextBase@details@Concurrency@@QEAA_NPEAU_Beacon_reference@23@@Z 0000000140067da4 f i libconcrt:ContextBase.obj
 0001:00066db4       ?_GetBindingId@location@Concurrency@@QEBAIXZ 0000000140067db4 f i libconcrt:SchedulingNode.obj
 0001:00066db4       ?Count@?$Hash@PEAV_TaskCollection@details@Concurrency@@PEAV123@@details@Concurrency@@QEBAHXZ 0000000140067db4 f i libconcrt:ContextBase.obj
 0001:00066db8       ?Count@?$StructuredWorkStealingQueue@V_UnrealizedChore@details@Concurrency@@V_CriticalNonReentrantLock@23@@details@Concurrency@@QEBAHXZ 0000000140067db8 f i libconcrt:ContextBase.obj
 0001:00066db8       ?Count@?$StructuredWorkStealingQueue@VInternalContextBase@details@Concurrency@@V_HyperNonReentrantLock@23@@details@Concurrency@@QEBAHXZ 0000000140067db8 f i libconcrt:VirtualProcessor.obj
 0001:00066dc0       ?CreateStructuredWorkQueue@ContextBase@details@Concurrency@@QEAAXXZ 0000000140067dc0 f   libconcrt:ContextBase.obj
 0001:00066e70       ?CreateWorkQueue@ContextBase@details@Concurrency@@QEAAXXZ 0000000140067e70 f   libconcrt:ContextBase.obj
 0001:00066f18       ?Delete@?$Hash@PEAV_TaskCollection@details@Concurrency@@PEAV123@@details@Concurrency@@QEAA_NAEBQEAV_TaskCollection@23@@Z 0000000140067f18 f i libconcrt:ContextBase.obj
 0001:00066f20       ?DeleteElements@?$ListArray@VWorkQueue@details@Concurrency@@@details@Concurrency@@AEAAXPEAU_SLIST_ENTRY@@@Z 0000000140067f20 f i libconcrt:ContextBase.obj
 0001:00066f88       ?Dereference@Segment@?$Mailbox@V_UnrealizedChore@details@Concurrency@@@details@Concurrency@@QEAAXXZ 0000000140067f88 f i libconcrt:ContextBase.obj
 0001:00066fb4       ?DereferenceForCancellation@ContextBase@details@Concurrency@@QEAAXXZ 0000000140067fb4 f   libconcrt:ContextBase.obj
 0001:00066fbc       ?DetachStealers@ContextBase@details@Concurrency@@QEAAXXZ 0000000140067fbc f   libconcrt:ContextBase.obj
 0001:00067190       ?IsStructuredEmpty@WorkQueue@details@Concurrency@@QEBA_NXZ 0000000140068190 f i libconcrt:ScheduleGroupBase.obj
 0001:00067190       ?Empty@?$WorkStealingQueue@V_UnrealizedChore@details@Concurrency@@V_CriticalNonReentrantLock@23@@details@Concurrency@@QEBA_NXZ 0000000140068190 f i libconcrt:ContextBase.obj
 0001:00067190       ?Empty@?$StructuredWorkStealingQueue@VInternalContextBase@details@Concurrency@@V_HyperNonReentrantLock@23@@details@Concurrency@@QEBA_NXZ 0000000140068190 f i libconcrt:SearchAlgorithms.obj
 0001:00067190       ?Empty@?$StructuredWorkStealingQueue@V_UnrealizedChore@details@Concurrency@@V_CriticalNonReentrantLock@23@@details@Concurrency@@QEBA_NXZ 0000000140068190 f i libconcrt:ScheduleGroupBase.obj
 0001:0006719c       ?EnterCriticalRegionHelper@ContextBase@details@Concurrency@@UEAAHXZ 000000014006819c f i libconcrt:ContextBase.obj
 0001:000671a8       ?EnterHyperCriticalRegionHelper@ContextBase@details@Concurrency@@UEAAHXZ 00000001400681a8 f i libconcrt:ContextBase.obj
 0001:000671b4       ?ExitCriticalRegionHelper@ContextBase@details@Concurrency@@UEAAHXZ 00000001400681b4 f i libconcrt:ContextBase.obj
 0001:000671c0       ?ExitHyperCriticalRegionHelper@ContextBase@details@Concurrency@@UEAAHXZ 00000001400681c0 f i libconcrt:ContextBase.obj
 0001:000671cc       ?Expire@Segment@?$Mailbox@V_UnrealizedChore@details@Concurrency@@@details@Concurrency@@QEAAXXZ 00000001400681cc f i libconcrt:ContextBase.obj
 0001:000671e4       ?FindAndDelete@?$Hash@PEAV_TaskCollection@details@Concurrency@@PEAV123@@details@Concurrency@@QEAA_NAEBQEAV_TaskCollection@23@PEAPEAV423@@Z 00000001400681e4 f i libconcrt:ContextBase.obj
 0001:00067298       ?First@?$Hash@PEAV_TaskCollection@details@Concurrency@@PEAV123@@details@Concurrency@@QEAAPEAUListNode@123@PEAH@Z 0000000140068298 f i libconcrt:ContextBase.obj
 0001:000672d4       ?First@?$List@UListEntry@details@Concurrency@@VNoCount@CollectionTypes@23@@details@Concurrency@@QEBAPEAUListEntry@23@XZ 00000001400682d4 f i libconcrt:ContextBase.obj
 0001:000672e4       ?FlagCancellationBeacons@ContextBase@details@Concurrency@@QEAAXH@Z 00000001400682e4 f   libconcrt:ContextBase.obj
 0001:00067360       ?FlushWriteOwners@?$SafeRWList@UListEntry@details@Concurrency@@VNoCount@CollectionTypes@23@V_ReaderWriterLock@23@@details@Concurrency@@QEBAXXZ 0000000140068360 f i libconcrt:ContextBase.obj
 0001:0006736c       ?FreeNode@?$Hash@PEAV_TaskCollection@details@Concurrency@@PEAV123@@details@Concurrency@@CAXPEAUListNode@123@@Z 000000014006836c f i libconcrt:ContextBase.obj
 0001:00067378       ?GetCriticalRegionType@ContextBase@details@Concurrency@@UEBA?AW4CriticalRegionType@3@XZ 0000000140068378 f i libconcrt:ContextBase.obj
 0001:0006738c       ?GetGroup@ScheduleGroupSegmentBase@details@Concurrency@@QEBAPEAVScheduleGroupBase@23@XZ 000000014006838c f i libconcrt:ContextBase.obj
 0001:00067394       ?GetId@ContextBase@details@Concurrency@@UEBAIXZ 0000000140068394 f   libconcrt:ContextBase.obj
 0001:00067398       ?GetIndirectAlias@ContextBase@details@Concurrency@@QEBAPEAV_TaskCollection@23@XZ 0000000140068398 f   libconcrt:ContextBase.obj
 0001:000673a0       ?GetRootCollection@ContextBase@details@Concurrency@@QEAAPEAV_TaskCollectionBase@23@XZ 00000001400683a0 f i libconcrt:ContextBase.obj
 0001:000673a8       ?GetScheduleGroup@ContextBase@details@Concurrency@@QEBAPEAVScheduleGroupBase@23@XZ 00000001400683a8 f   libconcrt:ContextBase.obj
 0001:000673bc       ?GetScheduleGroupId@ContextBase@details@Concurrency@@UEBAIXZ 00000001400683bc f   libconcrt:ContextBase.obj
 0001:000673e0       ?GetVirtualProcessorRoot@ExecutionResource@details@Concurrency@@QEAAPEAVVirtualProcessorRoot@23@XZ 00000001400683e0 f   libconcrt:SchedulerProxy.obj
 0001:000673e0       ?GetSchedulerProxy@VirtualProcessorRoot@details@Concurrency@@QEAAPEAVSchedulerProxy@23@XZ 00000001400683e0 f   libconcrt:VirtualProcessorRoot.obj
 0001:000673e0       ?GetScheduleGroupSegment@ContextBase@details@Concurrency@@QEBAPEAVScheduleGroupSegmentBase@23@XZ 00000001400683e0 f   libconcrt:ContextBase.obj
 0001:000673e8       ?_GetThrowImageBase@__ExceptionPtr@@AEBA_JXZ 00000001400683e8 f   libcpmt:excptptr.obj
 0001:000673e8       ?GetScheduler@ContextBase@details@Concurrency@@QEBAPEAVSchedulerBase@23@XZ 00000001400683e8 f   libconcrt:ContextBase.obj
 0001:000673f0       ?GetStructuredWorkQueue@ContextBase@details@Concurrency@@QEAAPEAVWorkQueue@23@XZ 00000001400683f0 f i libconcrt:ContextBase.obj
 0001:00067414       ?GetWorkQueue@ContextBase@details@Concurrency@@QEAAPEAVWorkQueue@23@XZ 0000000140068414 f i libconcrt:ContextBase.obj
 0001:00067438       ?Grow@CancellationBeaconStack@ContextBase@details@Concurrency@@AEAAXXZ 0000000140068438 f i libconcrt:ContextBase.obj
 0001:0006751c       ?GrowAndPush@?$StructuredWorkStealingQueue@V_UnrealizedChore@details@Concurrency@@V_CriticalNonReentrantLock@23@@details@Concurrency@@AEAAXPEAV_UnrealizedChore@23@VSlot@?$Mailbox@V_UnrealizedChore@details@Concurrency@@@23@@Z 000000014006851c f i libconcrt:ContextBase.obj
 0001:0006751c       ?GrowAndPush@?$StructuredWorkStealingQueue@VInternalContextBase@details@Concurrency@@V_HyperNonReentrantLock@23@@details@Concurrency@@AEAAXPEAVInternalContextBase@23@VSlot@?$Mailbox@VInternalContextBase@details@Concurrency@@@23@@Z 000000014006851c f i libconcrt:InternalContextBase.obj
 0001:000676dc       ?HasAnyCancellation@ContextBase@details@Concurrency@@QEBA_NXZ 00000001400686dc f i libconcrt:ContextBase.obj
 0001:000676f0       ?HasInlineCancellation@ContextBase@details@Concurrency@@QEBA_NXZ 00000001400686f0 f i libconcrt:ContextBase.obj
 0001:000676fc       ?HasPendingCancellation@ContextBase@details@Concurrency@@QEBA_NXZ 00000001400686fc f i libconcrt:ContextBase.obj
 0001:00067708       ?HasVirtualProcessorAvailableForNewWork@SchedulerBase@details@Concurrency@@QEBA_NXZ 0000000140068708 f i libconcrt:ContextBase.obj
 0001:0006771c       ?HashValue@?$Hash@PEAV_TaskCollection@details@Concurrency@@PEAV123@@details@Concurrency@@CAIAEBQEAV_TaskCollection@23@H@Z 000000014006871c f i libconcrt:ContextBase.obj
 0001:00067758       ?IncrementEnqueuedTaskCounter@ExternalContextBase@details@Concurrency@@QEAAXXZ 0000000140068758 f i libconcrt:ContextBase.obj
 0001:00067764       ?IncrementEnqueuedTaskCounter@ExternalStatistics@details@Concurrency@@QEAAXXZ 0000000140068764 f i libconcrt:ContextBase.obj
 0001:00067768       ?IncrementEnqueuedTaskCounter@InternalContextBase@details@Concurrency@@QEAAXXZ 0000000140068768 f i libconcrt:ContextBase.obj
 0001:00067778       ?InternalSignal@CancellationBeacon@ContextBase@details@Concurrency@@QEAAXXZ 0000000140068778 f i libconcrt:ContextBase.obj
 0001:00067778       ?Raise@CancellationBeacon@ContextBase@details@Concurrency@@QEAAXXZ 0000000140068778 f i libconcrt:ContextBase.obj
 0001:0006777c       ?IsCanceledAtDepth@ContextBase@details@Concurrency@@AEAA_NPEAV_TaskCollectionBase@23@H@Z 000000014006877c f   libconcrt:ContextBase.obj
 0001:00067894       ?IsCanceledAtDepth@ContextBase@details@Concurrency@@QEAA_NH@Z 0000000140068894 f i libconcrt:ContextBase.obj
 0001:000678a0       ?IsCanceledAtDepth@ContextBase@details@Concurrency@@QEAA_NPEAV_TaskCollectionBase@23@@Z 00000001400688a0 f i libconcrt:ContextBase.obj
 0001:000678b4       ?IsCancellationVisible@ContextBase@details@Concurrency@@QEBA_NPEAV_TaskCollectionBase@23@_N@Z 00000001400688b4 f   libconcrt:ContextBase.obj
 0001:00067908       ?IsEntireContextCanceled@ContextBase@details@Concurrency@@QEBA_NXZ 0000000140068908 f i libconcrt:ContextBase.obj
 0001:00067914       ?IsLockHeld@WorkQueue@details@Concurrency@@QEBA_NXZ 0000000140068914 f i libconcrt:ContextBase.obj
 0001:00067920       ?IsUnstructuredEmpty@WorkQueue@details@Concurrency@@QEBA_NXZ 0000000140068920 f i libconcrt:ContextBase.obj
 0001:00067934       ?LockedSetOwningContext@WorkQueue@details@Concurrency@@QEAAXPEAVContextBase@23@@Z 0000000140068934 f i libconcrt:ContextBase.obj
 0001:00067978       ?Next@?$Hash@PEAV_TaskCollection@details@Concurrency@@PEAV123@@details@Concurrency@@QEAAPEAUListNode@123@PEAHPEAU4123@@Z 0000000140068978 f i libconcrt:ContextBase.obj
 0001:000679d0       ?Next@?$List@UListEntry@details@Concurrency@@VNoCount@CollectionTypes@23@@details@Concurrency@@QEBAPEAUListEntry@23@PEAU423@@Z 00000001400689d0 f i libconcrt:ContextBase.obj
 0001:000679e0       ?NextList@?$Hash@PEAV_TaskCollection@details@Concurrency@@PEAV123@@details@Concurrency@@AEAAPEAUListNode@123@PEAH@Z 00000001400689e0 f i libconcrt:ContextBase.obj
 0001:00067a20       ?Pop@?$StructuredWorkStealingQueue@V_UnrealizedChore@details@Concurrency@@V_CriticalNonReentrantLock@23@@details@Concurrency@@QEAAPEAV_UnrealizedChore@23@XZ 0000000140068a20 f i libconcrt:ContextBase.obj
 0001:00067acc       ?Pop@?$WorkStealingQueue@V_UnrealizedChore@details@Concurrency@@V_CriticalNonReentrantLock@23@@details@Concurrency@@QEAAPEAV_UnrealizedChore@23@XZ 0000000140068acc f i libconcrt:ContextBase.obj
 0001:00067b80       ?PopCancellationBeacon@ContextBase@details@Concurrency@@QEAAXXZ 0000000140068b80 f   libconcrt:ContextBase.obj
 0001:00067b88       ?PopContextFromTls@ContextBase@details@Concurrency@@AEAAPEAV123@XZ 0000000140068b88 f   libconcrt:ContextBase.obj
 0001:00067bbc       ?PopGoverningTokenState@ContextBase@details@Concurrency@@QEAAXPEAV_CancellationTokenState@23@@Z 0000000140068bbc f   libconcrt:ContextBase.obj
 0001:00067c58       ?PopStructured@ContextBase@details@Concurrency@@QEAAPEAV_UnrealizedChore@23@XZ 0000000140068c58 f   libconcrt:ContextBase.obj
 0001:00067c64       ?PopStructured@WorkQueue@details@Concurrency@@QEAAPEAV_UnrealizedChore@23@XZ 0000000140068c64 f i libconcrt:ContextBase.obj
 0001:00067c6c       ?PullFromFreePool@?$ListArray@VWorkQueue@details@Concurrency@@@details@Concurrency@@QEAAPEAVWorkQueue@23@XZ 0000000140068c6c f i libconcrt:ContextBase.obj
 0001:00067c84       ?Push@?$StructuredWorkStealingQueue@V_UnrealizedChore@details@Concurrency@@V_CriticalNonReentrantLock@23@@details@Concurrency@@QEAAXPEAV_UnrealizedChore@23@@Z 0000000140068c84 f i libconcrt:ContextBase.obj
 0001:00067cc8       ?Push@?$StructuredWorkStealingQueue@V_UnrealizedChore@details@Concurrency@@V_CriticalNonReentrantLock@23@@details@Concurrency@@QEAAXPEAV_UnrealizedChore@23@VSlot@?$Mailbox@V_UnrealizedChore@details@Concurrency@@@23@@Z 0000000140068cc8 f i libconcrt:ContextBase.obj
 0001:00067d40       ?Push@?$WorkStealingQueue@V_UnrealizedChore@details@Concurrency@@V_CriticalNonReentrantLock@23@@details@Concurrency@@QEAAHPEAV_UnrealizedChore@23@@Z 0000000140068d40 f i libconcrt:ContextBase.obj
 0001:00067d8c       ?Push@?$WorkStealingQueue@V_UnrealizedChore@details@Concurrency@@V_CriticalNonReentrantLock@23@@details@Concurrency@@QEAAHPEAV_UnrealizedChore@23@VSlot@?$Mailbox@V_UnrealizedChore@details@Concurrency@@@23@@Z 0000000140068d8c f i libconcrt:ContextBase.obj
 0001:00067e08       ?PushCancellationBeacon@ContextBase@details@Concurrency@@QEAAPEAU_Beacon_reference@23@XZ 0000000140068e08 f   libconcrt:ContextBase.obj
 0001:00067e60       ?PushContextToTls@ContextBase@details@Concurrency@@AEAAXPEAV123@@Z 0000000140068e60 f   libconcrt:ContextBase.obj
 0001:00067e74       ?PushGoverningTokenState@ContextBase@details@Concurrency@@QEAAXPEAV_CancellationTokenState@23@H@Z 0000000140068e74 f   libconcrt:ContextBase.obj
 0001:00067e80       ?PushStructured@ContextBase@details@Concurrency@@QEAAXPEAV_UnrealizedChore@23@@Z 0000000140068e80 f   libconcrt:ContextBase.obj
 0001:00067f4c       ?PushStructured@ContextBase@details@Concurrency@@QEAAXPEAV_UnrealizedChore@23@PEAVlocation@3@@Z 0000000140068f4c f   libconcrt:ContextBase.obj
 0001:000680a0       ?PushStructured@WorkQueue@details@Concurrency@@QEAAXPEAV_UnrealizedChore@23@@Z 00000001400690a0 f i libconcrt:ContextBase.obj
 0001:000680e4       ?PushStructured@WorkQueue@details@Concurrency@@QEAAXPEAV_UnrealizedChore@23@VSlot@?$Mailbox@V_UnrealizedChore@details@Concurrency@@@23@@Z 00000001400690e4 f i libconcrt:ContextBase.obj
 0001:00068108       ?PushUnstructured@ContextBase@details@Concurrency@@QEAAHPEAV_UnrealizedChore@23@@Z 0000000140069108 f   libconcrt:ContextBase.obj
 0001:000681ec       ?PushUnstructured@ContextBase@details@Concurrency@@QEAAHPEAV_UnrealizedChore@23@PEAVlocation@3@@Z 00000001400691ec f   libconcrt:ContextBase.obj
 0001:00068354       ?PushUnstructured@WorkQueue@details@Concurrency@@QEAAHPEAV_UnrealizedChore@23@@Z 0000000140069354 f i libconcrt:ContextBase.obj
 0001:000683ac       ?PushUnstructured@WorkQueue@details@Concurrency@@QEAAHPEAV_UnrealizedChore@23@VSlot@?$Mailbox@V_UnrealizedChore@details@Concurrency@@@23@@Z 00000001400693ac f i libconcrt:ContextBase.obj
 0001:000683d8       ?RecomputeMaximumCancellationDepth@ContextBase@details@Concurrency@@AEAAXXZ 00000001400693d8 f   libconcrt:ContextBase.obj
 0001:0006847c       ?ReferenceForCancellation@ContextBase@details@Concurrency@@QEAAXXZ 000000014006947c f   libconcrt:ContextBase.obj
 0001:00068484       ?ReleaseRead@?$SafeRWList@UListEntry@details@Concurrency@@VNoCount@CollectionTypes@23@V_ReaderWriterLock@23@@details@Concurrency@@QEBAXXZ 0000000140069484 f i libconcrt:ContextBase.obj
 0001:00068490       ?ReleaseWorkQueue@ContextBase@details@Concurrency@@IEAAXXZ 0000000140069490 f   libconcrt:ContextBase.obj
 0001:00068550       ?Remove@?$Hash@PEAV_TaskCollection@details@Concurrency@@PEAV123@@details@Concurrency@@AEAAPEAUListNode@123@AEBQEAV_TaskCollection@23@H@Z 0000000140069550 f i libconcrt:ContextBase.obj
 0001:00068594       ?UnlockedRemove@?$SafeRWList@UListEntry@details@Concurrency@@VNoCount@CollectionTypes@23@V_ReaderWriterLock@23@@details@Concurrency@@QEAAXPEAUListEntry@23@@Z 0000000140069594 f i libconcrt:ContextBase.obj
 0001:00068594       ?Remove@?$List@UListEntry@details@Concurrency@@VNoCount@CollectionTypes@23@@details@Concurrency@@QEAAXPEAUListEntry@23@@Z 0000000140069594 f i libconcrt:ContextBase.obj
 0001:000685c4       ?Remove@?$ListArray@VWorkQueue@details@Concurrency@@@details@Concurrency@@QEAA_NPEAVWorkQueue@23@H_N@Z 00000001400695c4 f i libconcrt:ContextBase.obj
 0001:00068704       ?Remove@?$ListArray@VWorkQueue@details@Concurrency@@@details@Concurrency@@QEAA_NPEAVWorkQueue@23@_N@Z 0000000140069704 f i libconcrt:ContextBase.obj
 0001:00068714       ?Remove@?$SafeRWList@UListEntry@details@Concurrency@@VNoCount@CollectionTypes@23@V_ReaderWriterLock@23@@details@Concurrency@@QEAAXPEAUListEntry@23@@Z 0000000140069714 f i libconcrt:ContextBase.obj
 0001:00068784       ?RemoveStealer@ContextBase@details@Concurrency@@QEAAXPEAV123@@Z 0000000140069784 f   libconcrt:ContextBase.obj
 0001:00068798       ?ScheduleGroupRefCount@ContextBase@details@Concurrency@@QEBAIXZ 0000000140069798 f   libconcrt:ContextBase.obj
 0001:000687b0       ?SetAsCurrentTls@ContextBase@details@Concurrency@@IEAAXXZ 00000001400697b0 f   libconcrt:ContextBase.obj
 0001:000687c0       ?SetIndirectAlias@ContextBase@details@Concurrency@@QEAAXPEAV_TaskCollection@23@@Z 00000001400697c0 f   libconcrt:ContextBase.obj
 0001:000687c8       ?SetOwningContext@WorkQueue@details@Concurrency@@QEAAXPEAVContextBase@23@@Z 00000001400697c8 f i libconcrt:ContextBase.obj
 0001:000687d0       ?StaticDelete@Segment@?$Mailbox@V_UnrealizedChore@details@Concurrency@@@details@Concurrency@@SAXPEAU1234@@Z 00000001400697d0 f i libconcrt:ContextBase.obj
 0001:00068804       ?StaticExitHyperCriticalRegion@ContextBase@details@Concurrency@@SAXXZ 0000000140069804 f   libconcrt:ContextBase.obj
 0001:00068804       ?StaticEnterHyperCriticalRegion@ContextBase@details@Concurrency@@SAXXZ 0000000140069804 f   libconcrt:ContextBase.obj
 0001:00068804       ?StaticExitCriticalRegion@ContextBase@details@Concurrency@@SAXXZ 0000000140069804 f   libconcrt:ContextBase.obj
 0001:00068804       ?StaticEnterCriticalRegion@ContextBase@details@Concurrency@@SAXXZ 0000000140069804 f   libconcrt:ContextBase.obj
 0001:0006880c       ?StaticGetCriticalRegionType@ContextBase@details@Concurrency@@SA?AW4CriticalRegionType@3@XZ 000000014006980c f   libconcrt:ContextBase.obj
 0001:0006883c       ?SweepAliasTable@ContextBase@details@Concurrency@@QEAAXXZ 000000014006983c f   libconcrt:ContextBase.obj
 0001:0006894c       ?SweepUnstructured@ContextBase@details@Concurrency@@QEAAXP6A_NPEAV_UnrealizedChore@23@PEAX@Z12@Z 000000014006994c f   libconcrt:ContextBase.obj
 0001:00068958       ?SyncPop@?$WorkStealingQueue@V_UnrealizedChore@details@Concurrency@@V_CriticalNonReentrantLock@23@@details@Concurrency@@AEAAPEAV_UnrealizedChore@23@XZ 0000000140069958 f i libconcrt:ContextBase.obj
 0001:00068a4c       ?SyncPush@?$WorkStealingQueue@V_UnrealizedChore@details@Concurrency@@V_CriticalNonReentrantLock@23@@details@Concurrency@@AEAAHPEAV_UnrealizedChore@23@VSlot@?$Mailbox@V_UnrealizedChore@details@Concurrency@@@23@@Z 0000000140069a4c f i libconcrt:ContextBase.obj
 0001:00068c24       ?ThrowContextEvent@ContextBase@details@Concurrency@@KAXW4ConcRT_EventType@3@EKK@Z 0000000140069c24 f   libconcrt:ContextBase.obj
 0001:00068cc0       ?TokenHidesCancellation@ContextBase@details@Concurrency@@QEBA_NPEAV_TaskCollectionBase@23@_N@Z 0000000140069cc0 f   libconcrt:ContextBase.obj
 0001:00068d1c       ?TraceContextEvent@ContextBase@details@Concurrency@@IEAAXW4ConcRT_EventType@3@EKK@Z 0000000140069d1c f i libconcrt:ContextBase.obj
 0001:00068d58       ?TryAcquireWrite@?$SafeRWList@UListEntry@details@Concurrency@@VNoCount@CollectionTypes@23@V_ReaderWriterLock@23@@details@Concurrency@@QEBA_NXZ 0000000140069d58 f i libconcrt:ContextBase.obj
 0001:00068d64       ?TryPop@?$WorkStealingQueue@V_UnrealizedChore@details@Concurrency@@V_CriticalNonReentrantLock@23@@details@Concurrency@@QEAAPEAV_UnrealizedChore@23@H@Z 0000000140069d64 f i libconcrt:ContextBase.obj
 0001:00068e28       ?TryPopUnstructured@ContextBase@details@Concurrency@@QEAAPEAV_UnrealizedChore@23@H@Z 0000000140069e28 f   libconcrt:ContextBase.obj
 0001:00068e38       ?TryPopUnstructured@WorkQueue@details@Concurrency@@QEAAPEAV_UnrealizedChore@23@H@Z 0000000140069e38 f i libconcrt:ContextBase.obj
 0001:00068e44       ?Wipe@?$Hash@PEAV_TaskCollection@details@Concurrency@@PEAV123@@details@Concurrency@@QEAAXXZ 0000000140069e44 f i libconcrt:ContextBase.obj
 0001:00068ec4       ?_Atomic_load_4@std@@YAKPECKW4memory_order@1@@Z 0000000140069ec4 f i libconcrt:ContextBase.obj
 0001:00068ee0       ?_CancelState@_TaskCollectionBase@details@Concurrency@@IEBA_KXZ 0000000140069ee0 f i libconcrt:ContextBase.obj
 0001:00068ee8       ?_Confirm_cancel@_Cancellation_beacon@details@Concurrency@@QEAA_NXZ 0000000140069ee8 f   libconcrt:ContextBase.obj
 0001:00068f38       ?_GetCurrentInlineDepth@_StackGuard@details@Concurrency@@CAAEA_KXZ 0000000140069f38 f   libconcrt:ContextBase.obj
 0001:00068f68       ?_InliningDepth@_TaskCollectionBase@details@Concurrency@@QEBAHXZ 0000000140069f68 f i libconcrt:ContextBase.obj
 0001:00068f74       ?_IsCanceled@_CancellationTokenState@details@Concurrency@@QEBA_NXZ 0000000140069f74 f i libconcrt:ContextBase.obj
 0001:00068f74       ?IsAvailable@VirtualProcessor@details@Concurrency@@QEAA_NXZ 0000000140069f74 f i libconcrt:InternalContextBase.obj
 0001:00068f80       ?_IsCurrentlyInlined@_TaskCollectionBase@details@Concurrency@@QEBA_NXZ 0000000140069f80 f i libconcrt:ContextBase.obj
 0001:00068f90       ?_IsLockHeld@_CriticalNonReentrantLock@details@Concurrency@@QEBA_NXZ 0000000140069f90 f i libconcrt:ContextBase.obj
 0001:00068f90       ?_IsLockHeld@_NonReentrantLock@details@Concurrency@@QEBA_NXZ 0000000140069f90 f i libconcrt:ContextBase.obj
 0001:00068f98       ?_IsMarkedForCancellation@_TaskCollectionBase@details@Concurrency@@IEBA_NXZ 0000000140069f98 f i libconcrt:ContextBase.obj
 0001:00068fa0       ?_Lower@_Cancellation_beacon@details@Concurrency@@QEAAXXZ 0000000140069fa0 f i libconcrt:ContextBase.obj
 0001:00068fa8       ?get_parameter_type@?$positional_parameter_base@_WV?$stream_output_adapter@_W@__crt_stdio_output@@@__crt_stdio_output@@CA?AW4parameter_type@12@_K@Z 0000000140069fa8 f i libucrt:output.obj
 0001:00068fa8       ?get_parameter_type@?$positional_parameter_base@DV?$string_output_adapter@D@__crt_stdio_output@@@__crt_stdio_output@@CA?AW4parameter_type@12@_K@Z 0000000140069fa8 f i libucrt:output.obj
 0001:00068fa8       ?get_parameter_type@?$positional_parameter_base@DV?$stream_output_adapter@D@__crt_stdio_output@@@__crt_stdio_output@@CA?AW4parameter_type@12@_K@Z 0000000140069fa8 f i libucrt:output.obj
 0001:00068fa8       ?GetContextKind@UMSThreadInternalContext@details@Concurrency@@UEBA?AW4ContextKind@ContextBase@23@XZ 0000000140069fa8 f i libconcrt:UMSThreadInternalContext.obj
 0001:00068fa8       ?__acrt_select_exit_lock@@YA?AW4__acrt_lock_id@@XZ 0000000140069fa8 f i libucrt:exit.obj
 0001:00068fa8       ?get_parameter_type@?$positional_parameter_base@_WV?$stream_output_adapter@_W@__crt_stdio_output@@@__crt_stdio_output@@CA?AW4parameter_type@12@_J@Z 0000000140069fa8 f i libucrt:output.obj
 0001:00068fa8       ?get_parameter_type@?$positional_parameter_base@_WV?$string_output_adapter@_W@__crt_stdio_output@@@__crt_stdio_output@@CA?AW4parameter_type@12@_K@Z 0000000140069fa8 f i libucrt:output.obj
 0001:00068fa8       ?get_parameter_type@?$positional_parameter_base@DV?$stream_output_adapter@D@__crt_stdio_output@@@__crt_stdio_output@@CA?AW4parameter_type@12@_J@Z 0000000140069fa8 f i libucrt:output.obj
 0001:00068fa8       ?get_parameter_type@?$positional_parameter_base@DV?$string_output_adapter@D@__crt_stdio_output@@@__crt_stdio_output@@CA?AW4parameter_type@12@_J@Z 0000000140069fa8 f i libucrt:output.obj
 0001:00068fa8       ?_None@_CancellationTokenState@details@Concurrency@@SAPEAV123@XZ 0000000140069fa8 f i libconcrt:ContextBase.obj
 0001:00068fa8       ?get_parameter_type@?$positional_parameter_base@_WV?$string_output_adapter@_W@__crt_stdio_output@@@__crt_stdio_output@@CA?AW4parameter_type@12@_J@Z 0000000140069fa8 f i libucrt:output.obj
 0001:00068fb0       ?_SafeGetParent@_TaskCollectionBase@details@Concurrency@@IEAAPEAV123@XZ 0000000140069fb0 f i libconcrt:ContextBase.obj
 0001:00068fc8       ?atomic_load_explicit@std@@YAJPEBU_Atomic_long@1@W4memory_order@1@@Z 0000000140069fc8 f i libconcrt:ContextBase.obj
 0001:00068fe0       ??0?$LockFreeStack@VSubAllocator@details@Concurrency@@@details@Concurrency@@QEAA@XZ 0000000140069fe0 f i libconcrt:staticinits.obj
 0001:00068ff8       ??$atomic_compare_exchange@J@details@Concurrency@@YAJAEAU?$atomic@J@std@@JJ@Z 0000000140069ff8 f i libconcrt:TaskCollection.obj
 0001:00069020       ?_Exchange_release_4@std@@YAKPECKK@Z 000000014006a020 f i libconcrt:TaskCollection.obj
 0001:00069020       ?_Exchange_relaxed_4@std@@YAKPECKK@Z 000000014006a020 f i libconcrt:TaskCollection.obj
 0001:00069020       ??$atomic_exchange@J@details@Concurrency@@YAJAEAU?$atomic@J@std@@J@Z 000000014006a020 f i libconcrt:TaskCollection.obj
 0001:00069020       ?_Exchange_acquire_4@std@@YAKPECKK@Z 000000014006a020 f i libconcrt:TaskCollection.obj
 0001:00069020       ?_Exchange_seq_cst_4@std@@YAKPECKK@Z 000000014006a020 f i libconcrt:TaskCollection.obj
 0001:00069088       ??0?$_MallocaArrayHolder@PEAVevent@Concurrency@@@details@Concurrency@@QEAA@XZ 000000014006a088 f i libconcrt:TaskCollection.obj
 0001:000690a0       ??0?$atomic@J@std@@QEAA@J@Z 000000014006a0a0 f i libconcrt:TaskCollection.obj
 0001:000690a8       ??0?$lock_guard@Vmutex@std@@@std@@QEAA@AEAVmutex@1@@Z 000000014006a0a8 f i libconcrt:TaskCollection.obj
 0001:000690d0       ??0?$unique_lock@Vmutex@std@@@std@@QEAA@AEAVmutex@1@@Z 000000014006a0d0 f i libconcrt:TaskCollection.obj
 0001:00069100       ??0CancellationTokenRegistration_TaskProc@details@Concurrency@@QEAA@P6AXPEAX@Z0H@Z 000000014006a100 f i libconcrt:TaskCollection.obj
 0001:00069188       ??0ListNode@?$Hash@PEAV_TaskCollection@details@Concurrency@@PEAV123@@details@Concurrency@@QEAA@AEBQEAV_TaskCollection@23@0@Z 000000014006a188 f i libconcrt:TaskCollection.obj
 0001:000691a0       ??0SweeperContext@details@Concurrency@@QEAA@PEAV_TaskCollection@12@@Z 000000014006a1a0 f i libconcrt:TaskCollection.obj
 0001:000691ac       ??0TaskStack@details@Concurrency@@QEAA@XZ 000000014006a1ac f i libconcrt:TaskCollection.obj
 0001:000691bc       ??0_AsyncTaskCollection@details@Concurrency@@AEAA@PEAV_CancellationTokenState@12@@Z 000000014006a1bc f   libconcrt:TaskCollection.obj
 0001:00069220       ??0_CancellationTokenRegistration@details@Concurrency@@QEAA@J@Z 000000014006a220 f i libconcrt:TaskCollection.obj
 0001:00069278       ??0_Interruption_exception@details@Concurrency@@QEAA@AEBV012@@Z 000000014006a278 f i libconcrt:TaskCollection.obj
 0001:000692b8       ??0_Interruption_exception@details@Concurrency@@QEAA@XZ 000000014006a2b8 f i libconcrt:TaskCollection.obj
 0001:000692d0       ??0_Mutex_base@std@@QEAA@H@Z 000000014006a2d0 f i libconcrt:TaskCollection.obj
 0001:000692ec       ??0_Node@TokenRegistrationContainer@_CancellationTokenState@details@Concurrency@@QEAA@PEAV_CancellationTokenRegistration@34@@Z 000000014006a2ec f i libconcrt:TaskCollection.obj
 0001:000692f8       ??0_RefCounter@details@Concurrency@@IEAA@J@Z 000000014006a2f8 f i libconcrt:TaskCollection.obj
 0001:0006930c       ??0_RefCounterBase@details@Concurrency@@IEAA@J@Z 000000014006a30c f i libconcrt:TaskCollection.obj
 0001:00069320       ??0_StructuredTaskCollection@details@Concurrency@@QEAA@PEAV_CancellationTokenState@12@@Z 000000014006a320 f   libconcrt:TaskCollection.obj
 0001:000693c4       ??0_TaskCollection@details@Concurrency@@AEAA@PEAV012@_N@Z 000000014006a3c4 f   libconcrt:TaskCollection.obj
 0001:00069548       ??0_TaskCollection@details@Concurrency@@QEAA@PEAV_CancellationTokenState@12@@Z 000000014006a548 f   libconcrt:TaskCollection.obj
 0001:00069664       ??0_TaskCollection@details@Concurrency@@QEAA@XZ 000000014006a664 f   libconcrt:TaskCollection.obj
 0001:00069764       ??0_TaskCollectionBase@details@Concurrency@@QEAA@PEAV_CancellationTokenState@12@@Z 000000014006a764 f i libconcrt:TaskCollection.obj
 0001:00069784       ??0_TaskCollectionBase@details@Concurrency@@QEAA@XZ 000000014006a784 f i libconcrt:TaskCollection.obj
 0001:000697a4       ??0condition_variable@std@@QEAA@XZ 000000014006a7a4 f i libconcrt:TaskCollection.obj
 0001:000697bc       ??0invalid_multiple_scheduling@Concurrency@@QEAA@AEBV01@@Z 000000014006a7bc f i libconcrt:TaskCollection.obj
 0001:000697fc       ??0missing_wait@Concurrency@@QEAA@AEBV01@@Z 000000014006a7fc f i libconcrt:TaskCollection.obj
 0001:0006983c       ??0mutex@std@@QEAA@XZ      000000014006a83c f i libconcrt:TaskCollection.obj
 0001:00069858       ??1?$_MallocaArrayHolder@PEAVevent@Concurrency@@@details@Concurrency@@UEAA@XZ 000000014006a858 f i libconcrt:TaskCollection.obj
 0001:00069888       ??1?$lock_guard@Vmutex@std@@@std@@QEAA@XZ 000000014006a888 f i libconcrt:TaskCollection.obj
 0001:000698b0       ??1CancellationTokenRegistration_TaskProc@details@Concurrency@@UEAA@XZ 000000014006a8b0 f i libconcrt:TaskCollection.obj
 0001:000698e8       ??1TaskStack@details@Concurrency@@QEAA@XZ 000000014006a8e8 f   libconcrt:TaskCollection.obj
 0001:00069900       ??1_AsyncTaskCollection@details@Concurrency@@UEAA@XZ 000000014006a900 f i libconcrt:TaskCollection.obj
 0001:00069924       ??1_CancellationTokenRegistration@details@Concurrency@@MEAA@XZ 000000014006a924 f i libconcrt:TaskCollection.obj
 0001:0006995c       ??1_Mutex_base@std@@QEAA@XZ 000000014006a95c f i libconcrt:TaskCollection.obj
 0001:0006995c       ??1mutex@std@@QEAA@XZ      000000014006a95c f i libconcrt:TaskCollection.obj
 0001:00069964       ??1_RefCounter@details@Concurrency@@UEAA@XZ 000000014006a964 f i libconcrt:TaskCollection.obj
 0001:00069970       ??1_RefCounterBase@details@Concurrency@@UEAA@XZ 000000014006a970 f i libconcrt:TaskCollection.obj
 0001:0006997c       ??1_StructuredTaskCollection@details@Concurrency@@QEAA@XZ 000000014006a97c f   libconcrt:TaskCollection.obj
 0001:000699f0       ??1_TaskCollection@details@Concurrency@@QEAA@XZ 000000014006a9f0 f   libconcrt:TaskCollection.obj
 0001:00069b0c       ??1condition_variable@std@@QEAA@XZ 000000014006ab0c f i libconcrt:TaskCollection.obj
 0001:00069b14       ??1exception_ptr@std@@QEAA@XZ 000000014006ab14 f i libconcrt:TaskCollection.obj
 0001:00069b2c       ??4?$atomic@J@std@@QEAAJJ@Z 000000014006ab2c f i libconcrt:TaskCollection.obj
 0001:00069b2c       ??4_Atomic_long@std@@QEAAJJ@Z 000000014006ab2c f i libconcrt:TaskCollection.obj
 0001:00069b40       ??_G?$_MallocaArrayHolder@PEAVevent@Concurrency@@@details@Concurrency@@UEAAPEAXI@Z 000000014006ab40 f i libconcrt:TaskCollection.obj
 0001:00069b40       ??_E?$_MallocaArrayHolder@PEAVevent@Concurrency@@@details@Concurrency@@UEAAPEAXI@Z 000000014006ab40 f i libconcrt:TaskCollection.obj
 0001:00069b94       ??_GCancellationTokenRegistration_TaskProc@details@Concurrency@@UEAAPEAXI@Z 000000014006ab94 f i libconcrt:TaskCollection.obj
 0001:00069b94       ??_ECancellationTokenRegistration_TaskProc@details@Concurrency@@UEAAPEAXI@Z 000000014006ab94 f i libconcrt:TaskCollection.obj
 0001:00069bec       ??_GTaskStack@details@Concurrency@@QEAAPEAXI@Z 000000014006abec f i libconcrt:TaskCollection.obj
 0001:00069c2c       ??_G_AsyncTaskCollection@details@Concurrency@@UEAAPEAXI@Z 000000014006ac2c f i libconcrt:TaskCollection.obj
 0001:00069c2c       ??_E_AsyncTaskCollection@details@Concurrency@@UEAAPEAXI@Z 000000014006ac2c f i libconcrt:TaskCollection.obj
 0001:00069c70       ??_E_CancellationTokenRegistration@details@Concurrency@@MEAAPEAXI@Z 000000014006ac70 f i libconcrt:TaskCollection.obj
 0001:00069c70       ??_G_CancellationTokenRegistration@details@Concurrency@@MEAAPEAXI@Z 000000014006ac70 f i libconcrt:TaskCollection.obj
 0001:00069cc8       ??_E_Interruption_exception@details@Concurrency@@UEAAPEAXI@Z 000000014006acc8 f i libconcrt:TaskCollection.obj
 0001:00069cc8       ??_G_Interruption_exception@details@Concurrency@@UEAAPEAXI@Z 000000014006acc8 f i libconcrt:TaskCollection.obj
 0001:00069d0c       ??_E_RefCounter@details@Concurrency@@UEAAPEAXI@Z 000000014006ad0c f i libconcrt:TaskCollection.obj
 0001:00069d0c       ??_G_RefCounter@details@Concurrency@@UEAAPEAXI@Z 000000014006ad0c f i libconcrt:TaskCollection.obj
 0001:00069d38       ??_E_RefCounterBase@details@Concurrency@@UEAAPEAXI@Z 000000014006ad38 f i libconcrt:TaskCollection.obj
 0001:00069d38       ??_G_RefCounterBase@details@Concurrency@@UEAAPEAXI@Z 000000014006ad38 f i libconcrt:TaskCollection.obj
 0001:00069d64       ??_Gexception_ptr@std@@QEAAPEAXI@Z 000000014006ad64 f i libconcrt:TaskCollection.obj
 0001:00069da4       ?AddArbitraryAlias@ContextBase@details@Concurrency@@QEAAXPEAV_TaskCollection@23@0@Z 000000014006ada4 f i libconcrt:TaskCollection.obj
 0001:00069dd8       ?Clear@TaskStack@details@Concurrency@@QEAAXXZ 000000014006add8 f   libconcrt:TaskCollection.obj
 0001:00069de0       ?Find@?$Hash@PEAV_TaskCollection@details@Concurrency@@PEAV123@@details@Concurrency@@QEAAPEAUListNode@123@AEBQEAV_TaskCollection@23@PEAPEAV523@@Z 000000014006ade0 f i libconcrt:TaskCollection.obj
 0001:00069e5c       ?GetArbitraryAlias@ContextBase@details@Concurrency@@QEAAPEAV_TaskCollection@23@PEAV423@@Z 000000014006ae5c f i libconcrt:TaskCollection.obj
 0001:00069ee4       ?GetGoverningTokenState@ContextBase@details@Concurrency@@QEAAPEAV_CancellationTokenState@23@XZ 000000014006aee4 f i libconcrt:TaskCollection.obj
 0001:00069eec       ?GetWorkQueueIdentity@ContextBase@details@Concurrency@@QEAAIXZ 000000014006aeec f i libconcrt:TaskCollection.obj
 0001:00069f14       ?Id@WorkQueue@details@Concurrency@@QEBAIXZ 000000014006af14 f i libconcrt:TaskCollection.obj
 0001:00069f1c       ?IncrementDequeuedTaskCounter@ExternalContextBase@details@Concurrency@@QEAAXI@Z 000000014006af1c f i libconcrt:TaskCollection.obj
 0001:00069f28       ?IncrementDequeuedTaskCounter@ExternalContextBase@details@Concurrency@@QEAAXXZ 000000014006af28 f i libconcrt:TaskCollection.obj
 0001:00069f34       ?IncrementDequeuedTaskCounter@ExternalStatistics@details@Concurrency@@QEAAXI@Z 000000014006af34 f i libconcrt:TaskCollection.obj
 0001:00069f38       ?IncrementDequeuedTaskCounter@ExternalStatistics@details@Concurrency@@QEAAXXZ 000000014006af38 f i libconcrt:TaskCollection.obj
 0001:00069f3c       ?IncrementDequeuedTaskCounter@InternalContextBase@details@Concurrency@@QEAAXI@Z 000000014006af3c f i libconcrt:TaskCollection.obj
 0001:00069f4c       ?IncrementDequeuedTaskCounter@InternalContextBase@details@Concurrency@@QEAAXXZ 000000014006af4c f i libconcrt:TaskCollection.obj
 0001:00069f5c       ?Insert@?$Hash@PEAV_TaskCollection@details@Concurrency@@PEAV123@@details@Concurrency@@QEAAPEAUListNode@123@AEBQEAV_TaskCollection@23@0@Z 000000014006af5c f i libconcrt:TaskCollection.obj
 0001:0006a038       ?IsEmpty@TaskStack@details@Concurrency@@QEBA_NXZ 000000014006b038 f   libconcrt:TaskCollection.obj
 0001:0006a040       ?Lookup@?$Hash@PEAV_TaskCollection@details@Concurrency@@PEAV123@@details@Concurrency@@AEAAPEAUListNode@123@AEBQEAV_TaskCollection@23@H@Z 000000014006b040 f i libconcrt:TaskCollection.obj
 0001:0006a064       ?Overflow@TaskStack@details@Concurrency@@QEBA_NXZ 000000014006b064 f i libconcrt:TaskCollection.obj
 0001:0006a068       ?PendingCancel@ContextBase@details@Concurrency@@QEAAXXZ 000000014006b068 f i libconcrt:TaskCollection.obj
 0001:0006a070       ?PendingCancelComplete@ContextBase@details@Concurrency@@QEAAXXZ 000000014006b070 f i libconcrt:TaskCollection.obj
 0001:0006a078       ?Pop@TaskStack@details@Concurrency@@QEAAHXZ 000000014006b078 f   libconcrt:TaskCollection.obj
 0001:0006a08c       ?Push@TaskStack@details@Concurrency@@QEAA_NH@Z 000000014006b08c f   libconcrt:TaskCollection.obj
 0001:0006a12c       ?ResetOverflow@TaskStack@details@Concurrency@@QEAAXXZ 000000014006b12c f i libconcrt:TaskCollection.obj
 0001:0006a134       ?SetExecutingCollection@ContextBase@details@Concurrency@@QEAAXPEAV_TaskCollectionBase@23@@Z 000000014006b134 f i libconcrt:TaskCollection.obj
 0001:0006a13c       ?_Abort@_StructuredTaskCollection@details@Concurrency@@AEAAXXZ 000000014006b13c f   libconcrt:TaskCollection.obj
 0001:0006a228       ?_Abort@_TaskCollection@details@Concurrency@@AEAAX_N@Z 000000014006b228 f   libconcrt:TaskCollection.obj
 0001:0006a3f4       ?_AbortiveSweep@_TaskCollection@details@Concurrency@@AEAAXPEAX@Z 000000014006b3f4 f   libconcrt:TaskCollection.obj
 0001:0006a450       ?_Alias@_TaskCollection@details@Concurrency@@AEAAPEAV123@XZ 000000014006b450 f   libconcrt:TaskCollection.obj
 0001:0006a54c       ?_Atomic_compare_exchange_strong_4@std@@YAHPECKPEAKKW4memory_order@1@2@Z 000000014006b54c f i libconcrt:TaskCollection.obj
 0001:0006a5ac       ?_Atomic_exchange_4@std@@YAKPECKKW4memory_order@1@@Z 000000014006b5ac f i libconcrt:TaskCollection.obj
 0001:0006a5d0       ?_Atomic_store_4@std@@YAXPECKKW4memory_order@1@@Z 000000014006b5d0 f i libconcrt:TaskCollection.obj
 0001:0006a5d0       ?atomic_store_explicit@std@@YAXPEAU_Atomic_long@1@JW4memory_order@1@@Z 000000014006b5d0 f i libconcrt:TaskCollection.obj
 0001:0006a5e8       ?_Cancel@_StructuredTaskCollection@details@Concurrency@@QEAAXXZ 000000014006b5e8 f   libconcrt:TaskCollection.obj
 0001:0006a674       ?_Cancel@_TaskCollection@details@Concurrency@@AEAAX_NPEAV123@@Z 000000014006b674 f   libconcrt:TaskCollection.obj
 0001:0006a768       ?_CancelViaToken@_TaskCollection@details@Concurrency@@CAXPEAV123@@Z 000000014006b768 f   libconcrt:TaskCollection.obj
 0001:0006a768       ?_Cancel@_TaskCollection@details@Concurrency@@QEAAXXZ 000000014006b768 f   libconcrt:TaskCollection.obj
 0001:0006a780       ?_CancelDirectAliases@_TaskCollection@details@Concurrency@@AEAAX_NPEAV123@@Z 000000014006b780 f   libconcrt:TaskCollection.obj
 0001:0006a7b8       ?_CancelFromArbitraryThread@_TaskCollection@details@Concurrency@@AEAAX_N@Z 000000014006b7b8 f   libconcrt:TaskCollection.obj
 0001:0006a878       ?_CancelStolenContexts@_StructuredTaskCollection@details@Concurrency@@QEAAXXZ 000000014006b878 f   libconcrt:TaskCollection.obj
 0001:0006a884       ?_CancelStolenContexts@_TaskCollection@details@Concurrency@@AEAAX_N0@Z 000000014006b884 f   libconcrt:TaskCollection.obj
 0001:0006a938       ?_CancelViaToken@_StructuredTaskCollection@details@Concurrency@@CAXPEAV123@@Z 000000014006b938 f   libconcrt:TaskCollection.obj
 0001:0006a940       ?_Check_C_return@std@@YAHH@Z 000000014006b940 f i libconcrt:TaskCollection.obj
 0001:0006a95c       ?_CleanupToken@_StructuredTaskCollection@details@Concurrency@@AEAAXXZ 000000014006b95c f   libconcrt:TaskCollection.obj
 0001:0006a9cc       ?_Cnd_broadcastX@std@@YAHPEAU_Cnd_internal_imp_t@@@Z 000000014006b9cc f i libconcrt:TaskCollection.obj
 0001:0006a9ec       ?_Cnd_waitX@std@@YAHPEAU_Cnd_internal_imp_t@@PEAU_Mtx_internal_imp_t@@@Z 000000014006b9ec f i libconcrt:TaskCollection.obj
 0001:0006aa0c       ?_CollectionMatchPredicate@_TaskCollection@details@Concurrency@@CA_NPEAV_UnrealizedChore@23@PEAX@Z 000000014006ba0c f   libconcrt:TaskCollection.obj
 0001:0006aa18       ?_Compare_exchange_relaxed_4@std@@YAHPECKPEAKK@Z 000000014006ba18 f i libconcrt:TaskCollection.obj
 0001:0006aa18       ?_Compare_exchange_release_4@std@@YAHPECKPEAKK@Z 000000014006ba18 f i libconcrt:TaskCollection.obj
 0001:0006aa18       ?_Compare_exchange_acquire_4@std@@YAHPECKPEAKK@Z 000000014006ba18 f i libconcrt:TaskCollection.obj
 0001:0006aa18       ?_Compare_exchange_seq_cst_4@std@@YAHPECKPEAKK@Z 000000014006ba18 f i libconcrt:TaskCollection.obj
 0001:0006aa2c       ?_CompletionHandler@_AsyncTaskCollection@details@Concurrency@@CAXPEAX@Z 000000014006ba2c f   libconcrt:TaskCollection.obj
 0001:0006aa34       ?_Construct@_StructuredTaskCollection@details@Concurrency@@AEAAXXZ 000000014006ba34 f i libconcrt:TaskCollection.obj
 0001:0006aa48       ?_CountUp@_StructuredTaskCollection@details@Concurrency@@AEAAXXZ 000000014006ba48 f   libconcrt:TaskCollection.obj
 0001:0006aa78       ?_DeregisterCallback@_CancellationTokenState@details@Concurrency@@QEAAXPEAV_CancellationTokenRegistration@23@@Z 000000014006ba78 f i libconcrt:TaskCollection.obj
 0001:0006abf0       ?_Destroy@_AsyncTaskCollection@details@Concurrency@@EEAAXXZ 000000014006bbf0 f   libconcrt:TaskCollection.obj
 0001:0006ac10       ?_Destroy@_RefCounter@details@Concurrency@@MEAAXXZ 000000014006bc10 f i libconcrt:TaskCollection.obj
 0001:0006ac30       ?_Destroy@_RefCounterBase@details@Concurrency@@MEAAXXZ 000000014006bc30 f i libconcrt:TaskCollection.obj
 0001:0006ac50       ?_Exception@_TaskCollectionBase@details@Concurrency@@IEBAPEAVexception_ptr@std@@XZ 000000014006bc50 f i libconcrt:TaskCollection.obj
 0001:0006ac5c       ?_Exec@CancellationTokenRegistration_TaskProc@details@Concurrency@@MEAAXXZ 000000014006bc5c f i libconcrt:TaskCollection.obj
 0001:0006ac74       ?_FullAliasWait@_TaskCollection@details@Concurrency@@AEAAXPEAV123@@Z 000000014006bc74 f   libconcrt:TaskCollection.obj
 0001:0006ae04       ?_GetRuntimeOwnsLifetime@_UnrealizedChore@details@Concurrency@@QEBA_NXZ 000000014006be04 f i libconcrt:TaskCollection.obj
 0001:0006ae08       ?_GetStealTrackingList@_TaskCollection@details@Concurrency@@AEBAPEAXXZ 000000014006be08 f   libconcrt:TaskCollection.obj
 0001:0006ae08       ?GetAffinitySet@ScheduleGroupSegmentBase@details@Concurrency@@IEBAAEBVQuickBitSet@23@XZ 000000014006be08 f   libconcrt:InternalContextBase.obj
 0001:0006ae10       ?_Get_memory_order@std@@YA?AW4memory_order@1@W421@@Z 000000014006be10 f i libconcrt:TaskCollection.obj
 0001:0006ae28       ?_HasDirectAlias@_TaskCollection@details@Concurrency@@AEBA_NXZ 000000014006be28 f   libconcrt:TaskCollection.obj
 0001:0006ae3c       ?_InitOnRawMalloca@?$_MallocaArrayHolder@PEAVevent@Concurrency@@@details@Concurrency@@QEAAPEAPEAVevent@3@PEAX@Z 000000014006be3c f i libconcrt:TaskCollection.obj
 0001:0006ae74       ?_Initialize@_StructuredTaskCollection@details@Concurrency@@AEAAXXZ 000000014006be74 f   libconcrt:TaskCollection.obj
 0001:0006aed0       ?_Initialize@_TaskCollection@details@Concurrency@@AEAAXXZ 000000014006bed0 f   libconcrt:TaskCollection.obj
 0001:0006aeec       ?_Invoke@_CancellationTokenRegistration@details@Concurrency@@AEAAXXZ 000000014006beec f i libconcrt:TaskCollection.obj
 0001:0006afd8       ?_IsAlias@_TaskCollection@details@Concurrency@@QEBA_NXZ 000000014006bfd8 f   libconcrt:TaskCollection.obj
 0001:0006afe4       ?_IsCanceling@_StructuredTaskCollection@details@Concurrency@@QEAA_NXZ 000000014006bfe4 f   libconcrt:TaskCollection.obj
 0001:0006b0a0       ?_IsCanceling@_TaskCollection@details@Concurrency@@QEAA_NXZ 000000014006c0a0 f   libconcrt:TaskCollection.obj
 0001:0006b1a8       ?_IsDirectAlias@_TaskCollection@details@Concurrency@@AEBA_NXZ 000000014006c1a8 f   libconcrt:TaskCollection.obj
 0001:0006b1c4       ?_IsIndirectAlias@_TaskCollection@details@Concurrency@@AEBA_NXZ 000000014006c1c4 f   libconcrt:TaskCollection.obj
 0001:0006b1e0       ?_IsMarkedForAbnormalExit@_TaskCollection@details@Concurrency@@QEBA_NXZ 000000014006c1e0 f   libconcrt:TaskCollection.obj
 0001:0006b1f0       ?_IsStaleAlias@_TaskCollection@details@Concurrency@@AEBA_NXZ 000000014006c1f0 f   libconcrt:TaskCollection.obj
 0001:0006b1fc       ?_IsValid@_CancellationTokenState@details@Concurrency@@SA_NPEAV123@@Z 000000014006c1fc f i libconcrt:TaskCollection.obj
 0001:0006b208       ?_Memory_order_upper_bound@std@@YA?AW4memory_order@1@W421@0@Z 000000014006c208 f i libconcrt:TaskCollection.obj
 0001:0006b224       ?_Mtx_lockX@std@@YAHPEAU_Mtx_internal_imp_t@@@Z 000000014006c224 f i libconcrt:TaskCollection.obj
 0001:0006b244       ?_Mtx_unlockX@std@@YAHPEAU_Mtx_internal_imp_t@@@Z 000000014006c244 f i libconcrt:TaskCollection.obj
 0001:0006b264       ?_NewCollection@_AsyncTaskCollection@details@Concurrency@@SAPEAV123@PEAV_CancellationTokenState@23@@Z 000000014006c264 f   libconcrt:TaskCollection.obj
 0001:0006b2a0       ?_NotificationHandler@_AsyncTaskCollection@details@Concurrency@@AEAAXXZ 000000014006c2a0 f   libconcrt:TaskCollection.obj
 0001:0006b2c4       ?_NotifyCompletedChoreAndFree@_TaskCollection@details@Concurrency@@AEAAXPEAV_UnrealizedChore@23@@Z 000000014006c2c4 f   libconcrt:TaskCollection.obj
 0001:0006b32c       ?_NotifyNewChore@_TaskCollection@details@Concurrency@@AEAAXXZ 000000014006c32c f   libconcrt:TaskCollection.obj
 0001:0006b360       ?_OriginalCollection@_TaskCollection@details@Concurrency@@QEBAPEAV123@XZ 000000014006c360 f   libconcrt:TaskCollection.obj
 0001:0006b368       ?_PerformedInlineCancel@_TaskCollectionBase@details@Concurrency@@IEBA_NXZ 000000014006c368 f i libconcrt:TaskCollection.obj
 0001:0006b374       ?_PerformedPendingCancel@_TaskCollectionBase@details@Concurrency@@IEBA_NXZ 000000014006c374 f i libconcrt:TaskCollection.obj
 0001:0006b380       ?_RaisedCancel@_TaskCollection@details@Concurrency@@AEAAXXZ 000000014006c380 f   libconcrt:TaskCollection.obj
 0001:0006b3ac       ?_RaisedException@_TaskCollection@details@Concurrency@@AEAAXXZ 000000014006c3ac f   libconcrt:TaskCollection.obj
 0001:0006b3d8       ?_RegisterCallback@_CancellationTokenState@details@Concurrency@@QEAAPEAV_CancellationTokenRegistration@23@P6AXPEAX@Z0H@Z 000000014006c3d8 f i libconcrt:TaskCollection.obj
 0001:0006b450       ?_RegisterCallback@_CancellationTokenState@details@Concurrency@@QEAAXPEAV_CancellationTokenRegistration@23@@Z 000000014006c450 f i libconcrt:TaskCollection.obj
 0001:0006b51c       ?_RegisterCompletionHandler@_TaskCollection@details@Concurrency@@QEAAXP6AXPEAX@Z0@Z 000000014006c51c f   libconcrt:TaskCollection.obj
 0001:0006b52c       ?_Release@_RefCounter@details@Concurrency@@QEAAJXZ 000000014006c52c f i libconcrt:TaskCollection.obj
 0001:0006b554       ?_Release@_RefCounterBase@details@Concurrency@@QEAAJXZ 000000014006c554 f i libconcrt:TaskCollection.obj
 0001:0006b57c       ?_ReleaseAlias@_TaskCollection@details@Concurrency@@AEAAXXZ 000000014006c57c f   libconcrt:TaskCollection.obj
 0001:0006b5b8       ?_Reset@_TaskCollection@details@Concurrency@@AEAAXPEAV123@@Z 000000014006c5b8 f   libconcrt:TaskCollection.obj
 0001:0006b6e8       ?_RunAndWait@_StructuredTaskCollection@details@Concurrency@@QEAA?AW4_TaskCollectionStatus@23@PEAV_UnrealizedChore@23@@Z 000000014006c6e8 f   libconcrt:TaskCollection.obj
 0001:0006b9ec       ?_RunAndWait@_TaskCollection@details@Concurrency@@QEAA?AW4_TaskCollectionStatus@23@PEAV_UnrealizedChore@23@@Z 000000014006c9ec f   libconcrt:TaskCollection.obj
 0001:0006bea0       ?_Schedule@_StructuredTaskCollection@details@Concurrency@@QEAAXPEAV_UnrealizedChore@23@@Z 000000014006cea0 f   libconcrt:TaskCollection.obj
 0001:0006bf28       ?_Schedule@_StructuredTaskCollection@details@Concurrency@@QEAAXPEAV_UnrealizedChore@23@PEAVlocation@3@@Z 000000014006cf28 f   libconcrt:TaskCollection.obj
 0001:0006bfc0       ?_Schedule@_TaskCollection@details@Concurrency@@QEAAXPEAV_UnrealizedChore@23@@Z 000000014006cfc0 f   libconcrt:TaskCollection.obj
 0001:0006c0cc       ?_Schedule@_TaskCollection@details@Concurrency@@QEAAXPEAV_UnrealizedChore@23@PEAVlocation@3@@Z 000000014006d0cc f   libconcrt:TaskCollection.obj
 0001:0006c1dc       ?_SetCancelState@_TaskCollection@details@Concurrency@@AEAA_NJ@Z 000000014006d1dc f   libconcrt:TaskCollection.obj
 0001:0006c208       ?_Store_seq_cst_4@std@@YAXPECKK@Z 000000014006d208 f i libconcrt:TaskCollection.obj
 0001:0006c208       ?atomic_store@std@@YAXPEAU_Atomic_long@1@J@Z 000000014006d208 f i libconcrt:TaskCollection.obj
 0001:0006c20c       ?_SweepAbortedChore@_TaskCollection@details@Concurrency@@CA_NPEAV_UnrealizedChore@23@PEAX@Z 000000014006d20c f   libconcrt:TaskCollection.obj
 0001:0006c22c       ?_TaskCleanup@_StructuredTaskCollection@details@Concurrency@@AEAA_NXZ 000000014006d22c f i libconcrt:TaskCollection.obj
 0001:0006c24c       ?_TaskCleanup@_TaskCollection@details@Concurrency@@AEAA_N_N@Z 000000014006d24c f   libconcrt:TaskCollection.obj
 0001:0006c2e8       ?_WaitOnStolenChores@_StructuredTaskCollection@details@Concurrency@@AEAAXJ@Z 000000014006d2e8 f   libconcrt:TaskCollection.obj
 0001:0006c328       ?atomic_compare_exchange_strong_explicit@std@@YA_NPEAU_Atomic_long@1@PEAJJW4memory_order@1@2@Z 000000014006d328 f i libconcrt:TaskCollection.obj
 0001:0006c388       ?exchange@_Atomic_long@std@@QEAAJJW4memory_order@2@@Z 000000014006d388 f i libconcrt:TaskCollection.obj
 0001:0006c388       ?atomic_exchange_explicit@std@@YAJPEAU_Atomic_long@1@JW4memory_order@1@@Z 000000014006d388 f i libconcrt:TaskCollection.obj
 0001:0006c3b0       ?compare_exchange_strong@_Atomic_long@std@@QEAA_NAEAJJW4memory_order@2@@Z 000000014006d3b0 f i libconcrt:TaskCollection.obj
 0001:0006c438       ?lock@_Mutex_base@std@@QEAAXXZ 000000014006d438 f i libconcrt:TaskCollection.obj
 0001:0006c454       ?notify_all@condition_variable@std@@QEAAXXZ 000000014006d454 f i libconcrt:TaskCollection.obj
 0001:0006c478       ?push_back@TokenRegistrationContainer@_CancellationTokenState@details@Concurrency@@QEAAXPEAV_CancellationTokenRegistration@34@@Z 000000014006d478 f i libconcrt:TaskCollection.obj
 0001:0006c4d0       ?remove@TokenRegistrationContainer@_CancellationTokenState@details@Concurrency@@QEAAXPEAV_CancellationTokenRegistration@34@@Z 000000014006d4d0 f i libconcrt:TaskCollection.obj
 0001:0006c524       ?unlock@_Mutex_base@std@@QEAAXXZ 000000014006d524 f i libconcrt:TaskCollection.obj
 0001:0006c540       ?wait@condition_variable@std@@QEAAXAEAV?$unique_lock@Vmutex@std@@@2@@Z 000000014006d540 f i libconcrt:TaskCollection.obj
 0001:0006c55c       ??0SchedulerPolicy@Concurrency@@QEAA@AEBV01@@Z 000000014006d55c f   libconcrt:SchedulerPolicyBase.obj
 0001:0006c5a4       ??0SchedulerPolicy@Concurrency@@QEAA@XZ 000000014006d5a4 f   libconcrt:SchedulerPolicyBase.obj
 0001:0006c5c0       ??0SchedulerPolicy@Concurrency@@QEAA@_KZZ 000000014006d5c0 f   libconcrt:SchedulerPolicyBase.obj
 0001:0006c5f4       ??0invalid_scheduler_policy_key@Concurrency@@QEAA@AEBV01@@Z 000000014006d5f4 f i libconcrt:SchedulerPolicyBase.obj
 0001:0006c634       ??0invalid_scheduler_policy_thread_specification@Concurrency@@QEAA@AEBV01@@Z 000000014006d634 f i libconcrt:SchedulerPolicyBase.obj
 0001:0006c674       ??0invalid_scheduler_policy_value@Concurrency@@QEAA@AEBV01@@Z 000000014006d674 f i libconcrt:SchedulerPolicyBase.obj
